; ModuleID = '/home/mrahman12/splash2/codes/kernels/fft/compile/fi/fi-0/fft.ll'
target datalayout = "e-p:64:64:64-i1:8:8-i8:8:8-i16:16:16-i32:32:32-i64:64:64-f32:32:32-f64:64:64-v64:64:64-v128:128:128-a0:0:64-s0:64:64-f80:128:128-n8:16:32:64-S128"
target triple = "x86_64-unknown-linux-gnu"

%struct.GlobalMemory = type { i64, i64*, i64*, i64, i64, i64 }
%struct._IO_FILE = type { i32, i8*, i8*, i8*, i8*, i8*, i8*, i8*, i8*, i8*, i8*, i8*, %struct._IO_marker*, %struct._IO_FILE*, i32, i32, i64, i16, i8, [1 x i8], i8*, i64, i8*, i8*, i8*, i8*, i64, i32, [20 x i8] }
%struct._IO_marker = type { %struct._IO_marker*, %struct._IO_FILE*, i32 }

@Global = global %struct.GlobalMemory* null, align 8
@P = global i64 1, align 8
@M = global i64 10, align 8
@N = global i64 0, align 8
@rootN = global i64 0, align 8
@x = global double* null, align 8
@trans = global double* null, align 8
@umain = global double* null, align 8
@umain2 = global double* null, align 8
@test_result = global i64 0, align 8
@doprint = global i64 0, align 8
@dostats = global i64 0, align 8
@transtime = global i64 0, align 8
@transtime2 = global i64 0, align 8
@avgtranstime = global i64 0, align 8
@avgcomptime = global i64 0, align 8
@transstart = global i64 0, align 8
@transend = global i64 0, align 8
@maxtotal = global i64 0, align 8
@mintotal = global i64 0, align 8
@maxfrac = global double 0.000000e+00, align 8
@minfrac = global double 0.000000e+00, align 8
@avgfractime = global double 0.000000e+00, align 8
@orig_num_lines = global i64 65536, align 8
@num_cache_lines = global i64 65536, align 8
@log2_line_size = global i64 4, align 8
@line_size = global i64 0, align 8
@rowsperproc = global i64 0, align 8
@ck1 = global double 0.000000e+00, align 8
@ck3 = global double 0.000000e+00, align 8
@pad_length = global i64 0, align 8
@.str = private unnamed_addr constant [13 x i8] c"p:m:n:l:stoh\00", align 1
@optarg = external global i8*
@.str1 = private unnamed_addr constant [16 x i8] c"P must be >= 1\0A\00", align 1
@.str2 = private unnamed_addr constant [24 x i8] c"P must be a power of 2\0A\00", align 1
@.str3 = private unnamed_addr constant [16 x i8] c"M must be even\0A\00", align 1
@.str4 = private unnamed_addr constant [36 x i8] c"Number of cache lines must be >= 1\0A\00", align 1
@.str5 = private unnamed_addr constant [55 x i8] c"Log base 2 of cache line length in bytes must be >= 0\0A\00", align 1
@.str6 = private unnamed_addr constant [23 x i8] c"Usage: FFT <options>\0A\0A\00", align 1
@.str7 = private unnamed_addr constant [10 x i8] c"options:\0A\00", align 1
@.str8 = private unnamed_addr constant [71 x i8] c"  -mM : M = even integer; 2**M total complex data points transformed.\0A\00", align 1
@.str9 = private unnamed_addr constant [57 x i8] c"  -pP : P = number of processors; Must be a power of 2.\0A\00", align 1
@.str10 = private unnamed_addr constant [36 x i8] c"  -nN : N = number of cache lines.\0A\00", align 1
@.str11 = private unnamed_addr constant [55 x i8] c"  -lL : L = Log base 2 of cache line length in bytes.\0A\00", align 1
@.str12 = private unnamed_addr constant [55 x i8] c"  -s  : Print individual processor timing statistics.\0A\00", align 1
@.str13 = private unnamed_addr constant [68 x i8] c"  -t  : Perform FFT and inverse FFT.  Test output by comparing the\0A\00", align 1
@.str14 = private unnamed_addr constant [72 x i8] c"        integral of the original data to the integral of the data that\0A\00", align 1
@.str15 = private unnamed_addr constant [58 x i8] c"        results from performing the FFT and inverse FFT.\0A\00", align 1
@.str16 = private unnamed_addr constant [40 x i8] c"  -o  : Print out complex data points.\0A\00", align 1
@.str17 = private unnamed_addr constant [42 x i8] c"  -h  : Print out command line options.\0A\0A\00", align 1
@.str18 = private unnamed_addr constant [38 x i8] c"Default: FFT -m%1d -p%1d -n%1d -l%1d\0A\00", align 1
@.str19 = private unnamed_addr constant [48 x i8] c"Matrix not large enough. 2**(M/2) must be >= P\0A\00", align 1
@.str20 = private unnamed_addr constant [55 x i8] c"WARNING: Each element is a complex double (%ld bytes)\0A\00", align 1
@.str21 = private unnamed_addr constant [43 x i8] c"  => Less than one element per cache line\0A\00", align 1
@.str22 = private unnamed_addr constant [42 x i8] c"     Computing transpose blocking factor\0A\00", align 1
@.str23 = private unnamed_addr constant [32 x i8] c"Padding algorithm unsuccessful\0A\00", align 1
@.str24 = private unnamed_addr constant [36 x i8] c"Could not malloc memory for Global\0A\00", align 1
@.str25 = private unnamed_addr constant [31 x i8] c"Could not malloc memory for x\0A\00", align 1
@.str26 = private unnamed_addr constant [35 x i8] c"Could not malloc memory for trans\0A\00", align 1
@.str27 = private unnamed_addr constant [35 x i8] c"Could not malloc memory for umain\0A\00", align 1
@.str28 = private unnamed_addr constant [36 x i8] c"Could not malloc memory for umain2\0A\00", align 1
@.str29 = private unnamed_addr constant [23 x i8] c"Original data values:\0A\00", align 1
@.str30 = private unnamed_addr constant [32 x i8] c"Data values after inverse FFT:\0A\00", align 1
@.str31 = private unnamed_addr constant [24 x i8] c"Data values after FFT:\0A\00", align 1
@.str32 = private unnamed_addr constant [26 x i8] c"INVERSE FFT TEST RESULTS\0A\00", align 1
@.str33 = private unnamed_addr constant [42 x i8] c"Checksum difference is %.3f (%.3f, %.3f)\0A\00", align 1
@.str34 = private unnamed_addr constant [13 x i8] c"TEST PASSED\0A\00", align 1
@.str35 = private unnamed_addr constant [13 x i8] c"TEST FAILED\0A\00", align 1
@stderr = external global %struct._IO_FILE*
@.str36 = private unnamed_addr constant [44 x i8] c"Proc %ld could not malloc memory for upriv\0A\00", align 1
@.str37 = private unnamed_addr constant [13 x i8] c" %4.2f %4.2f\00", align 1
@.str38 = private unnamed_addr constant [2 x i8] c",\00", align 1
@.str39 = private unnamed_addr constant [2 x i8] c"\0A\00", align 1
@.str40 = private unnamed_addr constant [11 x i8] c"ERROR: %s\0A\00", align 1

; Function Attrs: uwtable
define i32 @main(i32 %argc, i8** %argv) #0 {
  %1 = alloca i32, align 4, !llfi_index !1
  %2 = alloca i32, align 4, !llfi_index !2
  %3 = alloca i8**, align 8, !llfi_index !3
  %i = alloca i64, align 8, !llfi_index !4
  %c = alloca i64, align 8, !llfi_index !5
  %m1 = alloca i64, align 8, !llfi_index !6
  %factor = alloca i64, align 8, !llfi_index !7
  %pages = alloca i64, align 8, !llfi_index !8
  %start = alloca i64, align 8, !llfi_index !9
  store i32 0, i32* %1, !llfi_index !10
  store i32 %argc, i32* %2, align 4, !llfi_index !11
  store i8** %argv, i8*** %3, align 8, !llfi_index !12
  br label %4, !llfi_index !13

; <label>:4                                       ; preds = %83, %0
  %5 = load i32* %2, align 4, !llfi_index !14
  %6 = load i8*** %3, align 8, !llfi_index !15
  %7 = call i32 @getopt(i32 %5, i8** %6, i8* getelementptr inbounds ([13 x i8]* @.str, i32 0, i32 0)) #7, !llfi_index !16
  %8 = sext i32 %7 to i64, !llfi_index !17
  store i64 %8, i64* %c, align 8, !llfi_index !18
  %9 = icmp ne i64 %8, -1, !llfi_index !19
  br i1 %9, label %10, label %84, !llfi_index !20

; <label>:10                                      ; preds = %4
  %11 = load i64* %c, align 8, !llfi_index !21
  switch i64 %11, label %83 [
    i64 112, label %12
    i64 109, label %25
    i64 110, label %37
    i64 108, label %46
    i64 115, label %54
    i64 116, label %59
    i64 111, label %64
    i64 104, label %69
  ], !llfi_index !22

; <label>:12                                      ; preds = %10
  %13 = load i8** @optarg, align 8, !llfi_index !23
  %14 = call i32 @atoi(i8* %13) #8, !llfi_index !24
  %15 = sext i32 %14 to i64, !llfi_index !25
  store i64 %15, i64* @P, align 8, !llfi_index !26
  %16 = load i64* @P, align 8, !llfi_index !27
  %17 = icmp slt i64 %16, 1, !llfi_index !28
  br i1 %17, label %18, label %19, !llfi_index !29

; <label>:18                                      ; preds = %12
  call void @_Z8printerrPc(i8* getelementptr inbounds ([16 x i8]* @.str1, i32 0, i32 0)), !llfi_index !30
  call void @exit(i32 -1) #9, !llfi_index !31
  unreachable, !llfi_index !32

; <label>:19                                      ; preds = %12
  %20 = load i64* @P, align 8, !llfi_index !33
  %21 = call i64 @_Z5log_2l(i64 %20), !llfi_index !34
  %22 = icmp eq i64 %21, -1, !llfi_index !35
  br i1 %22, label %23, label %24, !llfi_index !36

; <label>:23                                      ; preds = %19
  call void @_Z8printerrPc(i8* getelementptr inbounds ([24 x i8]* @.str2, i32 0, i32 0)), !llfi_index !37
  call void @exit(i32 -1) #9, !llfi_index !38
  unreachable, !llfi_index !39

; <label>:24                                      ; preds = %19
  br label %83, !llfi_index !40

; <label>:25                                      ; preds = %10
  %26 = load i8** @optarg, align 8, !llfi_index !41
  %27 = call i32 @atoi(i8* %26) #8, !llfi_index !42
  %28 = sext i32 %27 to i64, !llfi_index !43
  store i64 %28, i64* @M, align 8, !llfi_index !44
  %29 = load i64* @M, align 8, !llfi_index !45
  %30 = sdiv i64 %29, 2, !llfi_index !46
  store i64 %30, i64* %m1, align 8, !llfi_index !47
  %31 = load i64* %m1, align 8, !llfi_index !48
  %32 = mul nsw i64 2, %31, !llfi_index !49
  %33 = load i64* @M, align 8, !llfi_index !50
  %34 = icmp ne i64 %32, %33, !llfi_index !51
  br i1 %34, label %35, label %36, !llfi_index !52

; <label>:35                                      ; preds = %25
  call void @_Z8printerrPc(i8* getelementptr inbounds ([16 x i8]* @.str3, i32 0, i32 0)), !llfi_index !53
  call void @exit(i32 -1) #9, !llfi_index !54
  unreachable, !llfi_index !55

; <label>:36                                      ; preds = %25
  br label %83, !llfi_index !56

; <label>:37                                      ; preds = %10
  %38 = load i8** @optarg, align 8, !llfi_index !57
  %39 = call i32 @atoi(i8* %38) #8, !llfi_index !58
  %40 = sext i32 %39 to i64, !llfi_index !59
  store i64 %40, i64* @num_cache_lines, align 8, !llfi_index !60
  %41 = load i64* @num_cache_lines, align 8, !llfi_index !61
  store i64 %41, i64* @orig_num_lines, align 8, !llfi_index !62
  %42 = load i64* @num_cache_lines, align 8, !llfi_index !63
  %43 = icmp slt i64 %42, 1, !llfi_index !64
  br i1 %43, label %44, label %45, !llfi_index !65

; <label>:44                                      ; preds = %37
  call void @_Z8printerrPc(i8* getelementptr inbounds ([36 x i8]* @.str4, i32 0, i32 0)), !llfi_index !66
  call void @exit(i32 -1) #9, !llfi_index !67
  unreachable, !llfi_index !68

; <label>:45                                      ; preds = %37
  br label %83, !llfi_index !69

; <label>:46                                      ; preds = %10
  %47 = load i8** @optarg, align 8, !llfi_index !70
  %48 = call i32 @atoi(i8* %47) #8, !llfi_index !71
  %49 = sext i32 %48 to i64, !llfi_index !72
  store i64 %49, i64* @log2_line_size, align 8, !llfi_index !73
  %50 = load i64* @log2_line_size, align 8, !llfi_index !74
  %51 = icmp slt i64 %50, 0, !llfi_index !75
  br i1 %51, label %52, label %53, !llfi_index !76

; <label>:52                                      ; preds = %46
  call void @_Z8printerrPc(i8* getelementptr inbounds ([55 x i8]* @.str5, i32 0, i32 0)), !llfi_index !77
  call void @exit(i32 -1) #9, !llfi_index !78
  unreachable, !llfi_index !79

; <label>:53                                      ; preds = %46
  br label %83, !llfi_index !80

; <label>:54                                      ; preds = %10
  %55 = load i64* @dostats, align 8, !llfi_index !81
  %56 = icmp ne i64 %55, 0, !llfi_index !82
  %57 = xor i1 %56, true, !llfi_index !83
  %58 = zext i1 %57 to i64, !llfi_index !84
  store i64 %58, i64* @dostats, align 8, !llfi_index !85
  br label %83, !llfi_index !86

; <label>:59                                      ; preds = %10
  %60 = load i64* @test_result, align 8, !llfi_index !87
  %61 = icmp ne i64 %60, 0, !llfi_index !88
  %62 = xor i1 %61, true, !llfi_index !89
  %63 = zext i1 %62 to i64, !llfi_index !90
  store i64 %63, i64* @test_result, align 8, !llfi_index !91
  br label %83, !llfi_index !92

; <label>:64                                      ; preds = %10
  %65 = load i64* @doprint, align 8, !llfi_index !93
  %66 = icmp ne i64 %65, 0, !llfi_index !94
  %67 = xor i1 %66, true, !llfi_index !95
  %68 = zext i1 %67 to i64, !llfi_index !96
  store i64 %68, i64* @doprint, align 8, !llfi_index !97
  br label %83, !llfi_index !98

; <label>:69                                      ; preds = %10
  %70 = call i32 (i8*, ...)* @printf(i8* getelementptr inbounds ([23 x i8]* @.str6, i32 0, i32 0)), !llfi_index !99
  %71 = call i32 (i8*, ...)* @printf(i8* getelementptr inbounds ([10 x i8]* @.str7, i32 0, i32 0)), !llfi_index !100
  %72 = call i32 (i8*, ...)* @printf(i8* getelementptr inbounds ([71 x i8]* @.str8, i32 0, i32 0)), !llfi_index !101
  %73 = call i32 (i8*, ...)* @printf(i8* getelementptr inbounds ([57 x i8]* @.str9, i32 0, i32 0)), !llfi_index !102
  %74 = call i32 (i8*, ...)* @printf(i8* getelementptr inbounds ([36 x i8]* @.str10, i32 0, i32 0)), !llfi_index !103
  %75 = call i32 (i8*, ...)* @printf(i8* getelementptr inbounds ([55 x i8]* @.str11, i32 0, i32 0)), !llfi_index !104
  %76 = call i32 (i8*, ...)* @printf(i8* getelementptr inbounds ([55 x i8]* @.str12, i32 0, i32 0)), !llfi_index !105
  %77 = call i32 (i8*, ...)* @printf(i8* getelementptr inbounds ([68 x i8]* @.str13, i32 0, i32 0)), !llfi_index !106
  %78 = call i32 (i8*, ...)* @printf(i8* getelementptr inbounds ([72 x i8]* @.str14, i32 0, i32 0)), !llfi_index !107
  %79 = call i32 (i8*, ...)* @printf(i8* getelementptr inbounds ([58 x i8]* @.str15, i32 0, i32 0)), !llfi_index !108
  %80 = call i32 (i8*, ...)* @printf(i8* getelementptr inbounds ([40 x i8]* @.str16, i32 0, i32 0)), !llfi_index !109
  %81 = call i32 (i8*, ...)* @printf(i8* getelementptr inbounds ([42 x i8]* @.str17, i32 0, i32 0)), !llfi_index !110
  %82 = call i32 (i8*, ...)* @printf(i8* getelementptr inbounds ([38 x i8]* @.str18, i32 0, i32 0), i32 10, i32 1, i32 65536, i32 4), !llfi_index !111
  call void @exit(i32 0) #9, !llfi_index !112
  unreachable, !llfi_index !113

; <label>:83                                      ; preds = %64, %59, %54, %53, %45, %36, %24, %10
  br label %4, !llfi_index !114

; <label>:84                                      ; preds = %4
  %85 = load i64* @M, align 8, !llfi_index !115
  %86 = trunc i64 %85 to i32, !llfi_index !116
  %87 = shl i32 1, %86, !llfi_index !117
  %88 = sext i32 %87 to i64, !llfi_index !118
  store i64 %88, i64* @N, align 8, !llfi_index !119
  %89 = load i64* @M, align 8, !llfi_index !120
  %90 = sdiv i64 %89, 2, !llfi_index !121
  %91 = trunc i64 %90 to i32, !llfi_index !122
  %92 = shl i32 1, %91, !llfi_index !123
  %93 = sext i32 %92 to i64, !llfi_index !124
  store i64 %93, i64* @rootN, align 8, !llfi_index !125
  %94 = load i64* @rootN, align 8, !llfi_index !126
  %95 = load i64* @P, align 8, !llfi_index !127
  %96 = sdiv i64 %94, %95, !llfi_index !128
  store i64 %96, i64* @rowsperproc, align 8, !llfi_index !129
  %97 = load i64* @rowsperproc, align 8, !llfi_index !130
  %98 = icmp eq i64 %97, 0, !llfi_index !131
  br i1 %98, label %99, label %100, !llfi_index !132

; <label>:99                                      ; preds = %84
  call void @_Z8printerrPc(i8* getelementptr inbounds ([48 x i8]* @.str19, i32 0, i32 0)), !llfi_index !133
  call void @exit(i32 -1) #9, !llfi_index !134
  unreachable, !llfi_index !135

; <label>:100                                     ; preds = %84
  %101 = load i64* @log2_line_size, align 8, !llfi_index !136
  %102 = trunc i64 %101 to i32, !llfi_index !137
  %103 = shl i32 1, %102, !llfi_index !138
  %104 = sext i32 %103 to i64, !llfi_index !139
  store i64 %104, i64* @line_size, align 8, !llfi_index !140
  %105 = load i64* @line_size, align 8, !llfi_index !141
  %106 = icmp ult i64 %105, 16, !llfi_index !142
  br i1 %106, label %107, label %116, !llfi_index !143

; <label>:107                                     ; preds = %100
  %108 = call i32 (i8*, ...)* @printf(i8* getelementptr inbounds ([55 x i8]* @.str20, i32 0, i32 0), i64 16), !llfi_index !144
  %109 = call i32 (i8*, ...)* @printf(i8* getelementptr inbounds ([43 x i8]* @.str21, i32 0, i32 0)), !llfi_index !145
  %110 = call i32 (i8*, ...)* @printf(i8* getelementptr inbounds ([42 x i8]* @.str22, i32 0, i32 0)), !llfi_index !146
  %111 = load i64* @line_size, align 8, !llfi_index !147
  %112 = udiv i64 16, %111, !llfi_index !148
  store i64 %112, i64* %factor, align 8, !llfi_index !149
  %113 = load i64* @orig_num_lines, align 8, !llfi_index !150
  %114 = load i64* %factor, align 8, !llfi_index !151
  %115 = sdiv i64 %113, %114, !llfi_index !152
  store i64 %115, i64* @num_cache_lines, align 8, !llfi_index !153
  br label %116, !llfi_index !154

; <label>:116                                     ; preds = %107, %100
  %117 = load i64* @line_size, align 8, !llfi_index !155
  %118 = icmp ule i64 %117, 16, !llfi_index !156
  br i1 %118, label %119, label %120, !llfi_index !157

; <label>:119                                     ; preds = %116
  store i64 1, i64* @pad_length, align 8, !llfi_index !158
  br label %123, !llfi_index !159

; <label>:120                                     ; preds = %116
  %121 = load i64* @line_size, align 8, !llfi_index !160
  %122 = udiv i64 %121, 16, !llfi_index !161
  store i64 %122, i64* @pad_length, align 8, !llfi_index !162
  br label %123, !llfi_index !163

; <label>:123                                     ; preds = %120, %119
  %124 = load i64* @rowsperproc, align 8, !llfi_index !164
  %125 = load i64* @rootN, align 8, !llfi_index !165
  %126 = mul nsw i64 %124, %125, !llfi_index !166
  %127 = mul nsw i64 %126, 2, !llfi_index !167
  %128 = mul i64 %127, 8, !llfi_index !168
  %129 = icmp uge i64 %128, 4096, !llfi_index !169
  br i1 %129, label %130, label %154, !llfi_index !170

; <label>:130                                     ; preds = %123
  %131 = load i64* @pad_length, align 8, !llfi_index !171
  %132 = mul nsw i64 2, %131, !llfi_index !172
  %133 = mul i64 %132, 8, !llfi_index !173
  %134 = load i64* @rowsperproc, align 8, !llfi_index !174
  %135 = mul i64 %133, %134, !llfi_index !175
  %136 = udiv i64 %135, 4096, !llfi_index !176
  store i64 %136, i64* %pages, align 8, !llfi_index !177
  %137 = load i64* %pages, align 8, !llfi_index !178
  %138 = mul nsw i64 %137, 4096, !llfi_index !179
  %139 = load i64* @pad_length, align 8, !llfi_index !180
  %140 = mul nsw i64 2, %139, !llfi_index !181
  %141 = mul i64 %140, 8, !llfi_index !182
  %142 = load i64* @rowsperproc, align 8, !llfi_index !183
  %143 = mul i64 %141, %142, !llfi_index !184
  %144 = icmp ne i64 %138, %143, !llfi_index !185
  br i1 %144, label %145, label %148, !llfi_index !186

; <label>:145                                     ; preds = %130
  %146 = load i64* %pages, align 8, !llfi_index !187
  %147 = add nsw i64 %146, 1, !llfi_index !188
  store i64 %147, i64* %pages, align 8, !llfi_index !189
  br label %148, !llfi_index !190

; <label>:148                                     ; preds = %145, %130
  %149 = load i64* %pages, align 8, !llfi_index !191
  %150 = mul nsw i64 %149, 4096, !llfi_index !192
  %151 = load i64* @rowsperproc, align 8, !llfi_index !193
  %152 = mul i64 16, %151, !llfi_index !194
  %153 = udiv i64 %150, %152, !llfi_index !195
  store i64 %153, i64* @pad_length, align 8, !llfi_index !196
  br label %177, !llfi_index !197

; <label>:154                                     ; preds = %123
  %155 = load i64* @rowsperproc, align 8, !llfi_index !198
  %156 = load i64* @rootN, align 8, !llfi_index !199
  %157 = mul nsw i64 %155, %156, !llfi_index !200
  %158 = mul nsw i64 %157, 2, !llfi_index !201
  %159 = mul i64 %158, 8, !llfi_index !202
  %160 = sub i64 4096, %159, !llfi_index !203
  %161 = load i64* @rowsperproc, align 8, !llfi_index !204
  %162 = mul i64 16, %161, !llfi_index !205
  %163 = udiv i64 %160, %162, !llfi_index !206
  store i64 %163, i64* @pad_length, align 8, !llfi_index !207
  %164 = load i64* @pad_length, align 8, !llfi_index !208
  %165 = load i64* @rowsperproc, align 8, !llfi_index !209
  %166 = mul i64 16, %165, !llfi_index !210
  %167 = mul i64 %164, %166, !llfi_index !211
  %168 = load i64* @rowsperproc, align 8, !llfi_index !212
  %169 = load i64* @rootN, align 8, !llfi_index !213
  %170 = mul nsw i64 %168, %169, !llfi_index !214
  %171 = mul nsw i64 %170, 2, !llfi_index !215
  %172 = mul i64 %171, 8, !llfi_index !216
  %173 = sub i64 4096, %172, !llfi_index !217
  %174 = icmp ne i64 %167, %173, !llfi_index !218
  br i1 %174, label %175, label %176, !llfi_index !219

; <label>:175                                     ; preds = %154
  call void @_Z8printerrPc(i8* getelementptr inbounds ([32 x i8]* @.str23, i32 0, i32 0)), !llfi_index !220
  call void @exit(i32 -1) #9, !llfi_index !221
  unreachable, !llfi_index !222

; <label>:176                                     ; preds = %154
  br label %177, !llfi_index !223

; <label>:177                                     ; preds = %176, %148
  %178 = call noalias i8* @malloc(i64 48) #7, !llfi_index !224
  %179 = bitcast i8* %178 to %struct.GlobalMemory*, !llfi_index !225
  store %struct.GlobalMemory* %179, %struct.GlobalMemory** @Global, align 8, !llfi_index !226
  %180 = load i64* @N, align 8, !llfi_index !227
  %181 = load i64* @rootN, align 8, !llfi_index !228
  %182 = load i64* @pad_length, align 8, !llfi_index !229
  %183 = mul nsw i64 %181, %182, !llfi_index !230
  %184 = add nsw i64 %180, %183, !llfi_index !231
  %185 = mul nsw i64 2, %184, !llfi_index !232
  %186 = mul i64 %185, 8, !llfi_index !233
  %187 = add i64 %186, 4096, !llfi_index !234
  %188 = call noalias i8* @malloc(i64 %187) #7, !llfi_index !235
  %189 = bitcast i8* %188 to double*, !llfi_index !236
  store double* %189, double** @x, align 8, !llfi_index !237
  %190 = load i64* @N, align 8, !llfi_index !238
  %191 = load i64* @rootN, align 8, !llfi_index !239
  %192 = load i64* @pad_length, align 8, !llfi_index !240
  %193 = mul nsw i64 %191, %192, !llfi_index !241
  %194 = add nsw i64 %190, %193, !llfi_index !242
  %195 = mul nsw i64 2, %194, !llfi_index !243
  %196 = mul i64 %195, 8, !llfi_index !244
  %197 = add i64 %196, 4096, !llfi_index !245
  %198 = call noalias i8* @malloc(i64 %197) #7, !llfi_index !246
  %199 = bitcast i8* %198 to double*, !llfi_index !247
  store double* %199, double** @trans, align 8, !llfi_index !248
  %200 = load i64* @rootN, align 8, !llfi_index !249
  %201 = mul nsw i64 2, %200, !llfi_index !250
  %202 = mul i64 %201, 8, !llfi_index !251
  %203 = call noalias i8* @malloc(i64 %202) #7, !llfi_index !252
  %204 = bitcast i8* %203 to double*, !llfi_index !253
  store double* %204, double** @umain, align 8, !llfi_index !254
  %205 = load i64* @N, align 8, !llfi_index !255
  %206 = load i64* @rootN, align 8, !llfi_index !256
  %207 = load i64* @pad_length, align 8, !llfi_index !257
  %208 = mul nsw i64 %206, %207, !llfi_index !258
  %209 = add nsw i64 %205, %208, !llfi_index !259
  %210 = mul nsw i64 2, %209, !llfi_index !260
  %211 = mul i64 %210, 8, !llfi_index !261
  %212 = add i64 %211, 4096, !llfi_index !262
  %213 = call noalias i8* @malloc(i64 %212) #7, !llfi_index !263
  %214 = bitcast i8* %213 to double*, !llfi_index !264
  store double* %214, double** @umain2, align 8, !llfi_index !265
  %215 = load i64* @P, align 8, !llfi_index !266
  %216 = mul i64 %215, 8, !llfi_index !267
  %217 = call noalias i8* @malloc(i64 %216) #7, !llfi_index !268
  %218 = bitcast i8* %217 to i64*, !llfi_index !269
  %219 = load %struct.GlobalMemory** @Global, align 8, !llfi_index !270
  %220 = getelementptr inbounds %struct.GlobalMemory* %219, i32 0, i32 1, !llfi_index !271
  store i64* %218, i64** %220, align 8, !llfi_index !272
  %221 = load i64* @P, align 8, !llfi_index !273
  %222 = mul i64 %221, 8, !llfi_index !274
  %223 = call noalias i8* @malloc(i64 %222) #7, !llfi_index !275
  %224 = bitcast i8* %223 to i64*, !llfi_index !276
  %225 = load %struct.GlobalMemory** @Global, align 8, !llfi_index !277
  %226 = getelementptr inbounds %struct.GlobalMemory* %225, i32 0, i32 2, !llfi_index !278
  store i64* %224, i64** %226, align 8, !llfi_index !279
  %227 = load %struct.GlobalMemory** @Global, align 8, !llfi_index !280
  %228 = icmp eq %struct.GlobalMemory* %227, null, !llfi_index !281
  br i1 %228, label %229, label %230, !llfi_index !282

; <label>:229                                     ; preds = %177
  call void @_Z8printerrPc(i8* getelementptr inbounds ([36 x i8]* @.str24, i32 0, i32 0)), !llfi_index !283
  call void @exit(i32 -1) #9, !llfi_index !284
  unreachable, !llfi_index !285

; <label>:230                                     ; preds = %177
  %231 = load double** @x, align 8, !llfi_index !286
  %232 = icmp eq double* %231, null, !llfi_index !287
  br i1 %232, label %233, label %234, !llfi_index !288

; <label>:233                                     ; preds = %230
  call void @_Z8printerrPc(i8* getelementptr inbounds ([31 x i8]* @.str25, i32 0, i32 0)), !llfi_index !289
  call void @exit(i32 -1) #9, !llfi_index !290
  unreachable, !llfi_index !291

; <label>:234                                     ; preds = %230
  %235 = load double** @trans, align 8, !llfi_index !292
  %236 = icmp eq double* %235, null, !llfi_index !293
  br i1 %236, label %237, label %238, !llfi_index !294

; <label>:237                                     ; preds = %234
  call void @_Z8printerrPc(i8* getelementptr inbounds ([35 x i8]* @.str26, i32 0, i32 0)), !llfi_index !295
  call void @exit(i32 -1) #9, !llfi_index !296
  unreachable, !llfi_index !297

; <label>:238                                     ; preds = %234
  %239 = load double** @umain, align 8, !llfi_index !298
  %240 = icmp eq double* %239, null, !llfi_index !299
  br i1 %240, label %241, label %242, !llfi_index !300

; <label>:241                                     ; preds = %238
  call void @_Z8printerrPc(i8* getelementptr inbounds ([35 x i8]* @.str27, i32 0, i32 0)), !llfi_index !301
  call void @exit(i32 -1) #9, !llfi_index !302
  unreachable, !llfi_index !303

; <label>:242                                     ; preds = %238
  %243 = load double** @umain2, align 8, !llfi_index !304
  %244 = icmp eq double* %243, null, !llfi_index !305
  br i1 %244, label %245, label %246, !llfi_index !306

; <label>:245                                     ; preds = %242
  call void @_Z8printerrPc(i8* getelementptr inbounds ([36 x i8]* @.str28, i32 0, i32 0)), !llfi_index !307
  call void @exit(i32 -1) #9, !llfi_index !308
  unreachable, !llfi_index !309

; <label>:246                                     ; preds = %242
  br label %247, !llfi_index !310

; <label>:247                                     ; preds = %246
  br label %248, !llfi_index !311

; <label>:248                                     ; preds = %247
  br label %249, !llfi_index !312

; <label>:249                                     ; preds = %248
  br label %250, !llfi_index !313

; <label>:250                                     ; preds = %249
  %251 = load double** @x, align 8, !llfi_index !314
  %252 = ptrtoint double* %251 to i64, !llfi_index !315
  %253 = add i64 %252, 4096, !llfi_index !316
  %254 = load double** @x, align 8, !llfi_index !317
  %255 = ptrtoint double* %254 to i64, !llfi_index !318
  %256 = urem i64 %255, 4096, !llfi_index !319
  %257 = sub i64 %253, %256, !llfi_index !320
  %258 = inttoptr i64 %257 to double*, !llfi_index !321
  store double* %258, double** @x, align 8, !llfi_index !322
  %259 = load double** @trans, align 8, !llfi_index !323
  %260 = ptrtoint double* %259 to i64, !llfi_index !324
  %261 = add i64 %260, 4096, !llfi_index !325
  %262 = load double** @trans, align 8, !llfi_index !326
  %263 = ptrtoint double* %262 to i64, !llfi_index !327
  %264 = urem i64 %263, 4096, !llfi_index !328
  %265 = sub i64 %261, %264, !llfi_index !329
  %266 = inttoptr i64 %265 to double*, !llfi_index !330
  store double* %266, double** @trans, align 8, !llfi_index !331
  %267 = load double** @umain2, align 8, !llfi_index !332
  %268 = ptrtoint double* %267 to i64, !llfi_index !333
  %269 = add i64 %268, 4096, !llfi_index !334
  %270 = load double** @umain2, align 8, !llfi_index !335
  %271 = ptrtoint double* %270 to i64, !llfi_index !336
  %272 = urem i64 %271, 4096, !llfi_index !337
  %273 = sub i64 %269, %272, !llfi_index !338
  %274 = inttoptr i64 %273 to double*, !llfi_index !339
  store double* %274, double** @umain2, align 8, !llfi_index !340
  %275 = load %struct.GlobalMemory** @Global, align 8, !llfi_index !341
  %276 = getelementptr inbounds %struct.GlobalMemory* %275, i32 0, i32 0, !llfi_index !342
  store i64 0, i64* %276, align 8, !llfi_index !343
  %277 = load double** @x, align 8, !llfi_index !344
  call void @_Z5InitXPd(double* %277), !llfi_index !345
  %278 = load i64* @test_result, align 8, !llfi_index !346
  %279 = icmp ne i64 %278, 0, !llfi_index !347
  br i1 %279, label %280, label %283, !llfi_index !348

; <label>:280                                     ; preds = %250
  %281 = load double** @x, align 8, !llfi_index !349
  %282 = call double @_Z8CheckSumPd(double* %281), !llfi_index !350
  store double %282, double* @ck1, align 8, !llfi_index !351
  br label %283, !llfi_index !352

; <label>:283                                     ; preds = %280, %250
  %284 = load i64* @doprint, align 8, !llfi_index !353
  %285 = icmp ne i64 %284, 0, !llfi_index !354
  br i1 %285, label %286, label %290, !llfi_index !355

; <label>:286                                     ; preds = %283
  %287 = call i32 (i8*, ...)* @printf(i8* getelementptr inbounds ([23 x i8]* @.str29, i32 0, i32 0)), !llfi_index !356
  %288 = load i64* @N, align 8, !llfi_index !357
  %289 = load double** @x, align 8, !llfi_index !358
  call void @_Z10PrintArraylPd(i64 %288, double* %289), !llfi_index !359
  br label %290, !llfi_index !360

; <label>:290                                     ; preds = %286, %283
  %291 = load i64* @N, align 8, !llfi_index !361
  %292 = load double** @umain, align 8, !llfi_index !362
  call void @_Z5InitUlPd(i64 %291, double* %292), !llfi_index !363
  %293 = load i64* @N, align 8, !llfi_index !364
  %294 = load double** @umain2, align 8, !llfi_index !365
  %295 = load i64* @rootN, align 8, !llfi_index !366
  call void @_Z6InitU2lPdl(i64 %293, double* %294, i64 %295), !llfi_index !367
  call void @_Z10SlaveStartv(), !llfi_index !368
  %296 = load i64* @test_result, align 8, !llfi_index !369
  %297 = icmp ne i64 %296, 0, !llfi_index !370
  br i1 %297, label %298, label %300, !llfi_index !371

; <label>:298                                     ; preds = %290
  %299 = call i32 (i8*, ...)* @printf(i8* getelementptr inbounds ([32 x i8]* @.str30, i32 0, i32 0)), !llfi_index !372
  br label %302, !llfi_index !373

; <label>:300                                     ; preds = %290
  %301 = call i32 (i8*, ...)* @printf(i8* getelementptr inbounds ([24 x i8]* @.str31, i32 0, i32 0)), !llfi_index !374
  br label %302, !llfi_index !375

; <label>:302                                     ; preds = %300, %298
  %303 = load i64* @N, align 8, !llfi_index !376
  %304 = load double** @x, align 8, !llfi_index !377
  call void @_Z10PrintArraylPd(i64 %303, double* %304), !llfi_index !378
  %305 = load i64* @test_result, align 8, !llfi_index !379
  %306 = icmp ne i64 %305, 0, !llfi_index !380
  br i1 %306, label %307, label %327, !llfi_index !381

; <label>:307                                     ; preds = %302
  %308 = load double** @x, align 8, !llfi_index !382
  %309 = call double @_Z8CheckSumPd(double* %308), !llfi_index !383
  store double %309, double* @ck3, align 8, !llfi_index !384
  %310 = call i32 (i8*, ...)* @printf(i8* getelementptr inbounds ([26 x i8]* @.str32, i32 0, i32 0)), !llfi_index !385
  %311 = load double* @ck1, align 8, !llfi_index !386
  %312 = load double* @ck3, align 8, !llfi_index !387
  %313 = fsub double %311, %312, !llfi_index !388
  %314 = load double* @ck1, align 8, !llfi_index !389
  %315 = load double* @ck3, align 8, !llfi_index !390
  %316 = call i32 (i8*, ...)* @printf(i8* getelementptr inbounds ([42 x i8]* @.str33, i32 0, i32 0), double %313, double %314, double %315), !llfi_index !391
  %317 = load double* @ck1, align 8, !llfi_index !392
  %318 = load double* @ck3, align 8, !llfi_index !393
  %319 = fsub double %317, %318, !llfi_index !394
  %320 = call double @fabs(double %319) #10, !llfi_index !395
  %321 = fcmp olt double %320, 1.000000e-03, !llfi_index !396
  br i1 %321, label %322, label %324, !llfi_index !397

; <label>:322                                     ; preds = %307
  %323 = call i32 (i8*, ...)* @printf(i8* getelementptr inbounds ([13 x i8]* @.str34, i32 0, i32 0)), !llfi_index !398
  br label %326, !llfi_index !399

; <label>:324                                     ; preds = %307
  %325 = call i32 (i8*, ...)* @printf(i8* getelementptr inbounds ([13 x i8]* @.str35, i32 0, i32 0)), !llfi_index !400
  br label %326, !llfi_index !401

; <label>:326                                     ; preds = %324, %322
  br label %327, !llfi_index !402

; <label>:327                                     ; preds = %326, %302
  %328 = load i32* %1, !llfi_index !403
  ret i32 %328, !llfi_index !404
}

; Function Attrs: nounwind
declare i32 @getopt(i32, i8**, i8*) #1

; Function Attrs: nounwind readonly
declare i32 @atoi(i8*) #2

; Function Attrs: uwtable
define void @_Z8printerrPc(i8* %s) #0 {
  %1 = alloca i8*, align 8, !llfi_index !405
  store i8* %s, i8** %1, align 8, !llfi_index !406
  %2 = load %struct._IO_FILE** @stderr, align 8, !llfi_index !407
  %3 = load i8** %1, align 8, !llfi_index !408
  %4 = call i32 (%struct._IO_FILE*, i8*, ...)* @fprintf(%struct._IO_FILE* %2, i8* getelementptr inbounds ([11 x i8]* @.str40, i32 0, i32 0), i8* %3), !llfi_index !409
  ret void, !llfi_index !410
}

; Function Attrs: noreturn nounwind
declare void @exit(i32) #3

; Function Attrs: nounwind uwtable
define i64 @_Z5log_2l(i64 %number) #4 {
  %1 = alloca i64, align 8, !llfi_index !411
  %2 = alloca i64, align 8, !llfi_index !412
  %cumulative = alloca i64, align 8, !llfi_index !413
  %out = alloca i64, align 8, !llfi_index !414
  %done = alloca i64, align 8, !llfi_index !415
  store i64 %number, i64* %2, align 8, !llfi_index !416
  store i64 1, i64* %cumulative, align 8, !llfi_index !417
  store i64 0, i64* %out, align 8, !llfi_index !418
  store i64 0, i64* %done, align 8, !llfi_index !419
  br label %3, !llfi_index !420

; <label>:3                                       ; preds = %25, %0
  %4 = load i64* %cumulative, align 8, !llfi_index !421
  %5 = load i64* %2, align 8, !llfi_index !422
  %6 = icmp slt i64 %4, %5, !llfi_index !423
  br i1 %6, label %7, label %13, !llfi_index !424

; <label>:7                                       ; preds = %3
  %8 = load i64* %done, align 8, !llfi_index !425
  %9 = icmp ne i64 %8, 0, !llfi_index !426
  br i1 %9, label %13, label %10, !llfi_index !427

; <label>:10                                      ; preds = %7
  %11 = load i64* %out, align 8, !llfi_index !428
  %12 = icmp slt i64 %11, 50, !llfi_index !429
  br label %13, !llfi_index !430

; <label>:13                                      ; preds = %10, %7, %3
  %14 = phi i1 [ false, %7 ], [ false, %3 ], [ %12, %10 ], !llfi_index !431
  br i1 %14, label %15, label %26, !llfi_index !432

; <label>:15                                      ; preds = %13
  %16 = load i64* %cumulative, align 8, !llfi_index !433
  %17 = load i64* %2, align 8, !llfi_index !434
  %18 = icmp eq i64 %16, %17, !llfi_index !435
  br i1 %18, label %19, label %20, !llfi_index !436

; <label>:19                                      ; preds = %15
  store i64 1, i64* %done, align 8, !llfi_index !437
  br label %25, !llfi_index !438

; <label>:20                                      ; preds = %15
  %21 = load i64* %cumulative, align 8, !llfi_index !439
  %22 = mul nsw i64 %21, 2, !llfi_index !440
  store i64 %22, i64* %cumulative, align 8, !llfi_index !441
  %23 = load i64* %out, align 8, !llfi_index !442
  %24 = add nsw i64 %23, 1, !llfi_index !443
  store i64 %24, i64* %out, align 8, !llfi_index !444
  br label %25, !llfi_index !445

; <label>:25                                      ; preds = %20, %19
  br label %3, !llfi_index !446

; <label>:26                                      ; preds = %13
  %27 = load i64* %cumulative, align 8, !llfi_index !447
  %28 = load i64* %2, align 8, !llfi_index !448
  %29 = icmp eq i64 %27, %28, !llfi_index !449
  br i1 %29, label %30, label %32, !llfi_index !450

; <label>:30                                      ; preds = %26
  %31 = load i64* %out, align 8, !llfi_index !451
  store i64 %31, i64* %1, !llfi_index !452
  br label %33, !llfi_index !453

; <label>:32                                      ; preds = %26
  store i64 -1, i64* %1, !llfi_index !454
  br label %33, !llfi_index !455

; <label>:33                                      ; preds = %32, %30
  %34 = load i64* %1, !llfi_index !456
  ret i64 %34, !llfi_index !457
}

declare i32 @printf(i8*, ...) #5

; Function Attrs: nounwind
declare noalias i8* @malloc(i64) #1

; Function Attrs: nounwind uwtable
define void @_Z5InitXPd(double* %x) #4 {
  %1 = alloca double*, align 8, !llfi_index !458
  %i = alloca i64, align 8, !llfi_index !459
  %j = alloca i64, align 8, !llfi_index !460
  %k = alloca i64, align 8, !llfi_index !461
  store double* %x, double** %1, align 8, !llfi_index !462
  store i64 0, i64* %j, align 8, !llfi_index !463
  br label %2, !llfi_index !464

; <label>:2                                       ; preds = %34, %0
  %3 = load i64* %j, align 8, !llfi_index !465
  %4 = load i64* @rootN, align 8, !llfi_index !466
  %5 = icmp slt i64 %3, %4, !llfi_index !467
  br i1 %5, label %6, label %37, !llfi_index !468

; <label>:6                                       ; preds = %2
  %7 = load i64* %j, align 8, !llfi_index !469
  %8 = load i64* @rootN, align 8, !llfi_index !470
  %9 = load i64* @pad_length, align 8, !llfi_index !471
  %10 = add nsw i64 %8, %9, !llfi_index !472
  %11 = mul nsw i64 %7, %10, !llfi_index !473
  store i64 %11, i64* %k, align 8, !llfi_index !474
  store i64 0, i64* %i, align 8, !llfi_index !475
  br label %12, !llfi_index !476

; <label>:12                                      ; preds = %30, %6
  %13 = load i64* %i, align 8, !llfi_index !477
  %14 = load i64* @rootN, align 8, !llfi_index !478
  %15 = icmp slt i64 %13, %14, !llfi_index !479
  br i1 %15, label %16, label %33, !llfi_index !480

; <label>:16                                      ; preds = %12
  %17 = load i64* %k, align 8, !llfi_index !481
  %18 = load i64* %i, align 8, !llfi_index !482
  %19 = add nsw i64 %17, %18, !llfi_index !483
  %20 = mul nsw i64 2, %19, !llfi_index !484
  %21 = load double** %1, align 8, !llfi_index !485
  %22 = getelementptr inbounds double* %21, i64 %20, !llfi_index !486
  store double 5.000000e-01, double* %22, align 8, !llfi_index !487
  %23 = load i64* %k, align 8, !llfi_index !488
  %24 = load i64* %i, align 8, !llfi_index !489
  %25 = add nsw i64 %23, %24, !llfi_index !490
  %26 = mul nsw i64 2, %25, !llfi_index !491
  %27 = add nsw i64 %26, 1, !llfi_index !492
  %28 = load double** %1, align 8, !llfi_index !493
  %29 = getelementptr inbounds double* %28, i64 %27, !llfi_index !494
  store double 7.000000e-01, double* %29, align 8, !llfi_index !495
  br label %30, !llfi_index !496

; <label>:30                                      ; preds = %16
  %31 = load i64* %i, align 8, !llfi_index !497
  %32 = add nsw i64 %31, 1, !llfi_index !498
  store i64 %32, i64* %i, align 8, !llfi_index !499
  br label %12, !llfi_index !500

; <label>:33                                      ; preds = %12
  br label %34, !llfi_index !501

; <label>:34                                      ; preds = %33
  %35 = load i64* %j, align 8, !llfi_index !502
  %36 = add nsw i64 %35, 1, !llfi_index !503
  store i64 %36, i64* %j, align 8, !llfi_index !504
  br label %2, !llfi_index !505

; <label>:37                                      ; preds = %2
  ret void, !llfi_index !506
}

; Function Attrs: nounwind uwtable
define double @_Z8CheckSumPd(double* %x) #4 {
  %1 = alloca double*, align 8, !llfi_index !507
  %i = alloca i64, align 8, !llfi_index !508
  %j = alloca i64, align 8, !llfi_index !509
  %k = alloca i64, align 8, !llfi_index !510
  %cks = alloca double, align 8, !llfi_index !511
  store double* %x, double** %1, align 8, !llfi_index !512
  store double 0.000000e+00, double* %cks, align 8, !llfi_index !513
  store i64 0, i64* %j, align 8, !llfi_index !514
  br label %2, !llfi_index !515

; <label>:2                                       ; preds = %39, %0
  %3 = load i64* %j, align 8, !llfi_index !516
  %4 = load i64* @rootN, align 8, !llfi_index !517
  %5 = icmp slt i64 %3, %4, !llfi_index !518
  br i1 %5, label %6, label %42, !llfi_index !519

; <label>:6                                       ; preds = %2
  %7 = load i64* %j, align 8, !llfi_index !520
  %8 = load i64* @rootN, align 8, !llfi_index !521
  %9 = load i64* @pad_length, align 8, !llfi_index !522
  %10 = add nsw i64 %8, %9, !llfi_index !523
  %11 = mul nsw i64 %7, %10, !llfi_index !524
  store i64 %11, i64* %k, align 8, !llfi_index !525
  store i64 0, i64* %i, align 8, !llfi_index !526
  br label %12, !llfi_index !527

; <label>:12                                      ; preds = %35, %6
  %13 = load i64* %i, align 8, !llfi_index !528
  %14 = load i64* @rootN, align 8, !llfi_index !529
  %15 = icmp slt i64 %13, %14, !llfi_index !530
  br i1 %15, label %16, label %38, !llfi_index !531

; <label>:16                                      ; preds = %12
  %17 = load i64* %k, align 8, !llfi_index !532
  %18 = load i64* %i, align 8, !llfi_index !533
  %19 = add nsw i64 %17, %18, !llfi_index !534
  %20 = mul nsw i64 2, %19, !llfi_index !535
  %21 = load double** %1, align 8, !llfi_index !536
  %22 = getelementptr inbounds double* %21, i64 %20, !llfi_index !537
  %23 = load double* %22, align 8, !llfi_index !538
  %24 = load i64* %k, align 8, !llfi_index !539
  %25 = load i64* %i, align 8, !llfi_index !540
  %26 = add nsw i64 %24, %25, !llfi_index !541
  %27 = mul nsw i64 2, %26, !llfi_index !542
  %28 = add nsw i64 %27, 1, !llfi_index !543
  %29 = load double** %1, align 8, !llfi_index !544
  %30 = getelementptr inbounds double* %29, i64 %28, !llfi_index !545
  %31 = load double* %30, align 8, !llfi_index !546
  %32 = fadd double %23, %31, !llfi_index !547
  %33 = load double* %cks, align 8, !llfi_index !548
  %34 = fadd double %33, %32, !llfi_index !549
  store double %34, double* %cks, align 8, !llfi_index !550
  br label %35, !llfi_index !551

; <label>:35                                      ; preds = %16
  %36 = load i64* %i, align 8, !llfi_index !552
  %37 = add nsw i64 %36, 1, !llfi_index !553
  store i64 %37, i64* %i, align 8, !llfi_index !554
  br label %12, !llfi_index !555

; <label>:38                                      ; preds = %12
  br label %39, !llfi_index !556

; <label>:39                                      ; preds = %38
  %40 = load i64* %j, align 8, !llfi_index !557
  %41 = add nsw i64 %40, 1, !llfi_index !558
  store i64 %41, i64* %j, align 8, !llfi_index !559
  br label %2, !llfi_index !560

; <label>:42                                      ; preds = %2
  %43 = load double* %cks, align 8, !llfi_index !561
  ret double %43, !llfi_index !562
}

; Function Attrs: uwtable
define void @_Z10PrintArraylPd(i64 %N, double* %x) #0 {
  %1 = alloca i64, align 8, !llfi_index !563
  %2 = alloca double*, align 8, !llfi_index !564
  %i = alloca i64, align 8, !llfi_index !565
  %j = alloca i64, align 8, !llfi_index !566
  %k = alloca i64, align 8, !llfi_index !567
  store i64 %N, i64* %1, align 8, !llfi_index !568
  store double* %x, double** %2, align 8, !llfi_index !569
  store i64 0, i64* %i, align 8, !llfi_index !570
  br label %3, !llfi_index !571

; <label>:3                                       ; preds = %60, %0
  %4 = load i64* %i, align 8, !llfi_index !572
  %5 = load i64* @rootN, align 8, !llfi_index !573
  %6 = icmp slt i64 %4, %5, !llfi_index !574
  br i1 %6, label %7, label %63, !llfi_index !575

; <label>:7                                       ; preds = %3
  %8 = load i64* %i, align 8, !llfi_index !576
  %9 = load i64* @rootN, align 8, !llfi_index !577
  %10 = load i64* @pad_length, align 8, !llfi_index !578
  %11 = add nsw i64 %9, %10, !llfi_index !579
  %12 = mul nsw i64 %8, %11, !llfi_index !580
  store i64 %12, i64* %k, align 8, !llfi_index !581
  store i64 0, i64* %j, align 8, !llfi_index !582
  br label %13, !llfi_index !583

; <label>:13                                      ; preds = %56, %7
  %14 = load i64* %j, align 8, !llfi_index !584
  %15 = load i64* @rootN, align 8, !llfi_index !585
  %16 = icmp slt i64 %14, %15, !llfi_index !586
  br i1 %16, label %17, label %59, !llfi_index !587

; <label>:17                                      ; preds = %13
  %18 = load i64* %k, align 8, !llfi_index !588
  %19 = load i64* %j, align 8, !llfi_index !589
  %20 = add nsw i64 %18, %19, !llfi_index !590
  %21 = mul nsw i64 2, %20, !llfi_index !591
  %22 = load double** %2, align 8, !llfi_index !592
  %23 = getelementptr inbounds double* %22, i64 %21, !llfi_index !593
  %24 = load double* %23, align 8, !llfi_index !594
  %25 = load i64* %k, align 8, !llfi_index !595
  %26 = load i64* %j, align 8, !llfi_index !596
  %27 = add nsw i64 %25, %26, !llfi_index !597
  %28 = mul nsw i64 2, %27, !llfi_index !598
  %29 = add nsw i64 %28, 1, !llfi_index !599
  %30 = load double** %2, align 8, !llfi_index !600
  %31 = getelementptr inbounds double* %30, i64 %29, !llfi_index !601
  %32 = load double* %31, align 8, !llfi_index !602
  %33 = call i32 (i8*, ...)* @printf(i8* getelementptr inbounds ([13 x i8]* @.str37, i32 0, i32 0), double %24, double %32), !llfi_index !603
  %34 = load i64* %i, align 8, !llfi_index !604
  %35 = load i64* @rootN, align 8, !llfi_index !605
  %36 = mul nsw i64 %34, %35, !llfi_index !606
  %37 = load i64* %j, align 8, !llfi_index !607
  %38 = add nsw i64 %36, %37, !llfi_index !608
  %39 = load i64* %1, align 8, !llfi_index !609
  %40 = sub nsw i64 %39, 1, !llfi_index !610
  %41 = icmp ne i64 %38, %40, !llfi_index !611
  br i1 %41, label %42, label %44, !llfi_index !612

; <label>:42                                      ; preds = %17
  %43 = call i32 (i8*, ...)* @printf(i8* getelementptr inbounds ([2 x i8]* @.str38, i32 0, i32 0)), !llfi_index !613
  br label %44, !llfi_index !614

; <label>:44                                      ; preds = %42, %17
  %45 = load i64* %i, align 8, !llfi_index !615
  %46 = load i64* @rootN, align 8, !llfi_index !616
  %47 = mul nsw i64 %45, %46, !llfi_index !617
  %48 = load i64* %j, align 8, !llfi_index !618
  %49 = add nsw i64 %47, %48, !llfi_index !619
  %50 = add nsw i64 %49, 1, !llfi_index !620
  %51 = srem i64 %50, 8, !llfi_index !621
  %52 = icmp eq i64 %51, 0, !llfi_index !622
  br i1 %52, label %53, label %55, !llfi_index !623

; <label>:53                                      ; preds = %44
  %54 = call i32 (i8*, ...)* @printf(i8* getelementptr inbounds ([2 x i8]* @.str39, i32 0, i32 0)), !llfi_index !624
  br label %55, !llfi_index !625

; <label>:55                                      ; preds = %53, %44
  br label %56, !llfi_index !626

; <label>:56                                      ; preds = %55
  %57 = load i64* %j, align 8, !llfi_index !627
  %58 = add nsw i64 %57, 1, !llfi_index !628
  store i64 %58, i64* %j, align 8, !llfi_index !629
  br label %13, !llfi_index !630

; <label>:59                                      ; preds = %13
  br label %60, !llfi_index !631

; <label>:60                                      ; preds = %59
  %61 = load i64* %i, align 8, !llfi_index !632
  %62 = add nsw i64 %61, 1, !llfi_index !633
  store i64 %62, i64* %i, align 8, !llfi_index !634
  br label %3, !llfi_index !635

; <label>:63                                      ; preds = %3
  %64 = call i32 (i8*, ...)* @printf(i8* getelementptr inbounds ([2 x i8]* @.str39, i32 0, i32 0)), !llfi_index !636
  %65 = call i32 (i8*, ...)* @printf(i8* getelementptr inbounds ([2 x i8]* @.str39, i32 0, i32 0)), !llfi_index !637
  ret void, !llfi_index !638
}

; Function Attrs: nounwind uwtable
define void @_Z5InitUlPd(i64 %N, double* %u) #4 {
  %1 = alloca i64, align 8, !llfi_index !639
  %2 = alloca double*, align 8, !llfi_index !640
  %q = alloca i64, align 8, !llfi_index !641
  %j = alloca i64, align 8, !llfi_index !642
  %base = alloca i64, align 8, !llfi_index !643
  %n1 = alloca i64, align 8, !llfi_index !644
  store i64 %N, i64* %1, align 8, !llfi_index !645
  store double* %u, double** %2, align 8, !llfi_index !646
  store i64 0, i64* %q, align 8, !llfi_index !647
  br label %3, !llfi_index !648

; <label>:3                                       ; preds = %64, %0
  %4 = load i64* %q, align 8, !llfi_index !649
  %5 = trunc i64 %4 to i32, !llfi_index !650
  %6 = shl i32 1, %5, !llfi_index !651
  %7 = sext i32 %6 to i64, !llfi_index !652
  %8 = load i64* %1, align 8, !llfi_index !653
  %9 = icmp slt i64 %7, %8, !llfi_index !654
  br i1 %9, label %10, label %67, !llfi_index !655

; <label>:10                                      ; preds = %3
  %11 = load i64* %q, align 8, !llfi_index !656
  %12 = trunc i64 %11 to i32, !llfi_index !657
  %13 = shl i32 1, %12, !llfi_index !658
  %14 = sext i32 %13 to i64, !llfi_index !659
  store i64 %14, i64* %n1, align 8, !llfi_index !660
  %15 = load i64* %n1, align 8, !llfi_index !661
  %16 = sub nsw i64 %15, 1, !llfi_index !662
  store i64 %16, i64* %base, align 8, !llfi_index !663
  store i64 0, i64* %j, align 8, !llfi_index !664
  br label %17, !llfi_index !665

; <label>:17                                      ; preds = %60, %10
  %18 = load i64* %j, align 8, !llfi_index !666
  %19 = load i64* %n1, align 8, !llfi_index !667
  %20 = icmp slt i64 %18, %19, !llfi_index !668
  br i1 %20, label %21, label %63, !llfi_index !669

; <label>:21                                      ; preds = %17
  %22 = load i64* %base, align 8, !llfi_index !670
  %23 = load i64* %j, align 8, !llfi_index !671
  %24 = add nsw i64 %22, %23, !llfi_index !672
  %25 = load i64* @rootN, align 8, !llfi_index !673
  %26 = sub nsw i64 %25, 1, !llfi_index !674
  %27 = icmp sgt i64 %24, %26, !llfi_index !675
  br i1 %27, label %28, label %29, !llfi_index !676

; <label>:28                                      ; preds = %21
  br label %67, !llfi_index !677

; <label>:29                                      ; preds = %21
  %30 = load i64* %j, align 8, !llfi_index !678
  %31 = sitofp i64 %30 to double, !llfi_index !679
  %32 = fmul double 6.283200e+00, %31, !llfi_index !680
  %33 = load i64* %n1, align 8, !llfi_index !681
  %34 = mul nsw i64 2, %33, !llfi_index !682
  %35 = sitofp i64 %34 to double, !llfi_index !683
  %36 = fdiv double %32, %35, !llfi_index !684
  %37 = call double @cos(double %36) #7, !llfi_index !685
  %38 = load i64* %base, align 8, !llfi_index !686
  %39 = load i64* %j, align 8, !llfi_index !687
  %40 = add nsw i64 %38, %39, !llfi_index !688
  %41 = mul nsw i64 2, %40, !llfi_index !689
  %42 = load double** %2, align 8, !llfi_index !690
  %43 = getelementptr inbounds double* %42, i64 %41, !llfi_index !691
  store double %37, double* %43, align 8, !llfi_index !692
  %44 = load i64* %j, align 8, !llfi_index !693
  %45 = sitofp i64 %44 to double, !llfi_index !694
  %46 = fmul double 6.283200e+00, %45, !llfi_index !695
  %47 = load i64* %n1, align 8, !llfi_index !696
  %48 = mul nsw i64 2, %47, !llfi_index !697
  %49 = sitofp i64 %48 to double, !llfi_index !698
  %50 = fdiv double %46, %49, !llfi_index !699
  %51 = call double @sin(double %50) #7, !llfi_index !700
  %52 = fsub double -0.000000e+00, %51, !llfi_index !701
  %53 = load i64* %base, align 8, !llfi_index !702
  %54 = load i64* %j, align 8, !llfi_index !703
  %55 = add nsw i64 %53, %54, !llfi_index !704
  %56 = mul nsw i64 2, %55, !llfi_index !705
  %57 = add nsw i64 %56, 1, !llfi_index !706
  %58 = load double** %2, align 8, !llfi_index !707
  %59 = getelementptr inbounds double* %58, i64 %57, !llfi_index !708
  store double %52, double* %59, align 8, !llfi_index !709
  br label %60, !llfi_index !710

; <label>:60                                      ; preds = %29
  %61 = load i64* %j, align 8, !llfi_index !711
  %62 = add nsw i64 %61, 1, !llfi_index !712
  store i64 %62, i64* %j, align 8, !llfi_index !713
  br label %17, !llfi_index !714

; <label>:63                                      ; preds = %17
  br label %64, !llfi_index !715

; <label>:64                                      ; preds = %63
  %65 = load i64* %q, align 8, !llfi_index !716
  %66 = add nsw i64 %65, 1, !llfi_index !717
  store i64 %66, i64* %q, align 8, !llfi_index !718
  br label %3, !llfi_index !719

; <label>:67                                      ; preds = %28, %3
  ret void, !llfi_index !720
}

; Function Attrs: nounwind uwtable
define void @_Z6InitU2lPdl(i64 %N, double* %u, i64 %n1) #4 {
  %1 = alloca i64, align 8, !llfi_index !721
  %2 = alloca double*, align 8, !llfi_index !722
  %3 = alloca i64, align 8, !llfi_index !723
  %i = alloca i64, align 8, !llfi_index !724
  %j = alloca i64, align 8, !llfi_index !725
  %k = alloca i64, align 8, !llfi_index !726
  store i64 %N, i64* %1, align 8, !llfi_index !727
  store double* %u, double** %2, align 8, !llfi_index !728
  store i64 %n1, i64* %3, align 8, !llfi_index !729
  store i64 0, i64* %j, align 8, !llfi_index !730
  br label %4, !llfi_index !731

; <label>:4                                       ; preds = %57, %0
  %5 = load i64* %j, align 8, !llfi_index !732
  %6 = load i64* %3, align 8, !llfi_index !733
  %7 = icmp slt i64 %5, %6, !llfi_index !734
  br i1 %7, label %8, label %60, !llfi_index !735

; <label>:8                                       ; preds = %4
  %9 = load i64* %j, align 8, !llfi_index !736
  %10 = load i64* @rootN, align 8, !llfi_index !737
  %11 = load i64* @pad_length, align 8, !llfi_index !738
  %12 = add nsw i64 %10, %11, !llfi_index !739
  %13 = mul nsw i64 %9, %12, !llfi_index !740
  store i64 %13, i64* %k, align 8, !llfi_index !741
  store i64 0, i64* %i, align 8, !llfi_index !742
  br label %14, !llfi_index !743

; <label>:14                                      ; preds = %53, %8
  %15 = load i64* %i, align 8, !llfi_index !744
  %16 = load i64* %3, align 8, !llfi_index !745
  %17 = icmp slt i64 %15, %16, !llfi_index !746
  br i1 %17, label %18, label %56, !llfi_index !747

; <label>:18                                      ; preds = %14
  %19 = load i64* %i, align 8, !llfi_index !748
  %20 = sitofp i64 %19 to double, !llfi_index !749
  %21 = fmul double 6.283200e+00, %20, !llfi_index !750
  %22 = load i64* %j, align 8, !llfi_index !751
  %23 = sitofp i64 %22 to double, !llfi_index !752
  %24 = fmul double %21, %23, !llfi_index !753
  %25 = load i64* %1, align 8, !llfi_index !754
  %26 = sitofp i64 %25 to double, !llfi_index !755
  %27 = fdiv double %24, %26, !llfi_index !756
  %28 = call double @cos(double %27) #7, !llfi_index !757
  %29 = load i64* %k, align 8, !llfi_index !758
  %30 = load i64* %i, align 8, !llfi_index !759
  %31 = add nsw i64 %29, %30, !llfi_index !760
  %32 = mul nsw i64 2, %31, !llfi_index !761
  %33 = load double** %2, align 8, !llfi_index !762
  %34 = getelementptr inbounds double* %33, i64 %32, !llfi_index !763
  store double %28, double* %34, align 8, !llfi_index !764
  %35 = load i64* %i, align 8, !llfi_index !765
  %36 = sitofp i64 %35 to double, !llfi_index !766
  %37 = fmul double 6.283200e+00, %36, !llfi_index !767
  %38 = load i64* %j, align 8, !llfi_index !768
  %39 = sitofp i64 %38 to double, !llfi_index !769
  %40 = fmul double %37, %39, !llfi_index !770
  %41 = load i64* %1, align 8, !llfi_index !771
  %42 = sitofp i64 %41 to double, !llfi_index !772
  %43 = fdiv double %40, %42, !llfi_index !773
  %44 = call double @sin(double %43) #7, !llfi_index !774
  %45 = fsub double -0.000000e+00, %44, !llfi_index !775
  %46 = load i64* %k, align 8, !llfi_index !776
  %47 = load i64* %i, align 8, !llfi_index !777
  %48 = add nsw i64 %46, %47, !llfi_index !778
  %49 = mul nsw i64 2, %48, !llfi_index !779
  %50 = add nsw i64 %49, 1, !llfi_index !780
  %51 = load double** %2, align 8, !llfi_index !781
  %52 = getelementptr inbounds double* %51, i64 %50, !llfi_index !782
  store double %45, double* %52, align 8, !llfi_index !783
  br label %53, !llfi_index !784

; <label>:53                                      ; preds = %18
  %54 = load i64* %i, align 8, !llfi_index !785
  %55 = add nsw i64 %54, 1, !llfi_index !786
  store i64 %55, i64* %i, align 8, !llfi_index !787
  br label %14, !llfi_index !788

; <label>:56                                      ; preds = %14
  br label %57, !llfi_index !789

; <label>:57                                      ; preds = %56
  %58 = load i64* %j, align 8, !llfi_index !790
  %59 = add nsw i64 %58, 1, !llfi_index !791
  store i64 %59, i64* %j, align 8, !llfi_index !792
  br label %4, !llfi_index !793

; <label>:60                                      ; preds = %4
  ret void, !llfi_index !794
}

; Function Attrs: uwtable
define void @_Z10SlaveStartv() #0 {
  %i = alloca i64, align 8, !llfi_index !795
  %MyNum = alloca i64, align 8, !llfi_index !796
  %upriv = alloca double*, align 8, !llfi_index !797
  %initdone = alloca i64, align 8, !llfi_index !798
  %finish = alloca i64, align 8, !llfi_index !799
  %l_transtime = alloca i64, align 8, !llfi_index !800
  %MyFirst = alloca i64, align 8, !llfi_index !801
  %MyLast = alloca i64, align 8, !llfi_index !802
  store i64 0, i64* %l_transtime, align 8, !llfi_index !803
  %1 = load %struct.GlobalMemory** @Global, align 8, !llfi_index !804
  %2 = getelementptr inbounds %struct.GlobalMemory* %1, i32 0, i32 0, !llfi_index !805
  %3 = load i64* %2, align 8, !llfi_index !806
  store i64 %3, i64* %MyNum, align 8, !llfi_index !807
  %4 = load %struct.GlobalMemory** @Global, align 8, !llfi_index !808
  %5 = getelementptr inbounds %struct.GlobalMemory* %4, i32 0, i32 0, !llfi_index !809
  %6 = load i64* %5, align 8, !llfi_index !810
  %7 = add nsw i64 %6, 1, !llfi_index !811
  store i64 %7, i64* %5, align 8, !llfi_index !812
  %8 = load i64* @rootN, align 8, !llfi_index !813
  %9 = sub nsw i64 %8, 1, !llfi_index !814
  %10 = mul nsw i64 2, %9, !llfi_index !815
  %11 = mul i64 %10, 8, !llfi_index !816
  %12 = call noalias i8* @malloc(i64 %11) #7, !llfi_index !817
  %13 = bitcast i8* %12 to double*, !llfi_index !818
  store double* %13, double** %upriv, align 8, !llfi_index !819
  %14 = load double** %upriv, align 8, !llfi_index !820
  %15 = icmp eq double* %14, null, !llfi_index !821
  br i1 %15, label %16, label %20, !llfi_index !822

; <label>:16                                      ; preds = %0
  %17 = load %struct._IO_FILE** @stderr, align 8, !llfi_index !823
  %18 = load i64* %MyNum, align 8, !llfi_index !824
  %19 = call i32 (%struct._IO_FILE*, i8*, ...)* @fprintf(%struct._IO_FILE* %17, i8* getelementptr inbounds ([44 x i8]* @.str36, i32 0, i32 0), i64 %18), !llfi_index !825
  call void @exit(i32 -1) #9, !llfi_index !826
  unreachable, !llfi_index !827

; <label>:20                                      ; preds = %0
  store i64 0, i64* %i, align 8, !llfi_index !828
  br label %21, !llfi_index !829

; <label>:21                                      ; preds = %35, %20
  %22 = load i64* %i, align 8, !llfi_index !830
  %23 = load i64* @rootN, align 8, !llfi_index !831
  %24 = sub nsw i64 %23, 1, !llfi_index !832
  %25 = mul nsw i64 2, %24, !llfi_index !833
  %26 = icmp slt i64 %22, %25, !llfi_index !834
  br i1 %26, label %27, label %38, !llfi_index !835

; <label>:27                                      ; preds = %21
  %28 = load i64* %i, align 8, !llfi_index !836
  %29 = load double** @umain, align 8, !llfi_index !837
  %30 = getelementptr inbounds double* %29, i64 %28, !llfi_index !838
  %31 = load double* %30, align 8, !llfi_index !839
  %32 = load i64* %i, align 8, !llfi_index !840
  %33 = load double** %upriv, align 8, !llfi_index !841
  %34 = getelementptr inbounds double* %33, i64 %32, !llfi_index !842
  store double %31, double* %34, align 8, !llfi_index !843
  br label %35, !llfi_index !844

; <label>:35                                      ; preds = %27
  %36 = load i64* %i, align 8, !llfi_index !845
  %37 = add nsw i64 %36, 1, !llfi_index !846
  store i64 %37, i64* %i, align 8, !llfi_index !847
  br label %21, !llfi_index !848

; <label>:38                                      ; preds = %21
  %39 = load i64* @rootN, align 8, !llfi_index !849
  %40 = load i64* %MyNum, align 8, !llfi_index !850
  %41 = mul nsw i64 %39, %40, !llfi_index !851
  %42 = load i64* @P, align 8, !llfi_index !852
  %43 = sdiv i64 %41, %42, !llfi_index !853
  store i64 %43, i64* %MyFirst, align 8, !llfi_index !854
  %44 = load i64* @rootN, align 8, !llfi_index !855
  %45 = load i64* %MyNum, align 8, !llfi_index !856
  %46 = add nsw i64 %45, 1, !llfi_index !857
  %47 = mul nsw i64 %44, %46, !llfi_index !858
  %48 = load i64* @P, align 8, !llfi_index !859
  %49 = sdiv i64 %47, %48, !llfi_index !860
  store i64 %49, i64* %MyLast, align 8, !llfi_index !861
  %50 = load double** @x, align 8, !llfi_index !862
  %51 = load double** @trans, align 8, !llfi_index !863
  %52 = load double** @umain2, align 8, !llfi_index !864
  %53 = load double** %upriv, align 8, !llfi_index !865
  %54 = load i64* %MyFirst, align 8, !llfi_index !866
  %55 = load i64* %MyLast, align 8, !llfi_index !867
  %56 = call double @_Z10TouchArrayPdS_S_S_ll(double* %50, double* %51, double* %52, double* %53, i64 %54, i64 %55), !llfi_index !868
  %57 = load i64* @M, align 8, !llfi_index !869
  %58 = load i64* @N, align 8, !llfi_index !870
  %59 = load double** @x, align 8, !llfi_index !871
  %60 = load double** @trans, align 8, !llfi_index !872
  %61 = load double** %upriv, align 8, !llfi_index !873
  %62 = load double** @umain2, align 8, !llfi_index !874
  %63 = load i64* %MyNum, align 8, !llfi_index !875
  %64 = load i64* %MyFirst, align 8, !llfi_index !876
  %65 = load i64* %MyLast, align 8, !llfi_index !877
  %66 = load i64* @pad_length, align 8, !llfi_index !878
  %67 = load i64* @test_result, align 8, !llfi_index !879
  %68 = load i64* @dostats, align 8, !llfi_index !880
  call void @_Z5FFT1DlllPdS_S_S_lPllllll(i64 1, i64 %57, i64 %58, double* %59, double* %60, double* %61, double* %62, i64 %63, i64* %l_transtime, i64 %64, i64 %65, i64 %66, i64 %67, i64 %68), !llfi_index !881
  %69 = load i64* @test_result, align 8, !llfi_index !882
  %70 = icmp ne i64 %69, 0, !llfi_index !883
  br i1 %70, label %71, label %84, !llfi_index !884

; <label>:71                                      ; preds = %38
  %72 = load i64* @M, align 8, !llfi_index !885
  %73 = load i64* @N, align 8, !llfi_index !886
  %74 = load double** @x, align 8, !llfi_index !887
  %75 = load double** @trans, align 8, !llfi_index !888
  %76 = load double** %upriv, align 8, !llfi_index !889
  %77 = load double** @umain2, align 8, !llfi_index !890
  %78 = load i64* %MyNum, align 8, !llfi_index !891
  %79 = load i64* %MyFirst, align 8, !llfi_index !892
  %80 = load i64* %MyLast, align 8, !llfi_index !893
  %81 = load i64* @pad_length, align 8, !llfi_index !894
  %82 = load i64* @test_result, align 8, !llfi_index !895
  %83 = load i64* @dostats, align 8, !llfi_index !896
  call void @_Z5FFT1DlllPdS_S_S_lPllllll(i64 -1, i64 %72, i64 %73, double* %74, double* %75, double* %76, double* %77, i64 %78, i64* %l_transtime, i64 %79, i64 %80, i64 %81, i64 %82, i64 %83), !llfi_index !897
  br label %84, !llfi_index !898

; <label>:84                                      ; preds = %71, %38
  ret void, !llfi_index !899
}

; Function Attrs: nounwind readnone
declare double @fabs(double) #6

declare i32 @fprintf(%struct._IO_FILE*, i8*, ...) #5

; Function Attrs: nounwind uwtable
define double @_Z10TouchArrayPdS_S_S_ll(double* %x, double* %scratch, double* %u, double* %upriv, i64 %MyFirst, i64 %MyLast) #4 {
  %1 = alloca double*, align 8, !llfi_index !900
  %2 = alloca double*, align 8, !llfi_index !901
  %3 = alloca double*, align 8, !llfi_index !902
  %4 = alloca double*, align 8, !llfi_index !903
  %5 = alloca i64, align 8, !llfi_index !904
  %6 = alloca i64, align 8, !llfi_index !905
  %i = alloca i64, align 8, !llfi_index !906
  %j = alloca i64, align 8, !llfi_index !907
  %k = alloca i64, align 8, !llfi_index !908
  %tot = alloca double, align 8, !llfi_index !909
  store double* %x, double** %1, align 8, !llfi_index !910
  store double* %scratch, double** %2, align 8, !llfi_index !911
  store double* %u, double** %3, align 8, !llfi_index !912
  store double* %upriv, double** %4, align 8, !llfi_index !913
  store i64 %MyFirst, i64* %5, align 8, !llfi_index !914
  store i64 %MyLast, i64* %6, align 8, !llfi_index !915
  store double 0.000000e+00, double* %tot, align 8, !llfi_index !916
  store i64 0, i64* %j, align 8, !llfi_index !917
  br label %7, !llfi_index !918

; <label>:7                                       ; preds = %20, %0
  %8 = load i64* %j, align 8, !llfi_index !919
  %9 = load i64* @rootN, align 8, !llfi_index !920
  %10 = sub nsw i64 %9, 1, !llfi_index !921
  %11 = mul nsw i64 2, %10, !llfi_index !922
  %12 = icmp slt i64 %8, %11, !llfi_index !923
  br i1 %12, label %13, label %23, !llfi_index !924

; <label>:13                                      ; preds = %7
  %14 = load i64* %j, align 8, !llfi_index !925
  %15 = load double** %4, align 8, !llfi_index !926
  %16 = getelementptr inbounds double* %15, i64 %14, !llfi_index !927
  %17 = load double* %16, align 8, !llfi_index !928
  %18 = load double* %tot, align 8, !llfi_index !929
  %19 = fadd double %18, %17, !llfi_index !930
  store double %19, double* %tot, align 8, !llfi_index !931
  br label %20, !llfi_index !932

; <label>:20                                      ; preds = %13
  %21 = load i64* %j, align 8, !llfi_index !933
  %22 = add nsw i64 %21, 1, !llfi_index !934
  store i64 %22, i64* %j, align 8, !llfi_index !935
  br label %7, !llfi_index !936

; <label>:23                                      ; preds = %7
  %24 = load i64* %5, align 8, !llfi_index !937
  store i64 %24, i64* %j, align 8, !llfi_index !938
  br label %25, !llfi_index !939

; <label>:25                                      ; preds = %96, %23
  %26 = load i64* %j, align 8, !llfi_index !940
  %27 = load i64* %6, align 8, !llfi_index !941
  %28 = icmp slt i64 %26, %27, !llfi_index !942
  br i1 %28, label %29, label %99, !llfi_index !943

; <label>:29                                      ; preds = %25
  %30 = load i64* %j, align 8, !llfi_index !944
  %31 = load i64* @rootN, align 8, !llfi_index !945
  %32 = load i64* @pad_length, align 8, !llfi_index !946
  %33 = add nsw i64 %31, %32, !llfi_index !947
  %34 = mul nsw i64 %30, %33, !llfi_index !948
  store i64 %34, i64* %k, align 8, !llfi_index !949
  store i64 0, i64* %i, align 8, !llfi_index !950
  br label %35, !llfi_index !951

; <label>:35                                      ; preds = %92, %29
  %36 = load i64* %i, align 8, !llfi_index !952
  %37 = load i64* @rootN, align 8, !llfi_index !953
  %38 = icmp slt i64 %36, %37, !llfi_index !954
  br i1 %38, label %39, label %95, !llfi_index !955

; <label>:39                                      ; preds = %35
  %40 = load i64* %k, align 8, !llfi_index !956
  %41 = load i64* %i, align 8, !llfi_index !957
  %42 = add nsw i64 %40, %41, !llfi_index !958
  %43 = mul nsw i64 2, %42, !llfi_index !959
  %44 = load double** %1, align 8, !llfi_index !960
  %45 = getelementptr inbounds double* %44, i64 %43, !llfi_index !961
  %46 = load double* %45, align 8, !llfi_index !962
  %47 = load i64* %k, align 8, !llfi_index !963
  %48 = load i64* %i, align 8, !llfi_index !964
  %49 = add nsw i64 %47, %48, !llfi_index !965
  %50 = mul nsw i64 2, %49, !llfi_index !966
  %51 = add nsw i64 %50, 1, !llfi_index !967
  %52 = load double** %1, align 8, !llfi_index !968
  %53 = getelementptr inbounds double* %52, i64 %51, !llfi_index !969
  %54 = load double* %53, align 8, !llfi_index !970
  %55 = fadd double %46, %54, !llfi_index !971
  %56 = load i64* %k, align 8, !llfi_index !972
  %57 = load i64* %i, align 8, !llfi_index !973
  %58 = add nsw i64 %56, %57, !llfi_index !974
  %59 = mul nsw i64 2, %58, !llfi_index !975
  %60 = load double** %2, align 8, !llfi_index !976
  %61 = getelementptr inbounds double* %60, i64 %59, !llfi_index !977
  %62 = load double* %61, align 8, !llfi_index !978
  %63 = fadd double %55, %62, !llfi_index !979
  %64 = load i64* %k, align 8, !llfi_index !980
  %65 = load i64* %i, align 8, !llfi_index !981
  %66 = add nsw i64 %64, %65, !llfi_index !982
  %67 = mul nsw i64 2, %66, !llfi_index !983
  %68 = add nsw i64 %67, 1, !llfi_index !984
  %69 = load double** %2, align 8, !llfi_index !985
  %70 = getelementptr inbounds double* %69, i64 %68, !llfi_index !986
  %71 = load double* %70, align 8, !llfi_index !987
  %72 = fadd double %63, %71, !llfi_index !988
  %73 = load i64* %k, align 8, !llfi_index !989
  %74 = load i64* %i, align 8, !llfi_index !990
  %75 = add nsw i64 %73, %74, !llfi_index !991
  %76 = mul nsw i64 2, %75, !llfi_index !992
  %77 = load double** %3, align 8, !llfi_index !993
  %78 = getelementptr inbounds double* %77, i64 %76, !llfi_index !994
  %79 = load double* %78, align 8, !llfi_index !995
  %80 = fadd double %72, %79, !llfi_index !996
  %81 = load i64* %k, align 8, !llfi_index !997
  %82 = load i64* %i, align 8, !llfi_index !998
  %83 = add nsw i64 %81, %82, !llfi_index !999
  %84 = mul nsw i64 2, %83, !llfi_index !1000
  %85 = add nsw i64 %84, 1, !llfi_index !1001
  %86 = load double** %3, align 8, !llfi_index !1002
  %87 = getelementptr inbounds double* %86, i64 %85, !llfi_index !1003
  %88 = load double* %87, align 8, !llfi_index !1004
  %89 = fadd double %80, %88, !llfi_index !1005
  %90 = load double* %tot, align 8, !llfi_index !1006
  %91 = fadd double %90, %89, !llfi_index !1007
  store double %91, double* %tot, align 8, !llfi_index !1008
  br label %92, !llfi_index !1009

; <label>:92                                      ; preds = %39
  %93 = load i64* %i, align 8, !llfi_index !1010
  %94 = add nsw i64 %93, 1, !llfi_index !1011
  store i64 %94, i64* %i, align 8, !llfi_index !1012
  br label %35, !llfi_index !1013

; <label>:95                                      ; preds = %35
  br label %96, !llfi_index !1014

; <label>:96                                      ; preds = %95
  %97 = load i64* %j, align 8, !llfi_index !1015
  %98 = add nsw i64 %97, 1, !llfi_index !1016
  store i64 %98, i64* %j, align 8, !llfi_index !1017
  br label %25, !llfi_index !1018

; <label>:99                                      ; preds = %25
  %100 = load double* %tot, align 8, !llfi_index !1019
  ret double %100, !llfi_index !1020
}

; Function Attrs: uwtable
define void @_Z5FFT1DlllPdS_S_S_lPllllll(i64 %direction, i64 %M, i64 %N, double* %x, double* %scratch, double* %upriv, double* %umain2, i64 %MyNum, i64* %l_transtime, i64 %MyFirst, i64 %MyLast, i64 %pad_length, i64 %test_result, i64 %dostats) #0 {
  %1 = alloca i64, align 8, !llfi_index !1021
  %2 = alloca i64, align 8, !llfi_index !1022
  %3 = alloca i64, align 8, !llfi_index !1023
  %4 = alloca double*, align 8, !llfi_index !1024
  %5 = alloca double*, align 8, !llfi_index !1025
  %6 = alloca double*, align 8, !llfi_index !1026
  %7 = alloca double*, align 8, !llfi_index !1027
  %8 = alloca i64, align 8, !llfi_index !1028
  %9 = alloca i64*, align 8, !llfi_index !1029
  %10 = alloca i64, align 8, !llfi_index !1030
  %11 = alloca i64, align 8, !llfi_index !1031
  %12 = alloca i64, align 8, !llfi_index !1032
  %13 = alloca i64, align 8, !llfi_index !1033
  %14 = alloca i64, align 8, !llfi_index !1034
  %j = alloca i64, align 8, !llfi_index !1035
  %m1 = alloca i64, align 8, !llfi_index !1036
  %n1 = alloca i64, align 8, !llfi_index !1037
  %clocktime1 = alloca i64, align 8, !llfi_index !1038
  %clocktime2 = alloca i64, align 8, !llfi_index !1039
  store i64 %direction, i64* %1, align 8, !llfi_index !1040
  store i64 %M, i64* %2, align 8, !llfi_index !1041
  store i64 %N, i64* %3, align 8, !llfi_index !1042
  store double* %x, double** %4, align 8, !llfi_index !1043
  store double* %scratch, double** %5, align 8, !llfi_index !1044
  store double* %upriv, double** %6, align 8, !llfi_index !1045
  store double* %umain2, double** %7, align 8, !llfi_index !1046
  store i64 %MyNum, i64* %8, align 8, !llfi_index !1047
  store i64* %l_transtime, i64** %9, align 8, !llfi_index !1048
  store i64 %MyFirst, i64* %10, align 8, !llfi_index !1049
  store i64 %MyLast, i64* %11, align 8, !llfi_index !1050
  store i64 %pad_length, i64* %12, align 8, !llfi_index !1051
  store i64 %test_result, i64* %13, align 8, !llfi_index !1052
  store i64 %dostats, i64* %14, align 8, !llfi_index !1053
  %15 = load i64* %2, align 8, !llfi_index !1054
  %16 = sdiv i64 %15, 2, !llfi_index !1055
  store i64 %16, i64* %m1, align 8, !llfi_index !1056
  %17 = load i64* %m1, align 8, !llfi_index !1057
  %18 = trunc i64 %17 to i32, !llfi_index !1058
  %19 = shl i32 1, %18, !llfi_index !1059
  %20 = sext i32 %19 to i64, !llfi_index !1060
  store i64 %20, i64* %n1, align 8, !llfi_index !1061
  %21 = load i64* %8, align 8, !llfi_index !1062
  %22 = icmp eq i64 %21, 0, !llfi_index !1063
  br i1 %22, label %26, label %23, !llfi_index !1064

; <label>:23                                      ; preds = %0
  %24 = load i64* %14, align 8, !llfi_index !1065
  %25 = icmp ne i64 %24, 0, !llfi_index !1066
  br i1 %25, label %26, label %27, !llfi_index !1067

; <label>:26                                      ; preds = %23, %0
  br label %27, !llfi_index !1068

; <label>:27                                      ; preds = %26, %23
  %28 = load i64* %n1, align 8, !llfi_index !1069
  %29 = load double** %4, align 8, !llfi_index !1070
  %30 = load double** %5, align 8, !llfi_index !1071
  %31 = load i64* %8, align 8, !llfi_index !1072
  %32 = load i64* %10, align 8, !llfi_index !1073
  %33 = load i64* %11, align 8, !llfi_index !1074
  %34 = load i64* %12, align 8, !llfi_index !1075
  call void @_Z9TransposelPdS_llll(i64 %28, double* %29, double* %30, i64 %31, i64 %32, i64 %33, i64 %34), !llfi_index !1076
  %35 = load i64* %8, align 8, !llfi_index !1077
  %36 = icmp eq i64 %35, 0, !llfi_index !1078
  br i1 %36, label %40, label %37, !llfi_index !1079

; <label>:37                                      ; preds = %27
  %38 = load i64* %14, align 8, !llfi_index !1080
  %39 = icmp ne i64 %38, 0, !llfi_index !1081
  br i1 %39, label %40, label %47, !llfi_index !1082

; <label>:40                                      ; preds = %37, %27
  %41 = load i64* %clocktime2, align 8, !llfi_index !1083
  %42 = load i64* %clocktime1, align 8, !llfi_index !1084
  %43 = sub i64 %41, %42, !llfi_index !1085
  %44 = load i64** %9, align 8, !llfi_index !1086
  %45 = load i64* %44, align 8, !llfi_index !1087
  %46 = add i64 %45, %43, !llfi_index !1088
  store i64 %46, i64* %44, align 8, !llfi_index !1089
  br label %47, !llfi_index !1090

; <label>:47                                      ; preds = %40, %37
  %48 = load i64* %10, align 8, !llfi_index !1091
  store i64 %48, i64* %j, align 8, !llfi_index !1092
  br label %49, !llfi_index !1093

; <label>:49                                      ; preds = %79, %47
  %50 = load i64* %j, align 8, !llfi_index !1094
  %51 = load i64* %11, align 8, !llfi_index !1095
  %52 = icmp slt i64 %50, %51, !llfi_index !1096
  br i1 %52, label %53, label %82, !llfi_index !1097

; <label>:53                                      ; preds = %49
  %54 = load i64* %1, align 8, !llfi_index !1098
  %55 = load i64* %m1, align 8, !llfi_index !1099
  %56 = load i64* %n1, align 8, !llfi_index !1100
  %57 = load double** %6, align 8, !llfi_index !1101
  %58 = load i64* %j, align 8, !llfi_index !1102
  %59 = mul nsw i64 2, %58, !llfi_index !1103
  %60 = load i64* %n1, align 8, !llfi_index !1104
  %61 = load i64* %12, align 8, !llfi_index !1105
  %62 = add nsw i64 %60, %61, !llfi_index !1106
  %63 = mul nsw i64 %59, %62, !llfi_index !1107
  %64 = load double** %5, align 8, !llfi_index !1108
  %65 = getelementptr inbounds double* %64, i64 %63, !llfi_index !1109
  call void @_Z9FFT1DOncelllPdS_(i64 %54, i64 %55, i64 %56, double* %57, double* %65), !llfi_index !1110
  %66 = load i64* %1, align 8, !llfi_index !1111
  %67 = load i64* %n1, align 8, !llfi_index !1112
  %68 = load i64* %j, align 8, !llfi_index !1113
  %69 = load double** %7, align 8, !llfi_index !1114
  %70 = load i64* %j, align 8, !llfi_index !1115
  %71 = mul nsw i64 2, %70, !llfi_index !1116
  %72 = load i64* %n1, align 8, !llfi_index !1117
  %73 = load i64* %12, align 8, !llfi_index !1118
  %74 = add nsw i64 %72, %73, !llfi_index !1119
  %75 = mul nsw i64 %71, %74, !llfi_index !1120
  %76 = load double** %5, align 8, !llfi_index !1121
  %77 = getelementptr inbounds double* %76, i64 %75, !llfi_index !1122
  %78 = load i64* %12, align 8, !llfi_index !1123
  call void @_Z13TwiddleOneCollllPdS_l(i64 %66, i64 %67, i64 %68, double* %69, double* %77, i64 %78), !llfi_index !1124
  br label %79, !llfi_index !1125

; <label>:79                                      ; preds = %53
  %80 = load i64* %j, align 8, !llfi_index !1126
  %81 = add nsw i64 %80, 1, !llfi_index !1127
  store i64 %81, i64* %j, align 8, !llfi_index !1128
  br label %49, !llfi_index !1129

; <label>:82                                      ; preds = %49
  %83 = load i64* %8, align 8, !llfi_index !1130
  %84 = icmp eq i64 %83, 0, !llfi_index !1131
  br i1 %84, label %88, label %85, !llfi_index !1132

; <label>:85                                      ; preds = %82
  %86 = load i64* %14, align 8, !llfi_index !1133
  %87 = icmp ne i64 %86, 0, !llfi_index !1134
  br i1 %87, label %88, label %89, !llfi_index !1135

; <label>:88                                      ; preds = %85, %82
  br label %89, !llfi_index !1136

; <label>:89                                      ; preds = %88, %85
  %90 = load i64* %n1, align 8, !llfi_index !1137
  %91 = load double** %5, align 8, !llfi_index !1138
  %92 = load double** %4, align 8, !llfi_index !1139
  %93 = load i64* %8, align 8, !llfi_index !1140
  %94 = load i64* %10, align 8, !llfi_index !1141
  %95 = load i64* %11, align 8, !llfi_index !1142
  %96 = load i64* %12, align 8, !llfi_index !1143
  call void @_Z9TransposelPdS_llll(i64 %90, double* %91, double* %92, i64 %93, i64 %94, i64 %95, i64 %96), !llfi_index !1144
  %97 = load i64* %8, align 8, !llfi_index !1145
  %98 = icmp eq i64 %97, 0, !llfi_index !1146
  br i1 %98, label %102, label %99, !llfi_index !1147

; <label>:99                                      ; preds = %89
  %100 = load i64* %14, align 8, !llfi_index !1148
  %101 = icmp ne i64 %100, 0, !llfi_index !1149
  br i1 %101, label %102, label %109, !llfi_index !1150

; <label>:102                                     ; preds = %99, %89
  %103 = load i64* %clocktime2, align 8, !llfi_index !1151
  %104 = load i64* %clocktime1, align 8, !llfi_index !1152
  %105 = sub i64 %103, %104, !llfi_index !1153
  %106 = load i64** %9, align 8, !llfi_index !1154
  %107 = load i64* %106, align 8, !llfi_index !1155
  %108 = add i64 %107, %105, !llfi_index !1156
  store i64 %108, i64* %106, align 8, !llfi_index !1157
  br label %109, !llfi_index !1158

; <label>:109                                     ; preds = %102, %99
  %110 = load i64* %10, align 8, !llfi_index !1159
  store i64 %110, i64* %j, align 8, !llfi_index !1160
  br label %111, !llfi_index !1161

; <label>:111                                     ; preds = %142, %109
  %112 = load i64* %j, align 8, !llfi_index !1162
  %113 = load i64* %11, align 8, !llfi_index !1163
  %114 = icmp slt i64 %112, %113, !llfi_index !1164
  br i1 %114, label %115, label %145, !llfi_index !1165

; <label>:115                                     ; preds = %111
  %116 = load i64* %1, align 8, !llfi_index !1166
  %117 = load i64* %m1, align 8, !llfi_index !1167
  %118 = load i64* %n1, align 8, !llfi_index !1168
  %119 = load double** %6, align 8, !llfi_index !1169
  %120 = load i64* %j, align 8, !llfi_index !1170
  %121 = mul nsw i64 2, %120, !llfi_index !1171
  %122 = load i64* %n1, align 8, !llfi_index !1172
  %123 = load i64* %12, align 8, !llfi_index !1173
  %124 = add nsw i64 %122, %123, !llfi_index !1174
  %125 = mul nsw i64 %121, %124, !llfi_index !1175
  %126 = load double** %4, align 8, !llfi_index !1176
  %127 = getelementptr inbounds double* %126, i64 %125, !llfi_index !1177
  call void @_Z9FFT1DOncelllPdS_(i64 %116, i64 %117, i64 %118, double* %119, double* %127), !llfi_index !1178
  %128 = load i64* %1, align 8, !llfi_index !1179
  %129 = icmp eq i64 %128, -1, !llfi_index !1180
  br i1 %129, label %130, label %141, !llfi_index !1181

; <label>:130                                     ; preds = %115
  %131 = load i64* %n1, align 8, !llfi_index !1182
  %132 = load i64* %3, align 8, !llfi_index !1183
  %133 = load i64* %j, align 8, !llfi_index !1184
  %134 = mul nsw i64 2, %133, !llfi_index !1185
  %135 = load i64* %n1, align 8, !llfi_index !1186
  %136 = load i64* %12, align 8, !llfi_index !1187
  %137 = add nsw i64 %135, %136, !llfi_index !1188
  %138 = mul nsw i64 %134, %137, !llfi_index !1189
  %139 = load double** %4, align 8, !llfi_index !1190
  %140 = getelementptr inbounds double* %139, i64 %138, !llfi_index !1191
  call void @_Z5ScalellPd(i64 %131, i64 %132, double* %140), !llfi_index !1192
  br label %141, !llfi_index !1193

; <label>:141                                     ; preds = %130, %115
  br label %142, !llfi_index !1194

; <label>:142                                     ; preds = %141
  %143 = load i64* %j, align 8, !llfi_index !1195
  %144 = add nsw i64 %143, 1, !llfi_index !1196
  store i64 %144, i64* %j, align 8, !llfi_index !1197
  br label %111, !llfi_index !1198

; <label>:145                                     ; preds = %111
  %146 = load i64* %8, align 8, !llfi_index !1199
  %147 = icmp eq i64 %146, 0, !llfi_index !1200
  br i1 %147, label %151, label %148, !llfi_index !1201

; <label>:148                                     ; preds = %145
  %149 = load i64* %14, align 8, !llfi_index !1202
  %150 = icmp ne i64 %149, 0, !llfi_index !1203
  br i1 %150, label %151, label %152, !llfi_index !1204

; <label>:151                                     ; preds = %148, %145
  br label %152, !llfi_index !1205

; <label>:152                                     ; preds = %151, %148
  %153 = load i64* %n1, align 8, !llfi_index !1206
  %154 = load double** %4, align 8, !llfi_index !1207
  %155 = load double** %5, align 8, !llfi_index !1208
  %156 = load i64* %8, align 8, !llfi_index !1209
  %157 = load i64* %10, align 8, !llfi_index !1210
  %158 = load i64* %11, align 8, !llfi_index !1211
  %159 = load i64* %12, align 8, !llfi_index !1212
  call void @_Z9TransposelPdS_llll(i64 %153, double* %154, double* %155, i64 %156, i64 %157, i64 %158, i64 %159), !llfi_index !1213
  %160 = load i64* %8, align 8, !llfi_index !1214
  %161 = icmp eq i64 %160, 0, !llfi_index !1215
  br i1 %161, label %165, label %162, !llfi_index !1216

; <label>:162                                     ; preds = %152
  %163 = load i64* %14, align 8, !llfi_index !1217
  %164 = icmp ne i64 %163, 0, !llfi_index !1218
  br i1 %164, label %165, label %172, !llfi_index !1219

; <label>:165                                     ; preds = %162, %152
  %166 = load i64* %clocktime2, align 8, !llfi_index !1220
  %167 = load i64* %clocktime1, align 8, !llfi_index !1221
  %168 = sub i64 %166, %167, !llfi_index !1222
  %169 = load i64** %9, align 8, !llfi_index !1223
  %170 = load i64* %169, align 8, !llfi_index !1224
  %171 = add i64 %170, %168, !llfi_index !1225
  store i64 %171, i64* %169, align 8, !llfi_index !1226
  br label %172, !llfi_index !1227

; <label>:172                                     ; preds = %165, %162
  %173 = load i64* %13, align 8, !llfi_index !1228
  %174 = icmp ne i64 %173, 0, !llfi_index !1229
  br i1 %174, label %178, label %175, !llfi_index !1230

; <label>:175                                     ; preds = %172
  %176 = load i64* @doprint, align 8, !llfi_index !1231
  %177 = icmp ne i64 %176, 0, !llfi_index !1232
  br i1 %177, label %178, label %206, !llfi_index !1233

; <label>:178                                     ; preds = %175, %172
  %179 = load i64* %10, align 8, !llfi_index !1234
  store i64 %179, i64* %j, align 8, !llfi_index !1235
  br label %180, !llfi_index !1236

; <label>:180                                     ; preds = %202, %178
  %181 = load i64* %j, align 8, !llfi_index !1237
  %182 = load i64* %11, align 8, !llfi_index !1238
  %183 = icmp slt i64 %181, %182, !llfi_index !1239
  br i1 %183, label %184, label %205, !llfi_index !1240

; <label>:184                                     ; preds = %180
  %185 = load i64* %n1, align 8, !llfi_index !1241
  %186 = load i64* %j, align 8, !llfi_index !1242
  %187 = mul nsw i64 2, %186, !llfi_index !1243
  %188 = load i64* %n1, align 8, !llfi_index !1244
  %189 = load i64* %12, align 8, !llfi_index !1245
  %190 = add nsw i64 %188, %189, !llfi_index !1246
  %191 = mul nsw i64 %187, %190, !llfi_index !1247
  %192 = load double** %5, align 8, !llfi_index !1248
  %193 = getelementptr inbounds double* %192, i64 %191, !llfi_index !1249
  %194 = load i64* %j, align 8, !llfi_index !1250
  %195 = mul nsw i64 2, %194, !llfi_index !1251
  %196 = load i64* %n1, align 8, !llfi_index !1252
  %197 = load i64* %12, align 8, !llfi_index !1253
  %198 = add nsw i64 %196, %197, !llfi_index !1254
  %199 = mul nsw i64 %195, %198, !llfi_index !1255
  %200 = load double** %4, align 8, !llfi_index !1256
  %201 = getelementptr inbounds double* %200, i64 %199, !llfi_index !1257
  call void @_Z10CopyColumnlPdS_(i64 %185, double* %193, double* %201), !llfi_index !1258
  br label %202, !llfi_index !1259

; <label>:202                                     ; preds = %184
  %203 = load i64* %j, align 8, !llfi_index !1260
  %204 = add nsw i64 %203, 1, !llfi_index !1261
  store i64 %204, i64* %j, align 8, !llfi_index !1262
  br label %180, !llfi_index !1263

; <label>:205                                     ; preds = %180
  br label %206, !llfi_index !1264

; <label>:206                                     ; preds = %205, %175
  ret void, !llfi_index !1265
}

; Function Attrs: nounwind
declare double @cos(double) #1

; Function Attrs: nounwind
declare double @sin(double) #1

; Function Attrs: nounwind uwtable
define i64 @_Z10BitReversell(i64 %M, i64 %k) #4 {
  %1 = alloca i64, align 8, !llfi_index !1266
  %2 = alloca i64, align 8, !llfi_index !1267
  %i = alloca i64, align 8, !llfi_index !1268
  %j = alloca i64, align 8, !llfi_index !1269
  %tmp = alloca i64, align 8, !llfi_index !1270
  store i64 %M, i64* %1, align 8, !llfi_index !1271
  store i64 %k, i64* %2, align 8, !llfi_index !1272
  store i64 0, i64* %j, align 8, !llfi_index !1273
  %3 = load i64* %2, align 8, !llfi_index !1274
  store i64 %3, i64* %tmp, align 8, !llfi_index !1275
  store i64 0, i64* %i, align 8, !llfi_index !1276
  br label %4, !llfi_index !1277

; <label>:4                                       ; preds = %16, %0
  %5 = load i64* %i, align 8, !llfi_index !1278
  %6 = load i64* %1, align 8, !llfi_index !1279
  %7 = icmp slt i64 %5, %6, !llfi_index !1280
  br i1 %7, label %8, label %19, !llfi_index !1281

; <label>:8                                       ; preds = %4
  %9 = load i64* %j, align 8, !llfi_index !1282
  %10 = mul nsw i64 2, %9, !llfi_index !1283
  %11 = load i64* %tmp, align 8, !llfi_index !1284
  %12 = and i64 %11, 1, !llfi_index !1285
  %13 = add nsw i64 %10, %12, !llfi_index !1286
  store i64 %13, i64* %j, align 8, !llfi_index !1287
  %14 = load i64* %tmp, align 8, !llfi_index !1288
  %15 = ashr i64 %14, 1, !llfi_index !1289
  store i64 %15, i64* %tmp, align 8, !llfi_index !1290
  br label %16, !llfi_index !1291

; <label>:16                                      ; preds = %8
  %17 = load i64* %i, align 8, !llfi_index !1292
  %18 = add nsw i64 %17, 1, !llfi_index !1293
  store i64 %18, i64* %i, align 8, !llfi_index !1294
  br label %4, !llfi_index !1295

; <label>:19                                      ; preds = %4
  %20 = load i64* %j, align 8, !llfi_index !1296
  ret i64 %20, !llfi_index !1297
}

; Function Attrs: nounwind uwtable
define void @_Z9TransposelPdS_llll(i64 %n1, double* %src, double* %dest, i64 %MyNum, i64 %MyFirst, i64 %MyLast, i64 %pad_length) #4 {
  %1 = alloca i64, align 8, !llfi_index !1298
  %2 = alloca double*, align 8, !llfi_index !1299
  %3 = alloca double*, align 8, !llfi_index !1300
  %4 = alloca i64, align 8, !llfi_index !1301
  %5 = alloca i64, align 8, !llfi_index !1302
  %6 = alloca i64, align 8, !llfi_index !1303
  %7 = alloca i64, align 8, !llfi_index !1304
  %i = alloca i64, align 8, !llfi_index !1305
  %j = alloca i64, align 8, !llfi_index !1306
  %k = alloca i64, align 8, !llfi_index !1307
  %l = alloca i64, align 8, !llfi_index !1308
  %m = alloca i64, align 8, !llfi_index !1309
  %blksize = alloca i64, align 8, !llfi_index !1310
  %numblks = alloca i64, align 8, !llfi_index !1311
  %firstfirst = alloca i64, align 8, !llfi_index !1312
  %h_off = alloca i64, align 8, !llfi_index !1313
  %v_off = alloca i64, align 8, !llfi_index !1314
  %v = alloca i64, align 8, !llfi_index !1315
  %h = alloca i64, align 8, !llfi_index !1316
  %n1p = alloca i64, align 8, !llfi_index !1317
  %row_count = alloca i64, align 8, !llfi_index !1318
  store i64 %n1, i64* %1, align 8, !llfi_index !1319
  store double* %src, double** %2, align 8, !llfi_index !1320
  store double* %dest, double** %3, align 8, !llfi_index !1321
  store i64 %MyNum, i64* %4, align 8, !llfi_index !1322
  store i64 %MyFirst, i64* %5, align 8, !llfi_index !1323
  store i64 %MyLast, i64* %6, align 8, !llfi_index !1324
  store i64 %pad_length, i64* %7, align 8, !llfi_index !1325
  %8 = load i64* %6, align 8, !llfi_index !1326
  %9 = load i64* %5, align 8, !llfi_index !1327
  %10 = sub nsw i64 %8, %9, !llfi_index !1328
  store i64 %10, i64* %blksize, align 8, !llfi_index !1329
  %11 = load i64* %blksize, align 8, !llfi_index !1330
  %12 = mul nsw i64 2, %11, !llfi_index !1331
  %13 = load i64* @num_cache_lines, align 8, !llfi_index !1332
  %14 = sdiv i64 %12, %13, !llfi_index !1333
  store i64 %14, i64* %numblks, align 8, !llfi_index !1334
  %15 = load i64* %numblks, align 8, !llfi_index !1335
  %16 = load i64* @num_cache_lines, align 8, !llfi_index !1336
  %17 = mul nsw i64 %15, %16, !llfi_index !1337
  %18 = load i64* %blksize, align 8, !llfi_index !1338
  %19 = mul nsw i64 2, %18, !llfi_index !1339
  %20 = icmp ne i64 %17, %19, !llfi_index !1340
  br i1 %20, label %21, label %24, !llfi_index !1341

; <label>:21                                      ; preds = %0
  %22 = load i64* %numblks, align 8, !llfi_index !1342
  %23 = add nsw i64 %22, 1, !llfi_index !1343
  store i64 %23, i64* %numblks, align 8, !llfi_index !1344
  br label %24, !llfi_index !1345

; <label>:24                                      ; preds = %21, %0
  %25 = load i64* %blksize, align 8, !llfi_index !1346
  %26 = load i64* %numblks, align 8, !llfi_index !1347
  %27 = sdiv i64 %25, %26, !llfi_index !1348
  store i64 %27, i64* %blksize, align 8, !llfi_index !1349
  %28 = load i64* %5, align 8, !llfi_index !1350
  store i64 %28, i64* %firstfirst, align 8, !llfi_index !1351
  %29 = load i64* %1, align 8, !llfi_index !1352
  %30 = load i64* @P, align 8, !llfi_index !1353
  %31 = sdiv i64 %29, %30, !llfi_index !1354
  store i64 %31, i64* %row_count, align 8, !llfi_index !1355
  %32 = load i64* %1, align 8, !llfi_index !1356
  %33 = load i64* %7, align 8, !llfi_index !1357
  %34 = add nsw i64 %32, %33, !llfi_index !1358
  store i64 %34, i64* %n1p, align 8, !llfi_index !1359
  %35 = load i64* %4, align 8, !llfi_index !1360
  %36 = add nsw i64 %35, 1, !llfi_index !1361
  store i64 %36, i64* %l, align 8, !llfi_index !1362
  br label %37, !llfi_index !1363

; <label>:37                                      ; preds = %130, %24
  %38 = load i64* %l, align 8, !llfi_index !1364
  %39 = load i64* @P, align 8, !llfi_index !1365
  %40 = icmp slt i64 %38, %39, !llfi_index !1366
  br i1 %40, label %41, label %133, !llfi_index !1367

; <label>:41                                      ; preds = %37
  %42 = load i64* %l, align 8, !llfi_index !1368
  %43 = load i64* %row_count, align 8, !llfi_index !1369
  %44 = mul nsw i64 %42, %43, !llfi_index !1370
  store i64 %44, i64* %v_off, align 8, !llfi_index !1371
  store i64 0, i64* %k, align 8, !llfi_index !1372
  br label %45, !llfi_index !1373

; <label>:45                                      ; preds = %126, %41
  %46 = load i64* %k, align 8, !llfi_index !1374
  %47 = load i64* %numblks, align 8, !llfi_index !1375
  %48 = icmp slt i64 %46, %47, !llfi_index !1376
  br i1 %48, label %49, label %129, !llfi_index !1377

; <label>:49                                      ; preds = %45
  %50 = load i64* %firstfirst, align 8, !llfi_index !1378
  store i64 %50, i64* %h_off, align 8, !llfi_index !1379
  store i64 0, i64* %m, align 8, !llfi_index !1380
  br label %51, !llfi_index !1381

; <label>:51                                      ; preds = %119, %49
  %52 = load i64* %m, align 8, !llfi_index !1382
  %53 = load i64* %numblks, align 8, !llfi_index !1383
  %54 = icmp slt i64 %52, %53, !llfi_index !1384
  br i1 %54, label %55, label %122, !llfi_index !1385

; <label>:55                                      ; preds = %51
  store i64 0, i64* %i, align 8, !llfi_index !1386
  br label %56, !llfi_index !1387

; <label>:56                                      ; preds = %112, %55
  %57 = load i64* %i, align 8, !llfi_index !1388
  %58 = load i64* %blksize, align 8, !llfi_index !1389
  %59 = icmp slt i64 %57, %58, !llfi_index !1390
  br i1 %59, label %60, label %115, !llfi_index !1391

; <label>:60                                      ; preds = %56
  %61 = load i64* %v_off, align 8, !llfi_index !1392
  %62 = load i64* %i, align 8, !llfi_index !1393
  %63 = add nsw i64 %61, %62, !llfi_index !1394
  store i64 %63, i64* %v, align 8, !llfi_index !1395
  store i64 0, i64* %j, align 8, !llfi_index !1396
  br label %64, !llfi_index !1397

; <label>:64                                      ; preds = %108, %60
  %65 = load i64* %j, align 8, !llfi_index !1398
  %66 = load i64* %blksize, align 8, !llfi_index !1399
  %67 = icmp slt i64 %65, %66, !llfi_index !1400
  br i1 %67, label %68, label %111, !llfi_index !1401

; <label>:68                                      ; preds = %64
  %69 = load i64* %h_off, align 8, !llfi_index !1402
  %70 = load i64* %j, align 8, !llfi_index !1403
  %71 = add nsw i64 %69, %70, !llfi_index !1404
  store i64 %71, i64* %h, align 8, !llfi_index !1405
  %72 = load i64* %v, align 8, !llfi_index !1406
  %73 = load i64* %n1p, align 8, !llfi_index !1407
  %74 = mul nsw i64 %72, %73, !llfi_index !1408
  %75 = load i64* %h, align 8, !llfi_index !1409
  %76 = add nsw i64 %74, %75, !llfi_index !1410
  %77 = mul nsw i64 2, %76, !llfi_index !1411
  %78 = load double** %2, align 8, !llfi_index !1412
  %79 = getelementptr inbounds double* %78, i64 %77, !llfi_index !1413
  %80 = load double* %79, align 8, !llfi_index !1414
  %81 = load i64* %h, align 8, !llfi_index !1415
  %82 = load i64* %n1p, align 8, !llfi_index !1416
  %83 = mul nsw i64 %81, %82, !llfi_index !1417
  %84 = load i64* %v, align 8, !llfi_index !1418
  %85 = add nsw i64 %83, %84, !llfi_index !1419
  %86 = mul nsw i64 2, %85, !llfi_index !1420
  %87 = load double** %3, align 8, !llfi_index !1421
  %88 = getelementptr inbounds double* %87, i64 %86, !llfi_index !1422
  store double %80, double* %88, align 8, !llfi_index !1423
  %89 = load i64* %v, align 8, !llfi_index !1424
  %90 = load i64* %n1p, align 8, !llfi_index !1425
  %91 = mul nsw i64 %89, %90, !llfi_index !1426
  %92 = load i64* %h, align 8, !llfi_index !1427
  %93 = add nsw i64 %91, %92, !llfi_index !1428
  %94 = mul nsw i64 2, %93, !llfi_index !1429
  %95 = add nsw i64 %94, 1, !llfi_index !1430
  %96 = load double** %2, align 8, !llfi_index !1431
  %97 = getelementptr inbounds double* %96, i64 %95, !llfi_index !1432
  %98 = load double* %97, align 8, !llfi_index !1433
  %99 = load i64* %h, align 8, !llfi_index !1434
  %100 = load i64* %n1p, align 8, !llfi_index !1435
  %101 = mul nsw i64 %99, %100, !llfi_index !1436
  %102 = load i64* %v, align 8, !llfi_index !1437
  %103 = add nsw i64 %101, %102, !llfi_index !1438
  %104 = mul nsw i64 2, %103, !llfi_index !1439
  %105 = add nsw i64 %104, 1, !llfi_index !1440
  %106 = load double** %3, align 8, !llfi_index !1441
  %107 = getelementptr inbounds double* %106, i64 %105, !llfi_index !1442
  store double %98, double* %107, align 8, !llfi_index !1443
  br label %108, !llfi_index !1444

; <label>:108                                     ; preds = %68
  %109 = load i64* %j, align 8, !llfi_index !1445
  %110 = add nsw i64 %109, 1, !llfi_index !1446
  store i64 %110, i64* %j, align 8, !llfi_index !1447
  br label %64, !llfi_index !1448

; <label>:111                                     ; preds = %64
  br label %112, !llfi_index !1449

; <label>:112                                     ; preds = %111
  %113 = load i64* %i, align 8, !llfi_index !1450
  %114 = add nsw i64 %113, 1, !llfi_index !1451
  store i64 %114, i64* %i, align 8, !llfi_index !1452
  br label %56, !llfi_index !1453

; <label>:115                                     ; preds = %56
  %116 = load i64* %blksize, align 8, !llfi_index !1454
  %117 = load i64* %h_off, align 8, !llfi_index !1455
  %118 = add nsw i64 %117, %116, !llfi_index !1456
  store i64 %118, i64* %h_off, align 8, !llfi_index !1457
  br label %119, !llfi_index !1458

; <label>:119                                     ; preds = %115
  %120 = load i64* %m, align 8, !llfi_index !1459
  %121 = add nsw i64 %120, 1, !llfi_index !1460
  store i64 %121, i64* %m, align 8, !llfi_index !1461
  br label %51, !llfi_index !1462

; <label>:122                                     ; preds = %51
  %123 = load i64* %blksize, align 8, !llfi_index !1463
  %124 = load i64* %v_off, align 8, !llfi_index !1464
  %125 = add nsw i64 %124, %123, !llfi_index !1465
  store i64 %125, i64* %v_off, align 8, !llfi_index !1466
  br label %126, !llfi_index !1467

; <label>:126                                     ; preds = %122
  %127 = load i64* %k, align 8, !llfi_index !1468
  %128 = add nsw i64 %127, 1, !llfi_index !1469
  store i64 %128, i64* %k, align 8, !llfi_index !1470
  br label %45, !llfi_index !1471

; <label>:129                                     ; preds = %45
  br label %130, !llfi_index !1472

; <label>:130                                     ; preds = %129
  %131 = load i64* %l, align 8, !llfi_index !1473
  %132 = add nsw i64 %131, 1, !llfi_index !1474
  store i64 %132, i64* %l, align 8, !llfi_index !1475
  br label %37, !llfi_index !1476

; <label>:133                                     ; preds = %37
  store i64 0, i64* %l, align 8, !llfi_index !1477
  br label %134, !llfi_index !1478

; <label>:134                                     ; preds = %227, %133
  %135 = load i64* %l, align 8, !llfi_index !1479
  %136 = load i64* %4, align 8, !llfi_index !1480
  %137 = icmp slt i64 %135, %136, !llfi_index !1481
  br i1 %137, label %138, label %230, !llfi_index !1482

; <label>:138                                     ; preds = %134
  %139 = load i64* %l, align 8, !llfi_index !1483
  %140 = load i64* %row_count, align 8, !llfi_index !1484
  %141 = mul nsw i64 %139, %140, !llfi_index !1485
  store i64 %141, i64* %v_off, align 8, !llfi_index !1486
  store i64 0, i64* %k, align 8, !llfi_index !1487
  br label %142, !llfi_index !1488

; <label>:142                                     ; preds = %223, %138
  %143 = load i64* %k, align 8, !llfi_index !1489
  %144 = load i64* %numblks, align 8, !llfi_index !1490
  %145 = icmp slt i64 %143, %144, !llfi_index !1491
  br i1 %145, label %146, label %226, !llfi_index !1492

; <label>:146                                     ; preds = %142
  %147 = load i64* %firstfirst, align 8, !llfi_index !1493
  store i64 %147, i64* %h_off, align 8, !llfi_index !1494
  store i64 0, i64* %m, align 8, !llfi_index !1495
  br label %148, !llfi_index !1496

; <label>:148                                     ; preds = %216, %146
  %149 = load i64* %m, align 8, !llfi_index !1497
  %150 = load i64* %numblks, align 8, !llfi_index !1498
  %151 = icmp slt i64 %149, %150, !llfi_index !1499
  br i1 %151, label %152, label %219, !llfi_index !1500

; <label>:152                                     ; preds = %148
  store i64 0, i64* %i, align 8, !llfi_index !1501
  br label %153, !llfi_index !1502

; <label>:153                                     ; preds = %209, %152
  %154 = load i64* %i, align 8, !llfi_index !1503
  %155 = load i64* %blksize, align 8, !llfi_index !1504
  %156 = icmp slt i64 %154, %155, !llfi_index !1505
  br i1 %156, label %157, label %212, !llfi_index !1506

; <label>:157                                     ; preds = %153
  %158 = load i64* %v_off, align 8, !llfi_index !1507
  %159 = load i64* %i, align 8, !llfi_index !1508
  %160 = add nsw i64 %158, %159, !llfi_index !1509
  store i64 %160, i64* %v, align 8, !llfi_index !1510
  store i64 0, i64* %j, align 8, !llfi_index !1511
  br label %161, !llfi_index !1512

; <label>:161                                     ; preds = %205, %157
  %162 = load i64* %j, align 8, !llfi_index !1513
  %163 = load i64* %blksize, align 8, !llfi_index !1514
  %164 = icmp slt i64 %162, %163, !llfi_index !1515
  br i1 %164, label %165, label %208, !llfi_index !1516

; <label>:165                                     ; preds = %161
  %166 = load i64* %h_off, align 8, !llfi_index !1517
  %167 = load i64* %j, align 8, !llfi_index !1518
  %168 = add nsw i64 %166, %167, !llfi_index !1519
  store i64 %168, i64* %h, align 8, !llfi_index !1520
  %169 = load i64* %v, align 8, !llfi_index !1521
  %170 = load i64* %n1p, align 8, !llfi_index !1522
  %171 = mul nsw i64 %169, %170, !llfi_index !1523
  %172 = load i64* %h, align 8, !llfi_index !1524
  %173 = add nsw i64 %171, %172, !llfi_index !1525
  %174 = mul nsw i64 2, %173, !llfi_index !1526
  %175 = load double** %2, align 8, !llfi_index !1527
  %176 = getelementptr inbounds double* %175, i64 %174, !llfi_index !1528
  %177 = load double* %176, align 8, !llfi_index !1529
  %178 = load i64* %h, align 8, !llfi_index !1530
  %179 = load i64* %n1p, align 8, !llfi_index !1531
  %180 = mul nsw i64 %178, %179, !llfi_index !1532
  %181 = load i64* %v, align 8, !llfi_index !1533
  %182 = add nsw i64 %180, %181, !llfi_index !1534
  %183 = mul nsw i64 2, %182, !llfi_index !1535
  %184 = load double** %3, align 8, !llfi_index !1536
  %185 = getelementptr inbounds double* %184, i64 %183, !llfi_index !1537
  store double %177, double* %185, align 8, !llfi_index !1538
  %186 = load i64* %v, align 8, !llfi_index !1539
  %187 = load i64* %n1p, align 8, !llfi_index !1540
  %188 = mul nsw i64 %186, %187, !llfi_index !1541
  %189 = load i64* %h, align 8, !llfi_index !1542
  %190 = add nsw i64 %188, %189, !llfi_index !1543
  %191 = mul nsw i64 2, %190, !llfi_index !1544
  %192 = add nsw i64 %191, 1, !llfi_index !1545
  %193 = load double** %2, align 8, !llfi_index !1546
  %194 = getelementptr inbounds double* %193, i64 %192, !llfi_index !1547
  %195 = load double* %194, align 8, !llfi_index !1548
  %196 = load i64* %h, align 8, !llfi_index !1549
  %197 = load i64* %n1p, align 8, !llfi_index !1550
  %198 = mul nsw i64 %196, %197, !llfi_index !1551
  %199 = load i64* %v, align 8, !llfi_index !1552
  %200 = add nsw i64 %198, %199, !llfi_index !1553
  %201 = mul nsw i64 2, %200, !llfi_index !1554
  %202 = add nsw i64 %201, 1, !llfi_index !1555
  %203 = load double** %3, align 8, !llfi_index !1556
  %204 = getelementptr inbounds double* %203, i64 %202, !llfi_index !1557
  store double %195, double* %204, align 8, !llfi_index !1558
  br label %205, !llfi_index !1559

; <label>:205                                     ; preds = %165
  %206 = load i64* %j, align 8, !llfi_index !1560
  %207 = add nsw i64 %206, 1, !llfi_index !1561
  store i64 %207, i64* %j, align 8, !llfi_index !1562
  br label %161, !llfi_index !1563

; <label>:208                                     ; preds = %161
  br label %209, !llfi_index !1564

; <label>:209                                     ; preds = %208
  %210 = load i64* %i, align 8, !llfi_index !1565
  %211 = add nsw i64 %210, 1, !llfi_index !1566
  store i64 %211, i64* %i, align 8, !llfi_index !1567
  br label %153, !llfi_index !1568

; <label>:212                                     ; preds = %153
  %213 = load i64* %blksize, align 8, !llfi_index !1569
  %214 = load i64* %h_off, align 8, !llfi_index !1570
  %215 = add nsw i64 %214, %213, !llfi_index !1571
  store i64 %215, i64* %h_off, align 8, !llfi_index !1572
  br label %216, !llfi_index !1573

; <label>:216                                     ; preds = %212
  %217 = load i64* %m, align 8, !llfi_index !1574
  %218 = add nsw i64 %217, 1, !llfi_index !1575
  store i64 %218, i64* %m, align 8, !llfi_index !1576
  br label %148, !llfi_index !1577

; <label>:219                                     ; preds = %148
  %220 = load i64* %blksize, align 8, !llfi_index !1578
  %221 = load i64* %v_off, align 8, !llfi_index !1579
  %222 = add nsw i64 %221, %220, !llfi_index !1580
  store i64 %222, i64* %v_off, align 8, !llfi_index !1581
  br label %223, !llfi_index !1582

; <label>:223                                     ; preds = %219
  %224 = load i64* %k, align 8, !llfi_index !1583
  %225 = add nsw i64 %224, 1, !llfi_index !1584
  store i64 %225, i64* %k, align 8, !llfi_index !1585
  br label %142, !llfi_index !1586

; <label>:226                                     ; preds = %142
  br label %227, !llfi_index !1587

; <label>:227                                     ; preds = %226
  %228 = load i64* %l, align 8, !llfi_index !1588
  %229 = add nsw i64 %228, 1, !llfi_index !1589
  store i64 %229, i64* %l, align 8, !llfi_index !1590
  br label %134, !llfi_index !1591

; <label>:230                                     ; preds = %134
  %231 = load i64* %4, align 8, !llfi_index !1592
  %232 = load i64* %row_count, align 8, !llfi_index !1593
  %233 = mul nsw i64 %231, %232, !llfi_index !1594
  store i64 %233, i64* %v_off, align 8, !llfi_index !1595
  store i64 0, i64* %k, align 8, !llfi_index !1596
  br label %234, !llfi_index !1597

; <label>:234                                     ; preds = %315, %230
  %235 = load i64* %k, align 8, !llfi_index !1598
  %236 = load i64* %numblks, align 8, !llfi_index !1599
  %237 = icmp slt i64 %235, %236, !llfi_index !1600
  br i1 %237, label %238, label %318, !llfi_index !1601

; <label>:238                                     ; preds = %234
  %239 = load i64* %firstfirst, align 8, !llfi_index !1602
  store i64 %239, i64* %h_off, align 8, !llfi_index !1603
  store i64 0, i64* %m, align 8, !llfi_index !1604
  br label %240, !llfi_index !1605

; <label>:240                                     ; preds = %308, %238
  %241 = load i64* %m, align 8, !llfi_index !1606
  %242 = load i64* %numblks, align 8, !llfi_index !1607
  %243 = icmp slt i64 %241, %242, !llfi_index !1608
  br i1 %243, label %244, label %311, !llfi_index !1609

; <label>:244                                     ; preds = %240
  store i64 0, i64* %i, align 8, !llfi_index !1610
  br label %245, !llfi_index !1611

; <label>:245                                     ; preds = %301, %244
  %246 = load i64* %i, align 8, !llfi_index !1612
  %247 = load i64* %blksize, align 8, !llfi_index !1613
  %248 = icmp slt i64 %246, %247, !llfi_index !1614
  br i1 %248, label %249, label %304, !llfi_index !1615

; <label>:249                                     ; preds = %245
  %250 = load i64* %v_off, align 8, !llfi_index !1616
  %251 = load i64* %i, align 8, !llfi_index !1617
  %252 = add nsw i64 %250, %251, !llfi_index !1618
  store i64 %252, i64* %v, align 8, !llfi_index !1619
  store i64 0, i64* %j, align 8, !llfi_index !1620
  br label %253, !llfi_index !1621

; <label>:253                                     ; preds = %297, %249
  %254 = load i64* %j, align 8, !llfi_index !1622
  %255 = load i64* %blksize, align 8, !llfi_index !1623
  %256 = icmp slt i64 %254, %255, !llfi_index !1624
  br i1 %256, label %257, label %300, !llfi_index !1625

; <label>:257                                     ; preds = %253
  %258 = load i64* %h_off, align 8, !llfi_index !1626
  %259 = load i64* %j, align 8, !llfi_index !1627
  %260 = add nsw i64 %258, %259, !llfi_index !1628
  store i64 %260, i64* %h, align 8, !llfi_index !1629
  %261 = load i64* %v, align 8, !llfi_index !1630
  %262 = load i64* %n1p, align 8, !llfi_index !1631
  %263 = mul nsw i64 %261, %262, !llfi_index !1632
  %264 = load i64* %h, align 8, !llfi_index !1633
  %265 = add nsw i64 %263, %264, !llfi_index !1634
  %266 = mul nsw i64 2, %265, !llfi_index !1635
  %267 = load double** %2, align 8, !llfi_index !1636
  %268 = getelementptr inbounds double* %267, i64 %266, !llfi_index !1637
  %269 = load double* %268, align 8, !llfi_index !1638
  %270 = load i64* %h, align 8, !llfi_index !1639
  %271 = load i64* %n1p, align 8, !llfi_index !1640
  %272 = mul nsw i64 %270, %271, !llfi_index !1641
  %273 = load i64* %v, align 8, !llfi_index !1642
  %274 = add nsw i64 %272, %273, !llfi_index !1643
  %275 = mul nsw i64 2, %274, !llfi_index !1644
  %276 = load double** %3, align 8, !llfi_index !1645
  %277 = getelementptr inbounds double* %276, i64 %275, !llfi_index !1646
  store double %269, double* %277, align 8, !llfi_index !1647
  %278 = load i64* %v, align 8, !llfi_index !1648
  %279 = load i64* %n1p, align 8, !llfi_index !1649
  %280 = mul nsw i64 %278, %279, !llfi_index !1650
  %281 = load i64* %h, align 8, !llfi_index !1651
  %282 = add nsw i64 %280, %281, !llfi_index !1652
  %283 = mul nsw i64 2, %282, !llfi_index !1653
  %284 = add nsw i64 %283, 1, !llfi_index !1654
  %285 = load double** %2, align 8, !llfi_index !1655
  %286 = getelementptr inbounds double* %285, i64 %284, !llfi_index !1656
  %287 = load double* %286, align 8, !llfi_index !1657
  %288 = load i64* %h, align 8, !llfi_index !1658
  %289 = load i64* %n1p, align 8, !llfi_index !1659
  %290 = mul nsw i64 %288, %289, !llfi_index !1660
  %291 = load i64* %v, align 8, !llfi_index !1661
  %292 = add nsw i64 %290, %291, !llfi_index !1662
  %293 = mul nsw i64 2, %292, !llfi_index !1663
  %294 = add nsw i64 %293, 1, !llfi_index !1664
  %295 = load double** %3, align 8, !llfi_index !1665
  %296 = getelementptr inbounds double* %295, i64 %294, !llfi_index !1666
  store double %287, double* %296, align 8, !llfi_index !1667
  br label %297, !llfi_index !1668

; <label>:297                                     ; preds = %257
  %298 = load i64* %j, align 8, !llfi_index !1669
  %299 = add nsw i64 %298, 1, !llfi_index !1670
  store i64 %299, i64* %j, align 8, !llfi_index !1671
  br label %253, !llfi_index !1672

; <label>:300                                     ; preds = %253
  br label %301, !llfi_index !1673

; <label>:301                                     ; preds = %300
  %302 = load i64* %i, align 8, !llfi_index !1674
  %303 = add nsw i64 %302, 1, !llfi_index !1675
  store i64 %303, i64* %i, align 8, !llfi_index !1676
  br label %245, !llfi_index !1677

; <label>:304                                     ; preds = %245
  %305 = load i64* %blksize, align 8, !llfi_index !1678
  %306 = load i64* %h_off, align 8, !llfi_index !1679
  %307 = add nsw i64 %306, %305, !llfi_index !1680
  store i64 %307, i64* %h_off, align 8, !llfi_index !1681
  br label %308, !llfi_index !1682

; <label>:308                                     ; preds = %304
  %309 = load i64* %m, align 8, !llfi_index !1683
  %310 = add nsw i64 %309, 1, !llfi_index !1684
  store i64 %310, i64* %m, align 8, !llfi_index !1685
  br label %240, !llfi_index !1686

; <label>:311                                     ; preds = %240
  %312 = load i64* %blksize, align 8, !llfi_index !1687
  %313 = load i64* %v_off, align 8, !llfi_index !1688
  %314 = add nsw i64 %313, %312, !llfi_index !1689
  store i64 %314, i64* %v_off, align 8, !llfi_index !1690
  br label %315, !llfi_index !1691

; <label>:315                                     ; preds = %311
  %316 = load i64* %k, align 8, !llfi_index !1692
  %317 = add nsw i64 %316, 1, !llfi_index !1693
  store i64 %317, i64* %k, align 8, !llfi_index !1694
  br label %234, !llfi_index !1695

; <label>:318                                     ; preds = %234
  ret void, !llfi_index !1696
}

; Function Attrs: nounwind uwtable
define void @_Z9FFT1DOncelllPdS_(i64 %direction, i64 %M, i64 %N, double* %u, double* %x) #4 {
  %1 = alloca i64, align 8, !llfi_index !1697
  %2 = alloca i64, align 8, !llfi_index !1698
  %3 = alloca i64, align 8, !llfi_index !1699
  %4 = alloca double*, align 8, !llfi_index !1700
  %5 = alloca double*, align 8, !llfi_index !1701
  %j = alloca i64, align 8, !llfi_index !1702
  %k = alloca i64, align 8, !llfi_index !1703
  %q = alloca i64, align 8, !llfi_index !1704
  %L = alloca i64, align 8, !llfi_index !1705
  %r = alloca i64, align 8, !llfi_index !1706
  %Lstar = alloca i64, align 8, !llfi_index !1707
  %u1 = alloca double*, align 8, !llfi_index !1708
  %x1 = alloca double*, align 8, !llfi_index !1709
  %x2 = alloca double*, align 8, !llfi_index !1710
  %omega_r = alloca double, align 8, !llfi_index !1711
  %omega_c = alloca double, align 8, !llfi_index !1712
  %tau_r = alloca double, align 8, !llfi_index !1713
  %tau_c = alloca double, align 8, !llfi_index !1714
  %x_r = alloca double, align 8, !llfi_index !1715
  %x_c = alloca double, align 8, !llfi_index !1716
  store i64 %direction, i64* %1, align 8, !llfi_index !1717
  store i64 %M, i64* %2, align 8, !llfi_index !1718
  store i64 %N, i64* %3, align 8, !llfi_index !1719
  store double* %u, double** %4, align 8, !llfi_index !1720
  store double* %x, double** %5, align 8, !llfi_index !1721
  %6 = load i64* %3, align 8, !llfi_index !1722
  %7 = load i64* %2, align 8, !llfi_index !1723
  %8 = load double** %5, align 8, !llfi_index !1724
  call void @_Z7ReversellPd(i64 %6, i64 %7, double* %8), !llfi_index !1725
  store i64 1, i64* %q, align 8, !llfi_index !1726
  br label %9, !llfi_index !1727

; <label>:9                                       ; preds = %140, %0
  %10 = load i64* %q, align 8, !llfi_index !1728
  %11 = load i64* %2, align 8, !llfi_index !1729
  %12 = icmp sle i64 %10, %11, !llfi_index !1730
  br i1 %12, label %13, label %143, !llfi_index !1731

; <label>:13                                      ; preds = %9
  %14 = load i64* %q, align 8, !llfi_index !1732
  %15 = trunc i64 %14 to i32, !llfi_index !1733
  %16 = shl i32 1, %15, !llfi_index !1734
  %17 = sext i32 %16 to i64, !llfi_index !1735
  store i64 %17, i64* %L, align 8, !llfi_index !1736
  %18 = load i64* %3, align 8, !llfi_index !1737
  %19 = load i64* %L, align 8, !llfi_index !1738
  %20 = sdiv i64 %18, %19, !llfi_index !1739
  store i64 %20, i64* %r, align 8, !llfi_index !1740
  %21 = load i64* %L, align 8, !llfi_index !1741
  %22 = sdiv i64 %21, 2, !llfi_index !1742
  store i64 %22, i64* %Lstar, align 8, !llfi_index !1743
  %23 = load i64* %Lstar, align 8, !llfi_index !1744
  %24 = sub nsw i64 %23, 1, !llfi_index !1745
  %25 = mul nsw i64 2, %24, !llfi_index !1746
  %26 = load double** %4, align 8, !llfi_index !1747
  %27 = getelementptr inbounds double* %26, i64 %25, !llfi_index !1748
  store double* %27, double** %u1, align 8, !llfi_index !1749
  store i64 0, i64* %k, align 8, !llfi_index !1750
  br label %28, !llfi_index !1751

; <label>:28                                      ; preds = %136, %13
  %29 = load i64* %k, align 8, !llfi_index !1752
  %30 = load i64* %r, align 8, !llfi_index !1753
  %31 = icmp slt i64 %29, %30, !llfi_index !1754
  br i1 %31, label %32, label %139, !llfi_index !1755

; <label>:32                                      ; preds = %28
  %33 = load i64* %k, align 8, !llfi_index !1756
  %34 = load i64* %L, align 8, !llfi_index !1757
  %35 = mul nsw i64 %33, %34, !llfi_index !1758
  %36 = mul nsw i64 2, %35, !llfi_index !1759
  %37 = load double** %5, align 8, !llfi_index !1760
  %38 = getelementptr inbounds double* %37, i64 %36, !llfi_index !1761
  store double* %38, double** %x1, align 8, !llfi_index !1762
  %39 = load i64* %k, align 8, !llfi_index !1763
  %40 = load i64* %L, align 8, !llfi_index !1764
  %41 = mul nsw i64 %39, %40, !llfi_index !1765
  %42 = load i64* %Lstar, align 8, !llfi_index !1766
  %43 = add nsw i64 %41, %42, !llfi_index !1767
  %44 = mul nsw i64 2, %43, !llfi_index !1768
  %45 = load double** %5, align 8, !llfi_index !1769
  %46 = getelementptr inbounds double* %45, i64 %44, !llfi_index !1770
  store double* %46, double** %x2, align 8, !llfi_index !1771
  store i64 0, i64* %j, align 8, !llfi_index !1772
  br label %47, !llfi_index !1773

; <label>:47                                      ; preds = %132, %32
  %48 = load i64* %j, align 8, !llfi_index !1774
  %49 = load i64* %Lstar, align 8, !llfi_index !1775
  %50 = icmp slt i64 %48, %49, !llfi_index !1776
  br i1 %50, label %51, label %135, !llfi_index !1777

; <label>:51                                      ; preds = %47
  %52 = load i64* %j, align 8, !llfi_index !1778
  %53 = mul nsw i64 2, %52, !llfi_index !1779
  %54 = load double** %u1, align 8, !llfi_index !1780
  %55 = getelementptr inbounds double* %54, i64 %53, !llfi_index !1781
  %56 = load double* %55, align 8, !llfi_index !1782
  store double %56, double* %omega_r, align 8, !llfi_index !1783
  %57 = load i64* %1, align 8, !llfi_index !1784
  %58 = sitofp i64 %57 to double, !llfi_index !1785
  %59 = load i64* %j, align 8, !llfi_index !1786
  %60 = mul nsw i64 2, %59, !llfi_index !1787
  %61 = add nsw i64 %60, 1, !llfi_index !1788
  %62 = load double** %u1, align 8, !llfi_index !1789
  %63 = getelementptr inbounds double* %62, i64 %61, !llfi_index !1790
  %64 = load double* %63, align 8, !llfi_index !1791
  %65 = fmul double %58, %64, !llfi_index !1792
  store double %65, double* %omega_c, align 8, !llfi_index !1793
  %66 = load i64* %j, align 8, !llfi_index !1794
  %67 = mul nsw i64 2, %66, !llfi_index !1795
  %68 = load double** %x2, align 8, !llfi_index !1796
  %69 = getelementptr inbounds double* %68, i64 %67, !llfi_index !1797
  %70 = load double* %69, align 8, !llfi_index !1798
  store double %70, double* %x_r, align 8, !llfi_index !1799
  %71 = load i64* %j, align 8, !llfi_index !1800
  %72 = mul nsw i64 2, %71, !llfi_index !1801
  %73 = add nsw i64 %72, 1, !llfi_index !1802
  %74 = load double** %x2, align 8, !llfi_index !1803
  %75 = getelementptr inbounds double* %74, i64 %73, !llfi_index !1804
  %76 = load double* %75, align 8, !llfi_index !1805
  store double %76, double* %x_c, align 8, !llfi_index !1806
  %77 = load double* %omega_r, align 8, !llfi_index !1807
  %78 = load double* %x_r, align 8, !llfi_index !1808
  %79 = fmul double %77, %78, !llfi_index !1809
  %80 = load double* %omega_c, align 8, !llfi_index !1810
  %81 = load double* %x_c, align 8, !llfi_index !1811
  %82 = fmul double %80, %81, !llfi_index !1812
  %83 = fsub double %79, %82, !llfi_index !1813
  store double %83, double* %tau_r, align 8, !llfi_index !1814
  %84 = load double* %omega_r, align 8, !llfi_index !1815
  %85 = load double* %x_c, align 8, !llfi_index !1816
  %86 = fmul double %84, %85, !llfi_index !1817
  %87 = load double* %omega_c, align 8, !llfi_index !1818
  %88 = load double* %x_r, align 8, !llfi_index !1819
  %89 = fmul double %87, %88, !llfi_index !1820
  %90 = fadd double %86, %89, !llfi_index !1821
  store double %90, double* %tau_c, align 8, !llfi_index !1822
  %91 = load i64* %j, align 8, !llfi_index !1823
  %92 = mul nsw i64 2, %91, !llfi_index !1824
  %93 = load double** %x1, align 8, !llfi_index !1825
  %94 = getelementptr inbounds double* %93, i64 %92, !llfi_index !1826
  %95 = load double* %94, align 8, !llfi_index !1827
  store double %95, double* %x_r, align 8, !llfi_index !1828
  %96 = load i64* %j, align 8, !llfi_index !1829
  %97 = mul nsw i64 2, %96, !llfi_index !1830
  %98 = add nsw i64 %97, 1, !llfi_index !1831
  %99 = load double** %x1, align 8, !llfi_index !1832
  %100 = getelementptr inbounds double* %99, i64 %98, !llfi_index !1833
  %101 = load double* %100, align 8, !llfi_index !1834
  store double %101, double* %x_c, align 8, !llfi_index !1835
  %102 = load double* %x_r, align 8, !llfi_index !1836
  %103 = load double* %tau_r, align 8, !llfi_index !1837
  %104 = fsub double %102, %103, !llfi_index !1838
  %105 = load i64* %j, align 8, !llfi_index !1839
  %106 = mul nsw i64 2, %105, !llfi_index !1840
  %107 = load double** %x2, align 8, !llfi_index !1841
  %108 = getelementptr inbounds double* %107, i64 %106, !llfi_index !1842
  store double %104, double* %108, align 8, !llfi_index !1843
  %109 = load double* %x_c, align 8, !llfi_index !1844
  %110 = load double* %tau_c, align 8, !llfi_index !1845
  %111 = fsub double %109, %110, !llfi_index !1846
  %112 = load i64* %j, align 8, !llfi_index !1847
  %113 = mul nsw i64 2, %112, !llfi_index !1848
  %114 = add nsw i64 %113, 1, !llfi_index !1849
  %115 = load double** %x2, align 8, !llfi_index !1850
  %116 = getelementptr inbounds double* %115, i64 %114, !llfi_index !1851
  store double %111, double* %116, align 8, !llfi_index !1852
  %117 = load double* %x_r, align 8, !llfi_index !1853
  %118 = load double* %tau_r, align 8, !llfi_index !1854
  %119 = fadd double %117, %118, !llfi_index !1855
  %120 = load i64* %j, align 8, !llfi_index !1856
  %121 = mul nsw i64 2, %120, !llfi_index !1857
  %122 = load double** %x1, align 8, !llfi_index !1858
  %123 = getelementptr inbounds double* %122, i64 %121, !llfi_index !1859
  store double %119, double* %123, align 8, !llfi_index !1860
  %124 = load double* %x_c, align 8, !llfi_index !1861
  %125 = load double* %tau_c, align 8, !llfi_index !1862
  %126 = fadd double %124, %125, !llfi_index !1863
  %127 = load i64* %j, align 8, !llfi_index !1864
  %128 = mul nsw i64 2, %127, !llfi_index !1865
  %129 = add nsw i64 %128, 1, !llfi_index !1866
  %130 = load double** %x1, align 8, !llfi_index !1867
  %131 = getelementptr inbounds double* %130, i64 %129, !llfi_index !1868
  store double %126, double* %131, align 8, !llfi_index !1869
  br label %132, !llfi_index !1870

; <label>:132                                     ; preds = %51
  %133 = load i64* %j, align 8, !llfi_index !1871
  %134 = add nsw i64 %133, 1, !llfi_index !1872
  store i64 %134, i64* %j, align 8, !llfi_index !1873
  br label %47, !llfi_index !1874

; <label>:135                                     ; preds = %47
  br label %136, !llfi_index !1875

; <label>:136                                     ; preds = %135
  %137 = load i64* %k, align 8, !llfi_index !1876
  %138 = add nsw i64 %137, 1, !llfi_index !1877
  store i64 %138, i64* %k, align 8, !llfi_index !1878
  br label %28, !llfi_index !1879

; <label>:139                                     ; preds = %28
  br label %140, !llfi_index !1880

; <label>:140                                     ; preds = %139
  %141 = load i64* %q, align 8, !llfi_index !1881
  %142 = add nsw i64 %141, 1, !llfi_index !1882
  store i64 %142, i64* %q, align 8, !llfi_index !1883
  br label %9, !llfi_index !1884

; <label>:143                                     ; preds = %9
  ret void, !llfi_index !1885
}

; Function Attrs: nounwind uwtable
define void @_Z13TwiddleOneCollllPdS_l(i64 %direction, i64 %n1, i64 %j, double* %u, double* %x, i64 %pad_length) #4 {
  %1 = alloca i64, align 8, !llfi_index !1886
  %2 = alloca i64, align 8, !llfi_index !1887
  %3 = alloca i64, align 8, !llfi_index !1888
  %4 = alloca double*, align 8, !llfi_index !1889
  %5 = alloca double*, align 8, !llfi_index !1890
  %6 = alloca i64, align 8, !llfi_index !1891
  %i = alloca i64, align 8, !llfi_index !1892
  %omega_r = alloca double, align 8, !llfi_index !1893
  %omega_c = alloca double, align 8, !llfi_index !1894
  %x_r = alloca double, align 8, !llfi_index !1895
  %x_c = alloca double, align 8, !llfi_index !1896
  store i64 %direction, i64* %1, align 8, !llfi_index !1897
  store i64 %n1, i64* %2, align 8, !llfi_index !1898
  store i64 %j, i64* %3, align 8, !llfi_index !1899
  store double* %u, double** %4, align 8, !llfi_index !1900
  store double* %x, double** %5, align 8, !llfi_index !1901
  store i64 %pad_length, i64* %6, align 8, !llfi_index !1902
  store i64 0, i64* %i, align 8, !llfi_index !1903
  br label %7, !llfi_index !1904

; <label>:7                                       ; preds = %72, %0
  %8 = load i64* %i, align 8, !llfi_index !1905
  %9 = load i64* %2, align 8, !llfi_index !1906
  %10 = icmp slt i64 %8, %9, !llfi_index !1907
  br i1 %10, label %11, label %75, !llfi_index !1908

; <label>:11                                      ; preds = %7
  %12 = load i64* %3, align 8, !llfi_index !1909
  %13 = load i64* %2, align 8, !llfi_index !1910
  %14 = load i64* %6, align 8, !llfi_index !1911
  %15 = add nsw i64 %13, %14, !llfi_index !1912
  %16 = mul nsw i64 %12, %15, !llfi_index !1913
  %17 = load i64* %i, align 8, !llfi_index !1914
  %18 = add nsw i64 %16, %17, !llfi_index !1915
  %19 = mul nsw i64 2, %18, !llfi_index !1916
  %20 = load double** %4, align 8, !llfi_index !1917
  %21 = getelementptr inbounds double* %20, i64 %19, !llfi_index !1918
  %22 = load double* %21, align 8, !llfi_index !1919
  store double %22, double* %omega_r, align 8, !llfi_index !1920
  %23 = load i64* %1, align 8, !llfi_index !1921
  %24 = sitofp i64 %23 to double, !llfi_index !1922
  %25 = load i64* %3, align 8, !llfi_index !1923
  %26 = load i64* %2, align 8, !llfi_index !1924
  %27 = load i64* %6, align 8, !llfi_index !1925
  %28 = add nsw i64 %26, %27, !llfi_index !1926
  %29 = mul nsw i64 %25, %28, !llfi_index !1927
  %30 = load i64* %i, align 8, !llfi_index !1928
  %31 = add nsw i64 %29, %30, !llfi_index !1929
  %32 = mul nsw i64 2, %31, !llfi_index !1930
  %33 = add nsw i64 %32, 1, !llfi_index !1931
  %34 = load double** %4, align 8, !llfi_index !1932
  %35 = getelementptr inbounds double* %34, i64 %33, !llfi_index !1933
  %36 = load double* %35, align 8, !llfi_index !1934
  %37 = fmul double %24, %36, !llfi_index !1935
  store double %37, double* %omega_c, align 8, !llfi_index !1936
  %38 = load i64* %i, align 8, !llfi_index !1937
  %39 = mul nsw i64 2, %38, !llfi_index !1938
  %40 = load double** %5, align 8, !llfi_index !1939
  %41 = getelementptr inbounds double* %40, i64 %39, !llfi_index !1940
  %42 = load double* %41, align 8, !llfi_index !1941
  store double %42, double* %x_r, align 8, !llfi_index !1942
  %43 = load i64* %i, align 8, !llfi_index !1943
  %44 = mul nsw i64 2, %43, !llfi_index !1944
  %45 = add nsw i64 %44, 1, !llfi_index !1945
  %46 = load double** %5, align 8, !llfi_index !1946
  %47 = getelementptr inbounds double* %46, i64 %45, !llfi_index !1947
  %48 = load double* %47, align 8, !llfi_index !1948
  store double %48, double* %x_c, align 8, !llfi_index !1949
  %49 = load double* %omega_r, align 8, !llfi_index !1950
  %50 = load double* %x_r, align 8, !llfi_index !1951
  %51 = fmul double %49, %50, !llfi_index !1952
  %52 = load double* %omega_c, align 8, !llfi_index !1953
  %53 = load double* %x_c, align 8, !llfi_index !1954
  %54 = fmul double %52, %53, !llfi_index !1955
  %55 = fsub double %51, %54, !llfi_index !1956
  %56 = load i64* %i, align 8, !llfi_index !1957
  %57 = mul nsw i64 2, %56, !llfi_index !1958
  %58 = load double** %5, align 8, !llfi_index !1959
  %59 = getelementptr inbounds double* %58, i64 %57, !llfi_index !1960
  store double %55, double* %59, align 8, !llfi_index !1961
  %60 = load double* %omega_r, align 8, !llfi_index !1962
  %61 = load double* %x_c, align 8, !llfi_index !1963
  %62 = fmul double %60, %61, !llfi_index !1964
  %63 = load double* %omega_c, align 8, !llfi_index !1965
  %64 = load double* %x_r, align 8, !llfi_index !1966
  %65 = fmul double %63, %64, !llfi_index !1967
  %66 = fadd double %62, %65, !llfi_index !1968
  %67 = load i64* %i, align 8, !llfi_index !1969
  %68 = mul nsw i64 2, %67, !llfi_index !1970
  %69 = add nsw i64 %68, 1, !llfi_index !1971
  %70 = load double** %5, align 8, !llfi_index !1972
  %71 = getelementptr inbounds double* %70, i64 %69, !llfi_index !1973
  store double %66, double* %71, align 8, !llfi_index !1974
  br label %72, !llfi_index !1975

; <label>:72                                      ; preds = %11
  %73 = load i64* %i, align 8, !llfi_index !1976
  %74 = add nsw i64 %73, 1, !llfi_index !1977
  store i64 %74, i64* %i, align 8, !llfi_index !1978
  br label %7, !llfi_index !1979

; <label>:75                                      ; preds = %7
  ret void, !llfi_index !1980
}

; Function Attrs: nounwind uwtable
define void @_Z5ScalellPd(i64 %n1, i64 %N, double* %x) #4 {
  %1 = alloca i64, align 8, !llfi_index !1981
  %2 = alloca i64, align 8, !llfi_index !1982
  %3 = alloca double*, align 8, !llfi_index !1983
  %i = alloca i64, align 8, !llfi_index !1984
  store i64 %n1, i64* %1, align 8, !llfi_index !1985
  store i64 %N, i64* %2, align 8, !llfi_index !1986
  store double* %x, double** %3, align 8, !llfi_index !1987
  store i64 0, i64* %i, align 8, !llfi_index !1988
  br label %4, !llfi_index !1989

; <label>:4                                       ; preds = %26, %0
  %5 = load i64* %i, align 8, !llfi_index !1990
  %6 = load i64* %1, align 8, !llfi_index !1991
  %7 = icmp slt i64 %5, %6, !llfi_index !1992
  br i1 %7, label %8, label %29, !llfi_index !1993

; <label>:8                                       ; preds = %4
  %9 = load i64* %2, align 8, !llfi_index !1994
  %10 = sitofp i64 %9 to double, !llfi_index !1995
  %11 = load i64* %i, align 8, !llfi_index !1996
  %12 = mul nsw i64 2, %11, !llfi_index !1997
  %13 = load double** %3, align 8, !llfi_index !1998
  %14 = getelementptr inbounds double* %13, i64 %12, !llfi_index !1999
  %15 = load double* %14, align 8, !llfi_index !2000
  %16 = fdiv double %15, %10, !llfi_index !2001
  store double %16, double* %14, align 8, !llfi_index !2002
  %17 = load i64* %2, align 8, !llfi_index !2003
  %18 = sitofp i64 %17 to double, !llfi_index !2004
  %19 = load i64* %i, align 8, !llfi_index !2005
  %20 = mul nsw i64 2, %19, !llfi_index !2006
  %21 = add nsw i64 %20, 1, !llfi_index !2007
  %22 = load double** %3, align 8, !llfi_index !2008
  %23 = getelementptr inbounds double* %22, i64 %21, !llfi_index !2009
  %24 = load double* %23, align 8, !llfi_index !2010
  %25 = fdiv double %24, %18, !llfi_index !2011
  store double %25, double* %23, align 8, !llfi_index !2012
  br label %26, !llfi_index !2013

; <label>:26                                      ; preds = %8
  %27 = load i64* %i, align 8, !llfi_index !2014
  %28 = add nsw i64 %27, 1, !llfi_index !2015
  store i64 %28, i64* %i, align 8, !llfi_index !2016
  br label %4, !llfi_index !2017

; <label>:29                                      ; preds = %4
  ret void, !llfi_index !2018
}

; Function Attrs: nounwind uwtable
define void @_Z10CopyColumnlPdS_(i64 %n1, double* %src, double* %dest) #4 {
  %1 = alloca i64, align 8, !llfi_index !2019
  %2 = alloca double*, align 8, !llfi_index !2020
  %3 = alloca double*, align 8, !llfi_index !2021
  %i = alloca i64, align 8, !llfi_index !2022
  store i64 %n1, i64* %1, align 8, !llfi_index !2023
  store double* %src, double** %2, align 8, !llfi_index !2024
  store double* %dest, double** %3, align 8, !llfi_index !2025
  store i64 0, i64* %i, align 8, !llfi_index !2026
  br label %4, !llfi_index !2027

; <label>:4                                       ; preds = %29, %0
  %5 = load i64* %i, align 8, !llfi_index !2028
  %6 = load i64* %1, align 8, !llfi_index !2029
  %7 = icmp slt i64 %5, %6, !llfi_index !2030
  br i1 %7, label %8, label %32, !llfi_index !2031

; <label>:8                                       ; preds = %4
  %9 = load i64* %i, align 8, !llfi_index !2032
  %10 = mul nsw i64 2, %9, !llfi_index !2033
  %11 = load double** %2, align 8, !llfi_index !2034
  %12 = getelementptr inbounds double* %11, i64 %10, !llfi_index !2035
  %13 = load double* %12, align 8, !llfi_index !2036
  %14 = load i64* %i, align 8, !llfi_index !2037
  %15 = mul nsw i64 2, %14, !llfi_index !2038
  %16 = load double** %3, align 8, !llfi_index !2039
  %17 = getelementptr inbounds double* %16, i64 %15, !llfi_index !2040
  store double %13, double* %17, align 8, !llfi_index !2041
  %18 = load i64* %i, align 8, !llfi_index !2042
  %19 = mul nsw i64 2, %18, !llfi_index !2043
  %20 = add nsw i64 %19, 1, !llfi_index !2044
  %21 = load double** %2, align 8, !llfi_index !2045
  %22 = getelementptr inbounds double* %21, i64 %20, !llfi_index !2046
  %23 = load double* %22, align 8, !llfi_index !2047
  %24 = load i64* %i, align 8, !llfi_index !2048
  %25 = mul nsw i64 2, %24, !llfi_index !2049
  %26 = add nsw i64 %25, 1, !llfi_index !2050
  %27 = load double** %3, align 8, !llfi_index !2051
  %28 = getelementptr inbounds double* %27, i64 %26, !llfi_index !2052
  store double %23, double* %28, align 8, !llfi_index !2053
  br label %29, !llfi_index !2054

; <label>:29                                      ; preds = %8
  %30 = load i64* %i, align 8, !llfi_index !2055
  %31 = add nsw i64 %30, 1, !llfi_index !2056
  store i64 %31, i64* %i, align 8, !llfi_index !2057
  br label %4, !llfi_index !2058

; <label>:32                                      ; preds = %4
  ret void, !llfi_index !2059
}

; Function Attrs: nounwind uwtable
define void @_Z7ReversellPd(i64 %N, i64 %M, double* %x) #4 {
  %1 = alloca i64, align 8, !llfi_index !2060
  %2 = alloca i64, align 8, !llfi_index !2061
  %3 = alloca double*, align 8, !llfi_index !2062
  %j = alloca i64, align 8, !llfi_index !2063
  %k = alloca i64, align 8, !llfi_index !2064
  %tmp = alloca double, align 8, !llfi_index !2065
  %tmp1 = alloca double, align 8, !llfi_index !2066
  store i64 %N, i64* %1, align 8, !llfi_index !2067
  store i64 %M, i64* %2, align 8, !llfi_index !2068
  store double* %x, double** %3, align 8, !llfi_index !2069
  store i64 0, i64* %k, align 8, !llfi_index !2070
  br label %4, !llfi_index !2071

; <label>:4                                       ; preds = %59, %0
  %5 = load i64* %k, align 8, !llfi_index !2072
  %6 = load i64* %1, align 8, !llfi_index !2073
  %7 = icmp slt i64 %5, %6, !llfi_index !2074
  br i1 %7, label %8, label %62, !llfi_index !2075

; <label>:8                                       ; preds = %4
  %9 = load i64* %2, align 8, !llfi_index !2076
  %10 = load i64* %k, align 8, !llfi_index !2077
  %11 = call i64 @_Z10BitReversell(i64 %9, i64 %10), !llfi_index !2078
  store i64 %11, i64* %j, align 8, !llfi_index !2079
  %12 = load i64* %j, align 8, !llfi_index !2080
  %13 = load i64* %k, align 8, !llfi_index !2081
  %14 = icmp sgt i64 %12, %13, !llfi_index !2082
  br i1 %14, label %15, label %58, !llfi_index !2083

; <label>:15                                      ; preds = %8
  %16 = load i64* %j, align 8, !llfi_index !2084
  %17 = mul nsw i64 2, %16, !llfi_index !2085
  %18 = load double** %3, align 8, !llfi_index !2086
  %19 = getelementptr inbounds double* %18, i64 %17, !llfi_index !2087
  %20 = load double* %19, align 8, !llfi_index !2088
  store double %20, double* %tmp, align 8, !llfi_index !2089
  %21 = load i64* %k, align 8, !llfi_index !2090
  %22 = mul nsw i64 2, %21, !llfi_index !2091
  %23 = load double** %3, align 8, !llfi_index !2092
  %24 = getelementptr inbounds double* %23, i64 %22, !llfi_index !2093
  %25 = load double* %24, align 8, !llfi_index !2094
  %26 = load i64* %j, align 8, !llfi_index !2095
  %27 = mul nsw i64 2, %26, !llfi_index !2096
  %28 = load double** %3, align 8, !llfi_index !2097
  %29 = getelementptr inbounds double* %28, i64 %27, !llfi_index !2098
  store double %25, double* %29, align 8, !llfi_index !2099
  %30 = load double* %tmp, align 8, !llfi_index !2100
  %31 = load i64* %k, align 8, !llfi_index !2101
  %32 = mul nsw i64 2, %31, !llfi_index !2102
  %33 = load double** %3, align 8, !llfi_index !2103
  %34 = getelementptr inbounds double* %33, i64 %32, !llfi_index !2104
  store double %30, double* %34, align 8, !llfi_index !2105
  %35 = load i64* %j, align 8, !llfi_index !2106
  %36 = mul nsw i64 2, %35, !llfi_index !2107
  %37 = add nsw i64 %36, 1, !llfi_index !2108
  %38 = load double** %3, align 8, !llfi_index !2109
  %39 = getelementptr inbounds double* %38, i64 %37, !llfi_index !2110
  %40 = load double* %39, align 8, !llfi_index !2111
  store double %40, double* %tmp1, align 8, !llfi_index !2112
  %41 = load i64* %k, align 8, !llfi_index !2113
  %42 = mul nsw i64 2, %41, !llfi_index !2114
  %43 = add nsw i64 %42, 1, !llfi_index !2115
  %44 = load double** %3, align 8, !llfi_index !2116
  %45 = getelementptr inbounds double* %44, i64 %43, !llfi_index !2117
  %46 = load double* %45, align 8, !llfi_index !2118
  %47 = load i64* %j, align 8, !llfi_index !2119
  %48 = mul nsw i64 2, %47, !llfi_index !2120
  %49 = add nsw i64 %48, 1, !llfi_index !2121
  %50 = load double** %3, align 8, !llfi_index !2122
  %51 = getelementptr inbounds double* %50, i64 %49, !llfi_index !2123
  store double %46, double* %51, align 8, !llfi_index !2124
  %52 = load double* %tmp1, align 8, !llfi_index !2125
  %53 = load i64* %k, align 8, !llfi_index !2126
  %54 = mul nsw i64 2, %53, !llfi_index !2127
  %55 = add nsw i64 %54, 1, !llfi_index !2128
  %56 = load double** %3, align 8, !llfi_index !2129
  %57 = getelementptr inbounds double* %56, i64 %55, !llfi_index !2130
  store double %52, double* %57, align 8, !llfi_index !2131
  br label %58, !llfi_index !2132

; <label>:58                                      ; preds = %15, %8
  br label %59, !llfi_index !2133

; <label>:59                                      ; preds = %58
  %60 = load i64* %k, align 8, !llfi_index !2134
  %61 = add nsw i64 %60, 1, !llfi_index !2135
  store i64 %61, i64* %k, align 8, !llfi_index !2136
  br label %4, !llfi_index !2137

; <label>:62                                      ; preds = %4
  ret void, !llfi_index !2138
}

attributes #0 = { uwtable "less-precise-fpmad"="false" "no-frame-pointer-elim"="true" "no-frame-pointer-elim-non-leaf" "no-infs-fp-math"="false" "no-nans-fp-math"="false" "stack-protector-buffer-size"="8" "unsafe-fp-math"="false" "use-soft-float"="false" }
attributes #1 = { nounwind "less-precise-fpmad"="false" "no-frame-pointer-elim"="true" "no-frame-pointer-elim-non-leaf" "no-infs-fp-math"="false" "no-nans-fp-math"="false" "stack-protector-buffer-size"="8" "unsafe-fp-math"="false" "use-soft-float"="false" }
attributes #2 = { nounwind readonly "less-precise-fpmad"="false" "no-frame-pointer-elim"="true" "no-frame-pointer-elim-non-leaf" "no-infs-fp-math"="false" "no-nans-fp-math"="false" "stack-protector-buffer-size"="8" "unsafe-fp-math"="false" "use-soft-float"="false" }
attributes #3 = { noreturn nounwind "less-precise-fpmad"="false" "no-frame-pointer-elim"="true" "no-frame-pointer-elim-non-leaf" "no-infs-fp-math"="false" "no-nans-fp-math"="false" "stack-protector-buffer-size"="8" "unsafe-fp-math"="false" "use-soft-float"="false" }
attributes #4 = { nounwind uwtable "less-precise-fpmad"="false" "no-frame-pointer-elim"="true" "no-frame-pointer-elim-non-leaf" "no-infs-fp-math"="false" "no-nans-fp-math"="false" "stack-protector-buffer-size"="8" "unsafe-fp-math"="false" "use-soft-float"="false" }
attributes #5 = { "less-precise-fpmad"="false" "no-frame-pointer-elim"="true" "no-frame-pointer-elim-non-leaf" "no-infs-fp-math"="false" "no-nans-fp-math"="false" "stack-protector-buffer-size"="8" "unsafe-fp-math"="false" "use-soft-float"="false" }
attributes #6 = { nounwind readnone "less-precise-fpmad"="false" "no-frame-pointer-elim"="true" "no-frame-pointer-elim-non-leaf" "no-infs-fp-math"="false" "no-nans-fp-math"="false" "stack-protector-buffer-size"="8" "unsafe-fp-math"="false" "use-soft-float"="false" }
attributes #7 = { nounwind }
attributes #8 = { nounwind readonly }
attributes #9 = { noreturn nounwind }
attributes #10 = { nounwind readnone }

!llvm.ident = !{!0}

!0 = metadata !{metadata !"clang version 3.4 (tags/RELEASE_34/final)"}
!1 = metadata !{i64 1}
!2 = metadata !{i64 2}
!3 = metadata !{i64 3}
!4 = metadata !{i64 4}
!5 = metadata !{i64 5}
!6 = metadata !{i64 6}
!7 = metadata !{i64 7}
!8 = metadata !{i64 8}
!9 = metadata !{i64 9}
!10 = metadata !{i64 10}
!11 = metadata !{i64 11}
!12 = metadata !{i64 12}
!13 = metadata !{i64 13}
!14 = metadata !{i64 14}
!15 = metadata !{i64 15}
!16 = metadata !{i64 16}
!17 = metadata !{i64 17}
!18 = metadata !{i64 18}
!19 = metadata !{i64 19}
!20 = metadata !{i64 20}
!21 = metadata !{i64 21}
!22 = metadata !{i64 22}
!23 = metadata !{i64 23}
!24 = metadata !{i64 24}
!25 = metadata !{i64 25}
!26 = metadata !{i64 26}
!27 = metadata !{i64 27}
!28 = metadata !{i64 28}
!29 = metadata !{i64 29}
!30 = metadata !{i64 30}
!31 = metadata !{i64 31}
!32 = metadata !{i64 32}
!33 = metadata !{i64 33}
!34 = metadata !{i64 34}
!35 = metadata !{i64 35}
!36 = metadata !{i64 36}
!37 = metadata !{i64 37}
!38 = metadata !{i64 38}
!39 = metadata !{i64 39}
!40 = metadata !{i64 40}
!41 = metadata !{i64 41}
!42 = metadata !{i64 42}
!43 = metadata !{i64 43}
!44 = metadata !{i64 44}
!45 = metadata !{i64 45}
!46 = metadata !{i64 46}
!47 = metadata !{i64 47}
!48 = metadata !{i64 48}
!49 = metadata !{i64 49}
!50 = metadata !{i64 50}
!51 = metadata !{i64 51}
!52 = metadata !{i64 52}
!53 = metadata !{i64 53}
!54 = metadata !{i64 54}
!55 = metadata !{i64 55}
!56 = metadata !{i64 56}
!57 = metadata !{i64 57}
!58 = metadata !{i64 58}
!59 = metadata !{i64 59}
!60 = metadata !{i64 60}
!61 = metadata !{i64 61}
!62 = metadata !{i64 62}
!63 = metadata !{i64 63}
!64 = metadata !{i64 64}
!65 = metadata !{i64 65}
!66 = metadata !{i64 66}
!67 = metadata !{i64 67}
!68 = metadata !{i64 68}
!69 = metadata !{i64 69}
!70 = metadata !{i64 70}
!71 = metadata !{i64 71}
!72 = metadata !{i64 72}
!73 = metadata !{i64 73}
!74 = metadata !{i64 74}
!75 = metadata !{i64 75}
!76 = metadata !{i64 76}
!77 = metadata !{i64 77}
!78 = metadata !{i64 78}
!79 = metadata !{i64 79}
!80 = metadata !{i64 80}
!81 = metadata !{i64 81}
!82 = metadata !{i64 82}
!83 = metadata !{i64 83}
!84 = metadata !{i64 84}
!85 = metadata !{i64 85}
!86 = metadata !{i64 86}
!87 = metadata !{i64 87}
!88 = metadata !{i64 88}
!89 = metadata !{i64 89}
!90 = metadata !{i64 90}
!91 = metadata !{i64 91}
!92 = metadata !{i64 92}
!93 = metadata !{i64 93}
!94 = metadata !{i64 94}
!95 = metadata !{i64 95}
!96 = metadata !{i64 96}
!97 = metadata !{i64 97}
!98 = metadata !{i64 98}
!99 = metadata !{i64 99}
!100 = metadata !{i64 100}
!101 = metadata !{i64 101}
!102 = metadata !{i64 102}
!103 = metadata !{i64 103}
!104 = metadata !{i64 104}
!105 = metadata !{i64 105}
!106 = metadata !{i64 106}
!107 = metadata !{i64 107}
!108 = metadata !{i64 108}
!109 = metadata !{i64 109}
!110 = metadata !{i64 110}
!111 = metadata !{i64 111}
!112 = metadata !{i64 112}
!113 = metadata !{i64 113}
!114 = metadata !{i64 114}
!115 = metadata !{i64 115}
!116 = metadata !{i64 116}
!117 = metadata !{i64 117}
!118 = metadata !{i64 118}
!119 = metadata !{i64 119}
!120 = metadata !{i64 120}
!121 = metadata !{i64 121}
!122 = metadata !{i64 122}
!123 = metadata !{i64 123}
!124 = metadata !{i64 124}
!125 = metadata !{i64 125}
!126 = metadata !{i64 126}
!127 = metadata !{i64 127}
!128 = metadata !{i64 128}
!129 = metadata !{i64 129}
!130 = metadata !{i64 130}
!131 = metadata !{i64 131}
!132 = metadata !{i64 132}
!133 = metadata !{i64 133}
!134 = metadata !{i64 134}
!135 = metadata !{i64 135}
!136 = metadata !{i64 136}
!137 = metadata !{i64 137}
!138 = metadata !{i64 138}
!139 = metadata !{i64 139}
!140 = metadata !{i64 140}
!141 = metadata !{i64 141}
!142 = metadata !{i64 142}
!143 = metadata !{i64 143}
!144 = metadata !{i64 144}
!145 = metadata !{i64 145}
!146 = metadata !{i64 146}
!147 = metadata !{i64 147}
!148 = metadata !{i64 148}
!149 = metadata !{i64 149}
!150 = metadata !{i64 150}
!151 = metadata !{i64 151}
!152 = metadata !{i64 152}
!153 = metadata !{i64 153}
!154 = metadata !{i64 154}
!155 = metadata !{i64 155}
!156 = metadata !{i64 156}
!157 = metadata !{i64 157}
!158 = metadata !{i64 158}
!159 = metadata !{i64 159}
!160 = metadata !{i64 160}
!161 = metadata !{i64 161}
!162 = metadata !{i64 162}
!163 = metadata !{i64 163}
!164 = metadata !{i64 164}
!165 = metadata !{i64 165}
!166 = metadata !{i64 166}
!167 = metadata !{i64 167}
!168 = metadata !{i64 168}
!169 = metadata !{i64 169}
!170 = metadata !{i64 170}
!171 = metadata !{i64 171}
!172 = metadata !{i64 172}
!173 = metadata !{i64 173}
!174 = metadata !{i64 174}
!175 = metadata !{i64 175}
!176 = metadata !{i64 176}
!177 = metadata !{i64 177}
!178 = metadata !{i64 178}
!179 = metadata !{i64 179}
!180 = metadata !{i64 180}
!181 = metadata !{i64 181}
!182 = metadata !{i64 182}
!183 = metadata !{i64 183}
!184 = metadata !{i64 184}
!185 = metadata !{i64 185}
!186 = metadata !{i64 186}
!187 = metadata !{i64 187}
!188 = metadata !{i64 188}
!189 = metadata !{i64 189}
!190 = metadata !{i64 190}
!191 = metadata !{i64 191}
!192 = metadata !{i64 192}
!193 = metadata !{i64 193}
!194 = metadata !{i64 194}
!195 = metadata !{i64 195}
!196 = metadata !{i64 196}
!197 = metadata !{i64 197}
!198 = metadata !{i64 198}
!199 = metadata !{i64 199}
!200 = metadata !{i64 200}
!201 = metadata !{i64 201}
!202 = metadata !{i64 202}
!203 = metadata !{i64 203}
!204 = metadata !{i64 204}
!205 = metadata !{i64 205}
!206 = metadata !{i64 206}
!207 = metadata !{i64 207}
!208 = metadata !{i64 208}
!209 = metadata !{i64 209}
!210 = metadata !{i64 210}
!211 = metadata !{i64 211}
!212 = metadata !{i64 212}
!213 = metadata !{i64 213}
!214 = metadata !{i64 214}
!215 = metadata !{i64 215}
!216 = metadata !{i64 216}
!217 = metadata !{i64 217}
!218 = metadata !{i64 218}
!219 = metadata !{i64 219}
!220 = metadata !{i64 220}
!221 = metadata !{i64 221}
!222 = metadata !{i64 222}
!223 = metadata !{i64 223}
!224 = metadata !{i64 224}
!225 = metadata !{i64 225}
!226 = metadata !{i64 226}
!227 = metadata !{i64 227}
!228 = metadata !{i64 228}
!229 = metadata !{i64 229}
!230 = metadata !{i64 230}
!231 = metadata !{i64 231}
!232 = metadata !{i64 232}
!233 = metadata !{i64 233}
!234 = metadata !{i64 234}
!235 = metadata !{i64 235}
!236 = metadata !{i64 236}
!237 = metadata !{i64 237}
!238 = metadata !{i64 238}
!239 = metadata !{i64 239}
!240 = metadata !{i64 240}
!241 = metadata !{i64 241}
!242 = metadata !{i64 242}
!243 = metadata !{i64 243}
!244 = metadata !{i64 244}
!245 = metadata !{i64 245}
!246 = metadata !{i64 246}
!247 = metadata !{i64 247}
!248 = metadata !{i64 248}
!249 = metadata !{i64 249}
!250 = metadata !{i64 250}
!251 = metadata !{i64 251}
!252 = metadata !{i64 252}
!253 = metadata !{i64 253}
!254 = metadata !{i64 254}
!255 = metadata !{i64 255}
!256 = metadata !{i64 256}
!257 = metadata !{i64 257}
!258 = metadata !{i64 258}
!259 = metadata !{i64 259}
!260 = metadata !{i64 260}
!261 = metadata !{i64 261}
!262 = metadata !{i64 262}
!263 = metadata !{i64 263}
!264 = metadata !{i64 264}
!265 = metadata !{i64 265}
!266 = metadata !{i64 266}
!267 = metadata !{i64 267}
!268 = metadata !{i64 268}
!269 = metadata !{i64 269}
!270 = metadata !{i64 270}
!271 = metadata !{i64 271}
!272 = metadata !{i64 272}
!273 = metadata !{i64 273}
!274 = metadata !{i64 274}
!275 = metadata !{i64 275}
!276 = metadata !{i64 276}
!277 = metadata !{i64 277}
!278 = metadata !{i64 278}
!279 = metadata !{i64 279}
!280 = metadata !{i64 280}
!281 = metadata !{i64 281}
!282 = metadata !{i64 282}
!283 = metadata !{i64 283}
!284 = metadata !{i64 284}
!285 = metadata !{i64 285}
!286 = metadata !{i64 286}
!287 = metadata !{i64 287}
!288 = metadata !{i64 288}
!289 = metadata !{i64 289}
!290 = metadata !{i64 290}
!291 = metadata !{i64 291}
!292 = metadata !{i64 292}
!293 = metadata !{i64 293}
!294 = metadata !{i64 294}
!295 = metadata !{i64 295}
!296 = metadata !{i64 296}
!297 = metadata !{i64 297}
!298 = metadata !{i64 298}
!299 = metadata !{i64 299}
!300 = metadata !{i64 300}
!301 = metadata !{i64 301}
!302 = metadata !{i64 302}
!303 = metadata !{i64 303}
!304 = metadata !{i64 304}
!305 = metadata !{i64 305}
!306 = metadata !{i64 306}
!307 = metadata !{i64 307}
!308 = metadata !{i64 308}
!309 = metadata !{i64 309}
!310 = metadata !{i64 310}
!311 = metadata !{i64 311}
!312 = metadata !{i64 312}
!313 = metadata !{i64 313}
!314 = metadata !{i64 314}
!315 = metadata !{i64 315}
!316 = metadata !{i64 316}
!317 = metadata !{i64 317}
!318 = metadata !{i64 318}
!319 = metadata !{i64 319}
!320 = metadata !{i64 320}
!321 = metadata !{i64 321}
!322 = metadata !{i64 322}
!323 = metadata !{i64 323}
!324 = metadata !{i64 324}
!325 = metadata !{i64 325}
!326 = metadata !{i64 326}
!327 = metadata !{i64 327}
!328 = metadata !{i64 328}
!329 = metadata !{i64 329}
!330 = metadata !{i64 330}
!331 = metadata !{i64 331}
!332 = metadata !{i64 332}
!333 = metadata !{i64 333}
!334 = metadata !{i64 334}
!335 = metadata !{i64 335}
!336 = metadata !{i64 336}
!337 = metadata !{i64 337}
!338 = metadata !{i64 338}
!339 = metadata !{i64 339}
!340 = metadata !{i64 340}
!341 = metadata !{i64 341}
!342 = metadata !{i64 342}
!343 = metadata !{i64 343}
!344 = metadata !{i64 344}
!345 = metadata !{i64 345}
!346 = metadata !{i64 346}
!347 = metadata !{i64 347}
!348 = metadata !{i64 348}
!349 = metadata !{i64 349}
!350 = metadata !{i64 350}
!351 = metadata !{i64 351}
!352 = metadata !{i64 352}
!353 = metadata !{i64 353}
!354 = metadata !{i64 354}
!355 = metadata !{i64 355}
!356 = metadata !{i64 356}
!357 = metadata !{i64 357}
!358 = metadata !{i64 358}
!359 = metadata !{i64 359}
!360 = metadata !{i64 360}
!361 = metadata !{i64 361}
!362 = metadata !{i64 362}
!363 = metadata !{i64 363}
!364 = metadata !{i64 364}
!365 = metadata !{i64 365}
!366 = metadata !{i64 366}
!367 = metadata !{i64 367}
!368 = metadata !{i64 368}
!369 = metadata !{i64 369}
!370 = metadata !{i64 370}
!371 = metadata !{i64 371}
!372 = metadata !{i64 372}
!373 = metadata !{i64 373}
!374 = metadata !{i64 374}
!375 = metadata !{i64 375}
!376 = metadata !{i64 376}
!377 = metadata !{i64 377}
!378 = metadata !{i64 378}
!379 = metadata !{i64 379}
!380 = metadata !{i64 380}
!381 = metadata !{i64 381}
!382 = metadata !{i64 382}
!383 = metadata !{i64 383}
!384 = metadata !{i64 384}
!385 = metadata !{i64 385}
!386 = metadata !{i64 386}
!387 = metadata !{i64 387}
!388 = metadata !{i64 388}
!389 = metadata !{i64 389}
!390 = metadata !{i64 390}
!391 = metadata !{i64 391}
!392 = metadata !{i64 392}
!393 = metadata !{i64 393}
!394 = metadata !{i64 394}
!395 = metadata !{i64 395}
!396 = metadata !{i64 396}
!397 = metadata !{i64 397}
!398 = metadata !{i64 398}
!399 = metadata !{i64 399}
!400 = metadata !{i64 400}
!401 = metadata !{i64 401}
!402 = metadata !{i64 402}
!403 = metadata !{i64 403}
!404 = metadata !{i64 404}
!405 = metadata !{i64 405}
!406 = metadata !{i64 406}
!407 = metadata !{i64 407}
!408 = metadata !{i64 408}
!409 = metadata !{i64 409}
!410 = metadata !{i64 410}
!411 = metadata !{i64 411}
!412 = metadata !{i64 412}
!413 = metadata !{i64 413}
!414 = metadata !{i64 414}
!415 = metadata !{i64 415}
!416 = metadata !{i64 416}
!417 = metadata !{i64 417}
!418 = metadata !{i64 418}
!419 = metadata !{i64 419}
!420 = metadata !{i64 420}
!421 = metadata !{i64 421}
!422 = metadata !{i64 422}
!423 = metadata !{i64 423}
!424 = metadata !{i64 424}
!425 = metadata !{i64 425}
!426 = metadata !{i64 426}
!427 = metadata !{i64 427}
!428 = metadata !{i64 428}
!429 = metadata !{i64 429}
!430 = metadata !{i64 430}
!431 = metadata !{i64 431}
!432 = metadata !{i64 432}
!433 = metadata !{i64 433}
!434 = metadata !{i64 434}
!435 = metadata !{i64 435}
!436 = metadata !{i64 436}
!437 = metadata !{i64 437}
!438 = metadata !{i64 438}
!439 = metadata !{i64 439}
!440 = metadata !{i64 440}
!441 = metadata !{i64 441}
!442 = metadata !{i64 442}
!443 = metadata !{i64 443}
!444 = metadata !{i64 444}
!445 = metadata !{i64 445}
!446 = metadata !{i64 446}
!447 = metadata !{i64 447}
!448 = metadata !{i64 448}
!449 = metadata !{i64 449}
!450 = metadata !{i64 450}
!451 = metadata !{i64 451}
!452 = metadata !{i64 452}
!453 = metadata !{i64 453}
!454 = metadata !{i64 454}
!455 = metadata !{i64 455}
!456 = metadata !{i64 456}
!457 = metadata !{i64 457}
!458 = metadata !{i64 458}
!459 = metadata !{i64 459}
!460 = metadata !{i64 460}
!461 = metadata !{i64 461}
!462 = metadata !{i64 462}
!463 = metadata !{i64 463}
!464 = metadata !{i64 464}
!465 = metadata !{i64 465}
!466 = metadata !{i64 466}
!467 = metadata !{i64 467}
!468 = metadata !{i64 468}
!469 = metadata !{i64 469}
!470 = metadata !{i64 470}
!471 = metadata !{i64 471}
!472 = metadata !{i64 472}
!473 = metadata !{i64 473}
!474 = metadata !{i64 474}
!475 = metadata !{i64 475}
!476 = metadata !{i64 476}
!477 = metadata !{i64 477}
!478 = metadata !{i64 478}
!479 = metadata !{i64 479}
!480 = metadata !{i64 480}
!481 = metadata !{i64 481}
!482 = metadata !{i64 482}
!483 = metadata !{i64 483}
!484 = metadata !{i64 484}
!485 = metadata !{i64 485}
!486 = metadata !{i64 486}
!487 = metadata !{i64 487}
!488 = metadata !{i64 488}
!489 = metadata !{i64 489}
!490 = metadata !{i64 490}
!491 = metadata !{i64 491}
!492 = metadata !{i64 492}
!493 = metadata !{i64 493}
!494 = metadata !{i64 494}
!495 = metadata !{i64 495}
!496 = metadata !{i64 496}
!497 = metadata !{i64 497}
!498 = metadata !{i64 498}
!499 = metadata !{i64 499}
!500 = metadata !{i64 500}
!501 = metadata !{i64 501}
!502 = metadata !{i64 502}
!503 = metadata !{i64 503}
!504 = metadata !{i64 504}
!505 = metadata !{i64 505}
!506 = metadata !{i64 506}
!507 = metadata !{i64 507}
!508 = metadata !{i64 508}
!509 = metadata !{i64 509}
!510 = metadata !{i64 510}
!511 = metadata !{i64 511}
!512 = metadata !{i64 512}
!513 = metadata !{i64 513}
!514 = metadata !{i64 514}
!515 = metadata !{i64 515}
!516 = metadata !{i64 516}
!517 = metadata !{i64 517}
!518 = metadata !{i64 518}
!519 = metadata !{i64 519}
!520 = metadata !{i64 520}
!521 = metadata !{i64 521}
!522 = metadata !{i64 522}
!523 = metadata !{i64 523}
!524 = metadata !{i64 524}
!525 = metadata !{i64 525}
!526 = metadata !{i64 526}
!527 = metadata !{i64 527}
!528 = metadata !{i64 528}
!529 = metadata !{i64 529}
!530 = metadata !{i64 530}
!531 = metadata !{i64 531}
!532 = metadata !{i64 532}
!533 = metadata !{i64 533}
!534 = metadata !{i64 534}
!535 = metadata !{i64 535}
!536 = metadata !{i64 536}
!537 = metadata !{i64 537}
!538 = metadata !{i64 538}
!539 = metadata !{i64 539}
!540 = metadata !{i64 540}
!541 = metadata !{i64 541}
!542 = metadata !{i64 542}
!543 = metadata !{i64 543}
!544 = metadata !{i64 544}
!545 = metadata !{i64 545}
!546 = metadata !{i64 546}
!547 = metadata !{i64 547}
!548 = metadata !{i64 548}
!549 = metadata !{i64 549}
!550 = metadata !{i64 550}
!551 = metadata !{i64 551}
!552 = metadata !{i64 552}
!553 = metadata !{i64 553}
!554 = metadata !{i64 554}
!555 = metadata !{i64 555}
!556 = metadata !{i64 556}
!557 = metadata !{i64 557}
!558 = metadata !{i64 558}
!559 = metadata !{i64 559}
!560 = metadata !{i64 560}
!561 = metadata !{i64 561}
!562 = metadata !{i64 562}
!563 = metadata !{i64 563}
!564 = metadata !{i64 564}
!565 = metadata !{i64 565}
!566 = metadata !{i64 566}
!567 = metadata !{i64 567}
!568 = metadata !{i64 568}
!569 = metadata !{i64 569}
!570 = metadata !{i64 570}
!571 = metadata !{i64 571}
!572 = metadata !{i64 572}
!573 = metadata !{i64 573}
!574 = metadata !{i64 574}
!575 = metadata !{i64 575}
!576 = metadata !{i64 576}
!577 = metadata !{i64 577}
!578 = metadata !{i64 578}
!579 = metadata !{i64 579}
!580 = metadata !{i64 580}
!581 = metadata !{i64 581}
!582 = metadata !{i64 582}
!583 = metadata !{i64 583}
!584 = metadata !{i64 584}
!585 = metadata !{i64 585}
!586 = metadata !{i64 586}
!587 = metadata !{i64 587}
!588 = metadata !{i64 588}
!589 = metadata !{i64 589}
!590 = metadata !{i64 590}
!591 = metadata !{i64 591}
!592 = metadata !{i64 592}
!593 = metadata !{i64 593}
!594 = metadata !{i64 594}
!595 = metadata !{i64 595}
!596 = metadata !{i64 596}
!597 = metadata !{i64 597}
!598 = metadata !{i64 598}
!599 = metadata !{i64 599}
!600 = metadata !{i64 600}
!601 = metadata !{i64 601}
!602 = metadata !{i64 602}
!603 = metadata !{i64 603}
!604 = metadata !{i64 604}
!605 = metadata !{i64 605}
!606 = metadata !{i64 606}
!607 = metadata !{i64 607}
!608 = metadata !{i64 608}
!609 = metadata !{i64 609}
!610 = metadata !{i64 610}
!611 = metadata !{i64 611}
!612 = metadata !{i64 612}
!613 = metadata !{i64 613}
!614 = metadata !{i64 614}
!615 = metadata !{i64 615}
!616 = metadata !{i64 616}
!617 = metadata !{i64 617}
!618 = metadata !{i64 618}
!619 = metadata !{i64 619}
!620 = metadata !{i64 620}
!621 = metadata !{i64 621}
!622 = metadata !{i64 622}
!623 = metadata !{i64 623}
!624 = metadata !{i64 624}
!625 = metadata !{i64 625}
!626 = metadata !{i64 626}
!627 = metadata !{i64 627}
!628 = metadata !{i64 628}
!629 = metadata !{i64 629}
!630 = metadata !{i64 630}
!631 = metadata !{i64 631}
!632 = metadata !{i64 632}
!633 = metadata !{i64 633}
!634 = metadata !{i64 634}
!635 = metadata !{i64 635}
!636 = metadata !{i64 636}
!637 = metadata !{i64 637}
!638 = metadata !{i64 638}
!639 = metadata !{i64 639}
!640 = metadata !{i64 640}
!641 = metadata !{i64 641}
!642 = metadata !{i64 642}
!643 = metadata !{i64 643}
!644 = metadata !{i64 644}
!645 = metadata !{i64 645}
!646 = metadata !{i64 646}
!647 = metadata !{i64 647}
!648 = metadata !{i64 648}
!649 = metadata !{i64 649}
!650 = metadata !{i64 650}
!651 = metadata !{i64 651}
!652 = metadata !{i64 652}
!653 = metadata !{i64 653}
!654 = metadata !{i64 654}
!655 = metadata !{i64 655}
!656 = metadata !{i64 656}
!657 = metadata !{i64 657}
!658 = metadata !{i64 658}
!659 = metadata !{i64 659}
!660 = metadata !{i64 660}
!661 = metadata !{i64 661}
!662 = metadata !{i64 662}
!663 = metadata !{i64 663}
!664 = metadata !{i64 664}
!665 = metadata !{i64 665}
!666 = metadata !{i64 666}
!667 = metadata !{i64 667}
!668 = metadata !{i64 668}
!669 = metadata !{i64 669}
!670 = metadata !{i64 670}
!671 = metadata !{i64 671}
!672 = metadata !{i64 672}
!673 = metadata !{i64 673}
!674 = metadata !{i64 674}
!675 = metadata !{i64 675}
!676 = metadata !{i64 676}
!677 = metadata !{i64 677}
!678 = metadata !{i64 678}
!679 = metadata !{i64 679}
!680 = metadata !{i64 680}
!681 = metadata !{i64 681}
!682 = metadata !{i64 682}
!683 = metadata !{i64 683}
!684 = metadata !{i64 684}
!685 = metadata !{i64 685}
!686 = metadata !{i64 686}
!687 = metadata !{i64 687}
!688 = metadata !{i64 688}
!689 = metadata !{i64 689}
!690 = metadata !{i64 690}
!691 = metadata !{i64 691}
!692 = metadata !{i64 692}
!693 = metadata !{i64 693}
!694 = metadata !{i64 694}
!695 = metadata !{i64 695}
!696 = metadata !{i64 696}
!697 = metadata !{i64 697}
!698 = metadata !{i64 698}
!699 = metadata !{i64 699}
!700 = metadata !{i64 700}
!701 = metadata !{i64 701}
!702 = metadata !{i64 702}
!703 = metadata !{i64 703}
!704 = metadata !{i64 704}
!705 = metadata !{i64 705}
!706 = metadata !{i64 706}
!707 = metadata !{i64 707}
!708 = metadata !{i64 708}
!709 = metadata !{i64 709}
!710 = metadata !{i64 710}
!711 = metadata !{i64 711}
!712 = metadata !{i64 712}
!713 = metadata !{i64 713}
!714 = metadata !{i64 714}
!715 = metadata !{i64 715}
!716 = metadata !{i64 716}
!717 = metadata !{i64 717}
!718 = metadata !{i64 718}
!719 = metadata !{i64 719}
!720 = metadata !{i64 720}
!721 = metadata !{i64 721}
!722 = metadata !{i64 722}
!723 = metadata !{i64 723}
!724 = metadata !{i64 724}
!725 = metadata !{i64 725}
!726 = metadata !{i64 726}
!727 = metadata !{i64 727}
!728 = metadata !{i64 728}
!729 = metadata !{i64 729}
!730 = metadata !{i64 730}
!731 = metadata !{i64 731}
!732 = metadata !{i64 732}
!733 = metadata !{i64 733}
!734 = metadata !{i64 734}
!735 = metadata !{i64 735}
!736 = metadata !{i64 736}
!737 = metadata !{i64 737}
!738 = metadata !{i64 738}
!739 = metadata !{i64 739}
!740 = metadata !{i64 740}
!741 = metadata !{i64 741}
!742 = metadata !{i64 742}
!743 = metadata !{i64 743}
!744 = metadata !{i64 744}
!745 = metadata !{i64 745}
!746 = metadata !{i64 746}
!747 = metadata !{i64 747}
!748 = metadata !{i64 748}
!749 = metadata !{i64 749}
!750 = metadata !{i64 750}
!751 = metadata !{i64 751}
!752 = metadata !{i64 752}
!753 = metadata !{i64 753}
!754 = metadata !{i64 754}
!755 = metadata !{i64 755}
!756 = metadata !{i64 756}
!757 = metadata !{i64 757}
!758 = metadata !{i64 758}
!759 = metadata !{i64 759}
!760 = metadata !{i64 760}
!761 = metadata !{i64 761}
!762 = metadata !{i64 762}
!763 = metadata !{i64 763}
!764 = metadata !{i64 764}
!765 = metadata !{i64 765}
!766 = metadata !{i64 766}
!767 = metadata !{i64 767}
!768 = metadata !{i64 768}
!769 = metadata !{i64 769}
!770 = metadata !{i64 770}
!771 = metadata !{i64 771}
!772 = metadata !{i64 772}
!773 = metadata !{i64 773}
!774 = metadata !{i64 774}
!775 = metadata !{i64 775}
!776 = metadata !{i64 776}
!777 = metadata !{i64 777}
!778 = metadata !{i64 778}
!779 = metadata !{i64 779}
!780 = metadata !{i64 780}
!781 = metadata !{i64 781}
!782 = metadata !{i64 782}
!783 = metadata !{i64 783}
!784 = metadata !{i64 784}
!785 = metadata !{i64 785}
!786 = metadata !{i64 786}
!787 = metadata !{i64 787}
!788 = metadata !{i64 788}
!789 = metadata !{i64 789}
!790 = metadata !{i64 790}
!791 = metadata !{i64 791}
!792 = metadata !{i64 792}
!793 = metadata !{i64 793}
!794 = metadata !{i64 794}
!795 = metadata !{i64 795}
!796 = metadata !{i64 796}
!797 = metadata !{i64 797}
!798 = metadata !{i64 798}
!799 = metadata !{i64 799}
!800 = metadata !{i64 800}
!801 = metadata !{i64 801}
!802 = metadata !{i64 802}
!803 = metadata !{i64 803}
!804 = metadata !{i64 804}
!805 = metadata !{i64 805}
!806 = metadata !{i64 806}
!807 = metadata !{i64 807}
!808 = metadata !{i64 808}
!809 = metadata !{i64 809}
!810 = metadata !{i64 810}
!811 = metadata !{i64 811}
!812 = metadata !{i64 812}
!813 = metadata !{i64 813}
!814 = metadata !{i64 814}
!815 = metadata !{i64 815}
!816 = metadata !{i64 816}
!817 = metadata !{i64 817}
!818 = metadata !{i64 818}
!819 = metadata !{i64 819}
!820 = metadata !{i64 820}
!821 = metadata !{i64 821}
!822 = metadata !{i64 822}
!823 = metadata !{i64 823}
!824 = metadata !{i64 824}
!825 = metadata !{i64 825}
!826 = metadata !{i64 826}
!827 = metadata !{i64 827}
!828 = metadata !{i64 828}
!829 = metadata !{i64 829}
!830 = metadata !{i64 830}
!831 = metadata !{i64 831}
!832 = metadata !{i64 832}
!833 = metadata !{i64 833}
!834 = metadata !{i64 834}
!835 = metadata !{i64 835}
!836 = metadata !{i64 836}
!837 = metadata !{i64 837}
!838 = metadata !{i64 838}
!839 = metadata !{i64 839}
!840 = metadata !{i64 840}
!841 = metadata !{i64 841}
!842 = metadata !{i64 842}
!843 = metadata !{i64 843}
!844 = metadata !{i64 844}
!845 = metadata !{i64 845}
!846 = metadata !{i64 846}
!847 = metadata !{i64 847}
!848 = metadata !{i64 848}
!849 = metadata !{i64 849}
!850 = metadata !{i64 850}
!851 = metadata !{i64 851}
!852 = metadata !{i64 852}
!853 = metadata !{i64 853}
!854 = metadata !{i64 854}
!855 = metadata !{i64 855}
!856 = metadata !{i64 856}
!857 = metadata !{i64 857}
!858 = metadata !{i64 858}
!859 = metadata !{i64 859}
!860 = metadata !{i64 860}
!861 = metadata !{i64 861}
!862 = metadata !{i64 862}
!863 = metadata !{i64 863}
!864 = metadata !{i64 864}
!865 = metadata !{i64 865}
!866 = metadata !{i64 866}
!867 = metadata !{i64 867}
!868 = metadata !{i64 868}
!869 = metadata !{i64 869}
!870 = metadata !{i64 870}
!871 = metadata !{i64 871}
!872 = metadata !{i64 872}
!873 = metadata !{i64 873}
!874 = metadata !{i64 874}
!875 = metadata !{i64 875}
!876 = metadata !{i64 876}
!877 = metadata !{i64 877}
!878 = metadata !{i64 878}
!879 = metadata !{i64 879}
!880 = metadata !{i64 880}
!881 = metadata !{i64 881}
!882 = metadata !{i64 882}
!883 = metadata !{i64 883}
!884 = metadata !{i64 884}
!885 = metadata !{i64 885}
!886 = metadata !{i64 886}
!887 = metadata !{i64 887}
!888 = metadata !{i64 888}
!889 = metadata !{i64 889}
!890 = metadata !{i64 890}
!891 = metadata !{i64 891}
!892 = metadata !{i64 892}
!893 = metadata !{i64 893}
!894 = metadata !{i64 894}
!895 = metadata !{i64 895}
!896 = metadata !{i64 896}
!897 = metadata !{i64 897}
!898 = metadata !{i64 898}
!899 = metadata !{i64 899}
!900 = metadata !{i64 900}
!901 = metadata !{i64 901}
!902 = metadata !{i64 902}
!903 = metadata !{i64 903}
!904 = metadata !{i64 904}
!905 = metadata !{i64 905}
!906 = metadata !{i64 906}
!907 = metadata !{i64 907}
!908 = metadata !{i64 908}
!909 = metadata !{i64 909}
!910 = metadata !{i64 910}
!911 = metadata !{i64 911}
!912 = metadata !{i64 912}
!913 = metadata !{i64 913}
!914 = metadata !{i64 914}
!915 = metadata !{i64 915}
!916 = metadata !{i64 916}
!917 = metadata !{i64 917}
!918 = metadata !{i64 918}
!919 = metadata !{i64 919}
!920 = metadata !{i64 920}
!921 = metadata !{i64 921}
!922 = metadata !{i64 922}
!923 = metadata !{i64 923}
!924 = metadata !{i64 924}
!925 = metadata !{i64 925}
!926 = metadata !{i64 926}
!927 = metadata !{i64 927}
!928 = metadata !{i64 928}
!929 = metadata !{i64 929}
!930 = metadata !{i64 930}
!931 = metadata !{i64 931}
!932 = metadata !{i64 932}
!933 = metadata !{i64 933}
!934 = metadata !{i64 934}
!935 = metadata !{i64 935}
!936 = metadata !{i64 936}
!937 = metadata !{i64 937}
!938 = metadata !{i64 938}
!939 = metadata !{i64 939}
!940 = metadata !{i64 940}
!941 = metadata !{i64 941}
!942 = metadata !{i64 942}
!943 = metadata !{i64 943}
!944 = metadata !{i64 944}
!945 = metadata !{i64 945}
!946 = metadata !{i64 946}
!947 = metadata !{i64 947}
!948 = metadata !{i64 948}
!949 = metadata !{i64 949}
!950 = metadata !{i64 950}
!951 = metadata !{i64 951}
!952 = metadata !{i64 952}
!953 = metadata !{i64 953}
!954 = metadata !{i64 954}
!955 = metadata !{i64 955}
!956 = metadata !{i64 956}
!957 = metadata !{i64 957}
!958 = metadata !{i64 958}
!959 = metadata !{i64 959}
!960 = metadata !{i64 960}
!961 = metadata !{i64 961}
!962 = metadata !{i64 962}
!963 = metadata !{i64 963}
!964 = metadata !{i64 964}
!965 = metadata !{i64 965}
!966 = metadata !{i64 966}
!967 = metadata !{i64 967}
!968 = metadata !{i64 968}
!969 = metadata !{i64 969}
!970 = metadata !{i64 970}
!971 = metadata !{i64 971}
!972 = metadata !{i64 972}
!973 = metadata !{i64 973}
!974 = metadata !{i64 974}
!975 = metadata !{i64 975}
!976 = metadata !{i64 976}
!977 = metadata !{i64 977}
!978 = metadata !{i64 978}
!979 = metadata !{i64 979}
!980 = metadata !{i64 980}
!981 = metadata !{i64 981}
!982 = metadata !{i64 982}
!983 = metadata !{i64 983}
!984 = metadata !{i64 984}
!985 = metadata !{i64 985}
!986 = metadata !{i64 986}
!987 = metadata !{i64 987}
!988 = metadata !{i64 988}
!989 = metadata !{i64 989}
!990 = metadata !{i64 990}
!991 = metadata !{i64 991}
!992 = metadata !{i64 992}
!993 = metadata !{i64 993}
!994 = metadata !{i64 994}
!995 = metadata !{i64 995}
!996 = metadata !{i64 996}
!997 = metadata !{i64 997}
!998 = metadata !{i64 998}
!999 = metadata !{i64 999}
!1000 = metadata !{i64 1000}
!1001 = metadata !{i64 1001}
!1002 = metadata !{i64 1002}
!1003 = metadata !{i64 1003}
!1004 = metadata !{i64 1004}
!1005 = metadata !{i64 1005}
!1006 = metadata !{i64 1006}
!1007 = metadata !{i64 1007}
!1008 = metadata !{i64 1008}
!1009 = metadata !{i64 1009}
!1010 = metadata !{i64 1010}
!1011 = metadata !{i64 1011}
!1012 = metadata !{i64 1012}
!1013 = metadata !{i64 1013}
!1014 = metadata !{i64 1014}
!1015 = metadata !{i64 1015}
!1016 = metadata !{i64 1016}
!1017 = metadata !{i64 1017}
!1018 = metadata !{i64 1018}
!1019 = metadata !{i64 1019}
!1020 = metadata !{i64 1020}
!1021 = metadata !{i64 1021}
!1022 = metadata !{i64 1022}
!1023 = metadata !{i64 1023}
!1024 = metadata !{i64 1024}
!1025 = metadata !{i64 1025}
!1026 = metadata !{i64 1026}
!1027 = metadata !{i64 1027}
!1028 = metadata !{i64 1028}
!1029 = metadata !{i64 1029}
!1030 = metadata !{i64 1030}
!1031 = metadata !{i64 1031}
!1032 = metadata !{i64 1032}
!1033 = metadata !{i64 1033}
!1034 = metadata !{i64 1034}
!1035 = metadata !{i64 1035}
!1036 = metadata !{i64 1036}
!1037 = metadata !{i64 1037}
!1038 = metadata !{i64 1038}
!1039 = metadata !{i64 1039}
!1040 = metadata !{i64 1040}
!1041 = metadata !{i64 1041}
!1042 = metadata !{i64 1042}
!1043 = metadata !{i64 1043}
!1044 = metadata !{i64 1044}
!1045 = metadata !{i64 1045}
!1046 = metadata !{i64 1046}
!1047 = metadata !{i64 1047}
!1048 = metadata !{i64 1048}
!1049 = metadata !{i64 1049}
!1050 = metadata !{i64 1050}
!1051 = metadata !{i64 1051}
!1052 = metadata !{i64 1052}
!1053 = metadata !{i64 1053}
!1054 = metadata !{i64 1054}
!1055 = metadata !{i64 1055}
!1056 = metadata !{i64 1056}
!1057 = metadata !{i64 1057}
!1058 = metadata !{i64 1058}
!1059 = metadata !{i64 1059}
!1060 = metadata !{i64 1060}
!1061 = metadata !{i64 1061}
!1062 = metadata !{i64 1062}
!1063 = metadata !{i64 1063}
!1064 = metadata !{i64 1064}
!1065 = metadata !{i64 1065}
!1066 = metadata !{i64 1066}
!1067 = metadata !{i64 1067}
!1068 = metadata !{i64 1068}
!1069 = metadata !{i64 1069}
!1070 = metadata !{i64 1070}
!1071 = metadata !{i64 1071}
!1072 = metadata !{i64 1072}
!1073 = metadata !{i64 1073}
!1074 = metadata !{i64 1074}
!1075 = metadata !{i64 1075}
!1076 = metadata !{i64 1076}
!1077 = metadata !{i64 1077}
!1078 = metadata !{i64 1078}
!1079 = metadata !{i64 1079}
!1080 = metadata !{i64 1080}
!1081 = metadata !{i64 1081}
!1082 = metadata !{i64 1082}
!1083 = metadata !{i64 1083}
!1084 = metadata !{i64 1084}
!1085 = metadata !{i64 1085}
!1086 = metadata !{i64 1086}
!1087 = metadata !{i64 1087}
!1088 = metadata !{i64 1088}
!1089 = metadata !{i64 1089}
!1090 = metadata !{i64 1090}
!1091 = metadata !{i64 1091}
!1092 = metadata !{i64 1092}
!1093 = metadata !{i64 1093}
!1094 = metadata !{i64 1094}
!1095 = metadata !{i64 1095}
!1096 = metadata !{i64 1096}
!1097 = metadata !{i64 1097}
!1098 = metadata !{i64 1098}
!1099 = metadata !{i64 1099}
!1100 = metadata !{i64 1100}
!1101 = metadata !{i64 1101}
!1102 = metadata !{i64 1102}
!1103 = metadata !{i64 1103}
!1104 = metadata !{i64 1104}
!1105 = metadata !{i64 1105}
!1106 = metadata !{i64 1106}
!1107 = metadata !{i64 1107}
!1108 = metadata !{i64 1108}
!1109 = metadata !{i64 1109}
!1110 = metadata !{i64 1110}
!1111 = metadata !{i64 1111}
!1112 = metadata !{i64 1112}
!1113 = metadata !{i64 1113}
!1114 = metadata !{i64 1114}
!1115 = metadata !{i64 1115}
!1116 = metadata !{i64 1116}
!1117 = metadata !{i64 1117}
!1118 = metadata !{i64 1118}
!1119 = metadata !{i64 1119}
!1120 = metadata !{i64 1120}
!1121 = metadata !{i64 1121}
!1122 = metadata !{i64 1122}
!1123 = metadata !{i64 1123}
!1124 = metadata !{i64 1124}
!1125 = metadata !{i64 1125}
!1126 = metadata !{i64 1126}
!1127 = metadata !{i64 1127}
!1128 = metadata !{i64 1128}
!1129 = metadata !{i64 1129}
!1130 = metadata !{i64 1130}
!1131 = metadata !{i64 1131}
!1132 = metadata !{i64 1132}
!1133 = metadata !{i64 1133}
!1134 = metadata !{i64 1134}
!1135 = metadata !{i64 1135}
!1136 = metadata !{i64 1136}
!1137 = metadata !{i64 1137}
!1138 = metadata !{i64 1138}
!1139 = metadata !{i64 1139}
!1140 = metadata !{i64 1140}
!1141 = metadata !{i64 1141}
!1142 = metadata !{i64 1142}
!1143 = metadata !{i64 1143}
!1144 = metadata !{i64 1144}
!1145 = metadata !{i64 1145}
!1146 = metadata !{i64 1146}
!1147 = metadata !{i64 1147}
!1148 = metadata !{i64 1148}
!1149 = metadata !{i64 1149}
!1150 = metadata !{i64 1150}
!1151 = metadata !{i64 1151}
!1152 = metadata !{i64 1152}
!1153 = metadata !{i64 1153}
!1154 = metadata !{i64 1154}
!1155 = metadata !{i64 1155}
!1156 = metadata !{i64 1156}
!1157 = metadata !{i64 1157}
!1158 = metadata !{i64 1158}
!1159 = metadata !{i64 1159}
!1160 = metadata !{i64 1160}
!1161 = metadata !{i64 1161}
!1162 = metadata !{i64 1162}
!1163 = metadata !{i64 1163}
!1164 = metadata !{i64 1164}
!1165 = metadata !{i64 1165}
!1166 = metadata !{i64 1166}
!1167 = metadata !{i64 1167}
!1168 = metadata !{i64 1168}
!1169 = metadata !{i64 1169}
!1170 = metadata !{i64 1170}
!1171 = metadata !{i64 1171}
!1172 = metadata !{i64 1172}
!1173 = metadata !{i64 1173}
!1174 = metadata !{i64 1174}
!1175 = metadata !{i64 1175}
!1176 = metadata !{i64 1176}
!1177 = metadata !{i64 1177}
!1178 = metadata !{i64 1178}
!1179 = metadata !{i64 1179}
!1180 = metadata !{i64 1180}
!1181 = metadata !{i64 1181}
!1182 = metadata !{i64 1182}
!1183 = metadata !{i64 1183}
!1184 = metadata !{i64 1184}
!1185 = metadata !{i64 1185}
!1186 = metadata !{i64 1186}
!1187 = metadata !{i64 1187}
!1188 = metadata !{i64 1188}
!1189 = metadata !{i64 1189}
!1190 = metadata !{i64 1190}
!1191 = metadata !{i64 1191}
!1192 = metadata !{i64 1192}
!1193 = metadata !{i64 1193}
!1194 = metadata !{i64 1194}
!1195 = metadata !{i64 1195}
!1196 = metadata !{i64 1196}
!1197 = metadata !{i64 1197}
!1198 = metadata !{i64 1198}
!1199 = metadata !{i64 1199}
!1200 = metadata !{i64 1200}
!1201 = metadata !{i64 1201}
!1202 = metadata !{i64 1202}
!1203 = metadata !{i64 1203}
!1204 = metadata !{i64 1204}
!1205 = metadata !{i64 1205}
!1206 = metadata !{i64 1206}
!1207 = metadata !{i64 1207}
!1208 = metadata !{i64 1208}
!1209 = metadata !{i64 1209}
!1210 = metadata !{i64 1210}
!1211 = metadata !{i64 1211}
!1212 = metadata !{i64 1212}
!1213 = metadata !{i64 1213}
!1214 = metadata !{i64 1214}
!1215 = metadata !{i64 1215}
!1216 = metadata !{i64 1216}
!1217 = metadata !{i64 1217}
!1218 = metadata !{i64 1218}
!1219 = metadata !{i64 1219}
!1220 = metadata !{i64 1220}
!1221 = metadata !{i64 1221}
!1222 = metadata !{i64 1222}
!1223 = metadata !{i64 1223}
!1224 = metadata !{i64 1224}
!1225 = metadata !{i64 1225}
!1226 = metadata !{i64 1226}
!1227 = metadata !{i64 1227}
!1228 = metadata !{i64 1228}
!1229 = metadata !{i64 1229}
!1230 = metadata !{i64 1230}
!1231 = metadata !{i64 1231}
!1232 = metadata !{i64 1232}
!1233 = metadata !{i64 1233}
!1234 = metadata !{i64 1234}
!1235 = metadata !{i64 1235}
!1236 = metadata !{i64 1236}
!1237 = metadata !{i64 1237}
!1238 = metadata !{i64 1238}
!1239 = metadata !{i64 1239}
!1240 = metadata !{i64 1240}
!1241 = metadata !{i64 1241}
!1242 = metadata !{i64 1242}
!1243 = metadata !{i64 1243}
!1244 = metadata !{i64 1244}
!1245 = metadata !{i64 1245}
!1246 = metadata !{i64 1246}
!1247 = metadata !{i64 1247}
!1248 = metadata !{i64 1248}
!1249 = metadata !{i64 1249}
!1250 = metadata !{i64 1250}
!1251 = metadata !{i64 1251}
!1252 = metadata !{i64 1252}
!1253 = metadata !{i64 1253}
!1254 = metadata !{i64 1254}
!1255 = metadata !{i64 1255}
!1256 = metadata !{i64 1256}
!1257 = metadata !{i64 1257}
!1258 = metadata !{i64 1258}
!1259 = metadata !{i64 1259}
!1260 = metadata !{i64 1260}
!1261 = metadata !{i64 1261}
!1262 = metadata !{i64 1262}
!1263 = metadata !{i64 1263}
!1264 = metadata !{i64 1264}
!1265 = metadata !{i64 1265}
!1266 = metadata !{i64 1266}
!1267 = metadata !{i64 1267}
!1268 = metadata !{i64 1268}
!1269 = metadata !{i64 1269}
!1270 = metadata !{i64 1270}
!1271 = metadata !{i64 1271}
!1272 = metadata !{i64 1272}
!1273 = metadata !{i64 1273}
!1274 = metadata !{i64 1274}
!1275 = metadata !{i64 1275}
!1276 = metadata !{i64 1276}
!1277 = metadata !{i64 1277}
!1278 = metadata !{i64 1278}
!1279 = metadata !{i64 1279}
!1280 = metadata !{i64 1280}
!1281 = metadata !{i64 1281}
!1282 = metadata !{i64 1282}
!1283 = metadata !{i64 1283}
!1284 = metadata !{i64 1284}
!1285 = metadata !{i64 1285}
!1286 = metadata !{i64 1286}
!1287 = metadata !{i64 1287}
!1288 = metadata !{i64 1288}
!1289 = metadata !{i64 1289}
!1290 = metadata !{i64 1290}
!1291 = metadata !{i64 1291}
!1292 = metadata !{i64 1292}
!1293 = metadata !{i64 1293}
!1294 = metadata !{i64 1294}
!1295 = metadata !{i64 1295}
!1296 = metadata !{i64 1296}
!1297 = metadata !{i64 1297}
!1298 = metadata !{i64 1298}
!1299 = metadata !{i64 1299}
!1300 = metadata !{i64 1300}
!1301 = metadata !{i64 1301}
!1302 = metadata !{i64 1302}
!1303 = metadata !{i64 1303}
!1304 = metadata !{i64 1304}
!1305 = metadata !{i64 1305}
!1306 = metadata !{i64 1306}
!1307 = metadata !{i64 1307}
!1308 = metadata !{i64 1308}
!1309 = metadata !{i64 1309}
!1310 = metadata !{i64 1310}
!1311 = metadata !{i64 1311}
!1312 = metadata !{i64 1312}
!1313 = metadata !{i64 1313}
!1314 = metadata !{i64 1314}
!1315 = metadata !{i64 1315}
!1316 = metadata !{i64 1316}
!1317 = metadata !{i64 1317}
!1318 = metadata !{i64 1318}
!1319 = metadata !{i64 1319}
!1320 = metadata !{i64 1320}
!1321 = metadata !{i64 1321}
!1322 = metadata !{i64 1322}
!1323 = metadata !{i64 1323}
!1324 = metadata !{i64 1324}
!1325 = metadata !{i64 1325}
!1326 = metadata !{i64 1326}
!1327 = metadata !{i64 1327}
!1328 = metadata !{i64 1328}
!1329 = metadata !{i64 1329}
!1330 = metadata !{i64 1330}
!1331 = metadata !{i64 1331}
!1332 = metadata !{i64 1332}
!1333 = metadata !{i64 1333}
!1334 = metadata !{i64 1334}
!1335 = metadata !{i64 1335}
!1336 = metadata !{i64 1336}
!1337 = metadata !{i64 1337}
!1338 = metadata !{i64 1338}
!1339 = metadata !{i64 1339}
!1340 = metadata !{i64 1340}
!1341 = metadata !{i64 1341}
!1342 = metadata !{i64 1342}
!1343 = metadata !{i64 1343}
!1344 = metadata !{i64 1344}
!1345 = metadata !{i64 1345}
!1346 = metadata !{i64 1346}
!1347 = metadata !{i64 1347}
!1348 = metadata !{i64 1348}
!1349 = metadata !{i64 1349}
!1350 = metadata !{i64 1350}
!1351 = metadata !{i64 1351}
!1352 = metadata !{i64 1352}
!1353 = metadata !{i64 1353}
!1354 = metadata !{i64 1354}
!1355 = metadata !{i64 1355}
!1356 = metadata !{i64 1356}
!1357 = metadata !{i64 1357}
!1358 = metadata !{i64 1358}
!1359 = metadata !{i64 1359}
!1360 = metadata !{i64 1360}
!1361 = metadata !{i64 1361}
!1362 = metadata !{i64 1362}
!1363 = metadata !{i64 1363}
!1364 = metadata !{i64 1364}
!1365 = metadata !{i64 1365}
!1366 = metadata !{i64 1366}
!1367 = metadata !{i64 1367}
!1368 = metadata !{i64 1368}
!1369 = metadata !{i64 1369}
!1370 = metadata !{i64 1370}
!1371 = metadata !{i64 1371}
!1372 = metadata !{i64 1372}
!1373 = metadata !{i64 1373}
!1374 = metadata !{i64 1374}
!1375 = metadata !{i64 1375}
!1376 = metadata !{i64 1376}
!1377 = metadata !{i64 1377}
!1378 = metadata !{i64 1378}
!1379 = metadata !{i64 1379}
!1380 = metadata !{i64 1380}
!1381 = metadata !{i64 1381}
!1382 = metadata !{i64 1382}
!1383 = metadata !{i64 1383}
!1384 = metadata !{i64 1384}
!1385 = metadata !{i64 1385}
!1386 = metadata !{i64 1386}
!1387 = metadata !{i64 1387}
!1388 = metadata !{i64 1388}
!1389 = metadata !{i64 1389}
!1390 = metadata !{i64 1390}
!1391 = metadata !{i64 1391}
!1392 = metadata !{i64 1392}
!1393 = metadata !{i64 1393}
!1394 = metadata !{i64 1394}
!1395 = metadata !{i64 1395}
!1396 = metadata !{i64 1396}
!1397 = metadata !{i64 1397}
!1398 = metadata !{i64 1398}
!1399 = metadata !{i64 1399}
!1400 = metadata !{i64 1400}
!1401 = metadata !{i64 1401}
!1402 = metadata !{i64 1402}
!1403 = metadata !{i64 1403}
!1404 = metadata !{i64 1404}
!1405 = metadata !{i64 1405}
!1406 = metadata !{i64 1406}
!1407 = metadata !{i64 1407}
!1408 = metadata !{i64 1408}
!1409 = metadata !{i64 1409}
!1410 = metadata !{i64 1410}
!1411 = metadata !{i64 1411}
!1412 = metadata !{i64 1412}
!1413 = metadata !{i64 1413}
!1414 = metadata !{i64 1414}
!1415 = metadata !{i64 1415}
!1416 = metadata !{i64 1416}
!1417 = metadata !{i64 1417}
!1418 = metadata !{i64 1418}
!1419 = metadata !{i64 1419}
!1420 = metadata !{i64 1420}
!1421 = metadata !{i64 1421}
!1422 = metadata !{i64 1422}
!1423 = metadata !{i64 1423}
!1424 = metadata !{i64 1424}
!1425 = metadata !{i64 1425}
!1426 = metadata !{i64 1426}
!1427 = metadata !{i64 1427}
!1428 = metadata !{i64 1428}
!1429 = metadata !{i64 1429}
!1430 = metadata !{i64 1430}
!1431 = metadata !{i64 1431}
!1432 = metadata !{i64 1432}
!1433 = metadata !{i64 1433}
!1434 = metadata !{i64 1434}
!1435 = metadata !{i64 1435}
!1436 = metadata !{i64 1436}
!1437 = metadata !{i64 1437}
!1438 = metadata !{i64 1438}
!1439 = metadata !{i64 1439}
!1440 = metadata !{i64 1440}
!1441 = metadata !{i64 1441}
!1442 = metadata !{i64 1442}
!1443 = metadata !{i64 1443}
!1444 = metadata !{i64 1444}
!1445 = metadata !{i64 1445}
!1446 = metadata !{i64 1446}
!1447 = metadata !{i64 1447}
!1448 = metadata !{i64 1448}
!1449 = metadata !{i64 1449}
!1450 = metadata !{i64 1450}
!1451 = metadata !{i64 1451}
!1452 = metadata !{i64 1452}
!1453 = metadata !{i64 1453}
!1454 = metadata !{i64 1454}
!1455 = metadata !{i64 1455}
!1456 = metadata !{i64 1456}
!1457 = metadata !{i64 1457}
!1458 = metadata !{i64 1458}
!1459 = metadata !{i64 1459}
!1460 = metadata !{i64 1460}
!1461 = metadata !{i64 1461}
!1462 = metadata !{i64 1462}
!1463 = metadata !{i64 1463}
!1464 = metadata !{i64 1464}
!1465 = metadata !{i64 1465}
!1466 = metadata !{i64 1466}
!1467 = metadata !{i64 1467}
!1468 = metadata !{i64 1468}
!1469 = metadata !{i64 1469}
!1470 = metadata !{i64 1470}
!1471 = metadata !{i64 1471}
!1472 = metadata !{i64 1472}
!1473 = metadata !{i64 1473}
!1474 = metadata !{i64 1474}
!1475 = metadata !{i64 1475}
!1476 = metadata !{i64 1476}
!1477 = metadata !{i64 1477}
!1478 = metadata !{i64 1478}
!1479 = metadata !{i64 1479}
!1480 = metadata !{i64 1480}
!1481 = metadata !{i64 1481}
!1482 = metadata !{i64 1482}
!1483 = metadata !{i64 1483}
!1484 = metadata !{i64 1484}
!1485 = metadata !{i64 1485}
!1486 = metadata !{i64 1486}
!1487 = metadata !{i64 1487}
!1488 = metadata !{i64 1488}
!1489 = metadata !{i64 1489}
!1490 = metadata !{i64 1490}
!1491 = metadata !{i64 1491}
!1492 = metadata !{i64 1492}
!1493 = metadata !{i64 1493}
!1494 = metadata !{i64 1494}
!1495 = metadata !{i64 1495}
!1496 = metadata !{i64 1496}
!1497 = metadata !{i64 1497}
!1498 = metadata !{i64 1498}
!1499 = metadata !{i64 1499}
!1500 = metadata !{i64 1500}
!1501 = metadata !{i64 1501}
!1502 = metadata !{i64 1502}
!1503 = metadata !{i64 1503}
!1504 = metadata !{i64 1504}
!1505 = metadata !{i64 1505}
!1506 = metadata !{i64 1506}
!1507 = metadata !{i64 1507}
!1508 = metadata !{i64 1508}
!1509 = metadata !{i64 1509}
!1510 = metadata !{i64 1510}
!1511 = metadata !{i64 1511}
!1512 = metadata !{i64 1512}
!1513 = metadata !{i64 1513}
!1514 = metadata !{i64 1514}
!1515 = metadata !{i64 1515}
!1516 = metadata !{i64 1516}
!1517 = metadata !{i64 1517}
!1518 = metadata !{i64 1518}
!1519 = metadata !{i64 1519}
!1520 = metadata !{i64 1520}
!1521 = metadata !{i64 1521}
!1522 = metadata !{i64 1522}
!1523 = metadata !{i64 1523}
!1524 = metadata !{i64 1524}
!1525 = metadata !{i64 1525}
!1526 = metadata !{i64 1526}
!1527 = metadata !{i64 1527}
!1528 = metadata !{i64 1528}
!1529 = metadata !{i64 1529}
!1530 = metadata !{i64 1530}
!1531 = metadata !{i64 1531}
!1532 = metadata !{i64 1532}
!1533 = metadata !{i64 1533}
!1534 = metadata !{i64 1534}
!1535 = metadata !{i64 1535}
!1536 = metadata !{i64 1536}
!1537 = metadata !{i64 1537}
!1538 = metadata !{i64 1538}
!1539 = metadata !{i64 1539}
!1540 = metadata !{i64 1540}
!1541 = metadata !{i64 1541}
!1542 = metadata !{i64 1542}
!1543 = metadata !{i64 1543}
!1544 = metadata !{i64 1544}
!1545 = metadata !{i64 1545}
!1546 = metadata !{i64 1546}
!1547 = metadata !{i64 1547}
!1548 = metadata !{i64 1548}
!1549 = metadata !{i64 1549}
!1550 = metadata !{i64 1550}
!1551 = metadata !{i64 1551}
!1552 = metadata !{i64 1552}
!1553 = metadata !{i64 1553}
!1554 = metadata !{i64 1554}
!1555 = metadata !{i64 1555}
!1556 = metadata !{i64 1556}
!1557 = metadata !{i64 1557}
!1558 = metadata !{i64 1558}
!1559 = metadata !{i64 1559}
!1560 = metadata !{i64 1560}
!1561 = metadata !{i64 1561}
!1562 = metadata !{i64 1562}
!1563 = metadata !{i64 1563}
!1564 = metadata !{i64 1564}
!1565 = metadata !{i64 1565}
!1566 = metadata !{i64 1566}
!1567 = metadata !{i64 1567}
!1568 = metadata !{i64 1568}
!1569 = metadata !{i64 1569}
!1570 = metadata !{i64 1570}
!1571 = metadata !{i64 1571}
!1572 = metadata !{i64 1572}
!1573 = metadata !{i64 1573}
!1574 = metadata !{i64 1574}
!1575 = metadata !{i64 1575}
!1576 = metadata !{i64 1576}
!1577 = metadata !{i64 1577}
!1578 = metadata !{i64 1578}
!1579 = metadata !{i64 1579}
!1580 = metadata !{i64 1580}
!1581 = metadata !{i64 1581}
!1582 = metadata !{i64 1582}
!1583 = metadata !{i64 1583}
!1584 = metadata !{i64 1584}
!1585 = metadata !{i64 1585}
!1586 = metadata !{i64 1586}
!1587 = metadata !{i64 1587}
!1588 = metadata !{i64 1588}
!1589 = metadata !{i64 1589}
!1590 = metadata !{i64 1590}
!1591 = metadata !{i64 1591}
!1592 = metadata !{i64 1592}
!1593 = metadata !{i64 1593}
!1594 = metadata !{i64 1594}
!1595 = metadata !{i64 1595}
!1596 = metadata !{i64 1596}
!1597 = metadata !{i64 1597}
!1598 = metadata !{i64 1598}
!1599 = metadata !{i64 1599}
!1600 = metadata !{i64 1600}
!1601 = metadata !{i64 1601}
!1602 = metadata !{i64 1602}
!1603 = metadata !{i64 1603}
!1604 = metadata !{i64 1604}
!1605 = metadata !{i64 1605}
!1606 = metadata !{i64 1606}
!1607 = metadata !{i64 1607}
!1608 = metadata !{i64 1608}
!1609 = metadata !{i64 1609}
!1610 = metadata !{i64 1610}
!1611 = metadata !{i64 1611}
!1612 = metadata !{i64 1612}
!1613 = metadata !{i64 1613}
!1614 = metadata !{i64 1614}
!1615 = metadata !{i64 1615}
!1616 = metadata !{i64 1616}
!1617 = metadata !{i64 1617}
!1618 = metadata !{i64 1618}
!1619 = metadata !{i64 1619}
!1620 = metadata !{i64 1620}
!1621 = metadata !{i64 1621}
!1622 = metadata !{i64 1622}
!1623 = metadata !{i64 1623}
!1624 = metadata !{i64 1624}
!1625 = metadata !{i64 1625}
!1626 = metadata !{i64 1626}
!1627 = metadata !{i64 1627}
!1628 = metadata !{i64 1628}
!1629 = metadata !{i64 1629}
!1630 = metadata !{i64 1630}
!1631 = metadata !{i64 1631}
!1632 = metadata !{i64 1632}
!1633 = metadata !{i64 1633}
!1634 = metadata !{i64 1634}
!1635 = metadata !{i64 1635}
!1636 = metadata !{i64 1636}
!1637 = metadata !{i64 1637}
!1638 = metadata !{i64 1638}
!1639 = metadata !{i64 1639}
!1640 = metadata !{i64 1640}
!1641 = metadata !{i64 1641}
!1642 = metadata !{i64 1642}
!1643 = metadata !{i64 1643}
!1644 = metadata !{i64 1644}
!1645 = metadata !{i64 1645}
!1646 = metadata !{i64 1646}
!1647 = metadata !{i64 1647}
!1648 = metadata !{i64 1648}
!1649 = metadata !{i64 1649}
!1650 = metadata !{i64 1650}
!1651 = metadata !{i64 1651}
!1652 = metadata !{i64 1652}
!1653 = metadata !{i64 1653}
!1654 = metadata !{i64 1654}
!1655 = metadata !{i64 1655}
!1656 = metadata !{i64 1656}
!1657 = metadata !{i64 1657}
!1658 = metadata !{i64 1658}
!1659 = metadata !{i64 1659}
!1660 = metadata !{i64 1660}
!1661 = metadata !{i64 1661}
!1662 = metadata !{i64 1662}
!1663 = metadata !{i64 1663}
!1664 = metadata !{i64 1664}
!1665 = metadata !{i64 1665}
!1666 = metadata !{i64 1666}
!1667 = metadata !{i64 1667}
!1668 = metadata !{i64 1668}
!1669 = metadata !{i64 1669}
!1670 = metadata !{i64 1670}
!1671 = metadata !{i64 1671}
!1672 = metadata !{i64 1672}
!1673 = metadata !{i64 1673}
!1674 = metadata !{i64 1674}
!1675 = metadata !{i64 1675}
!1676 = metadata !{i64 1676}
!1677 = metadata !{i64 1677}
!1678 = metadata !{i64 1678}
!1679 = metadata !{i64 1679}
!1680 = metadata !{i64 1680}
!1681 = metadata !{i64 1681}
!1682 = metadata !{i64 1682}
!1683 = metadata !{i64 1683}
!1684 = metadata !{i64 1684}
!1685 = metadata !{i64 1685}
!1686 = metadata !{i64 1686}
!1687 = metadata !{i64 1687}
!1688 = metadata !{i64 1688}
!1689 = metadata !{i64 1689}
!1690 = metadata !{i64 1690}
!1691 = metadata !{i64 1691}
!1692 = metadata !{i64 1692}
!1693 = metadata !{i64 1693}
!1694 = metadata !{i64 1694}
!1695 = metadata !{i64 1695}
!1696 = metadata !{i64 1696}
!1697 = metadata !{i64 1697}
!1698 = metadata !{i64 1698}
!1699 = metadata !{i64 1699}
!1700 = metadata !{i64 1700}
!1701 = metadata !{i64 1701}
!1702 = metadata !{i64 1702}
!1703 = metadata !{i64 1703}
!1704 = metadata !{i64 1704}
!1705 = metadata !{i64 1705}
!1706 = metadata !{i64 1706}
!1707 = metadata !{i64 1707}
!1708 = metadata !{i64 1708}
!1709 = metadata !{i64 1709}
!1710 = metadata !{i64 1710}
!1711 = metadata !{i64 1711}
!1712 = metadata !{i64 1712}
!1713 = metadata !{i64 1713}
!1714 = metadata !{i64 1714}
!1715 = metadata !{i64 1715}
!1716 = metadata !{i64 1716}
!1717 = metadata !{i64 1717}
!1718 = metadata !{i64 1718}
!1719 = metadata !{i64 1719}
!1720 = metadata !{i64 1720}
!1721 = metadata !{i64 1721}
!1722 = metadata !{i64 1722}
!1723 = metadata !{i64 1723}
!1724 = metadata !{i64 1724}
!1725 = metadata !{i64 1725}
!1726 = metadata !{i64 1726}
!1727 = metadata !{i64 1727}
!1728 = metadata !{i64 1728}
!1729 = metadata !{i64 1729}
!1730 = metadata !{i64 1730}
!1731 = metadata !{i64 1731}
!1732 = metadata !{i64 1732}
!1733 = metadata !{i64 1733}
!1734 = metadata !{i64 1734}
!1735 = metadata !{i64 1735}
!1736 = metadata !{i64 1736}
!1737 = metadata !{i64 1737}
!1738 = metadata !{i64 1738}
!1739 = metadata !{i64 1739}
!1740 = metadata !{i64 1740}
!1741 = metadata !{i64 1741}
!1742 = metadata !{i64 1742}
!1743 = metadata !{i64 1743}
!1744 = metadata !{i64 1744}
!1745 = metadata !{i64 1745}
!1746 = metadata !{i64 1746}
!1747 = metadata !{i64 1747}
!1748 = metadata !{i64 1748}
!1749 = metadata !{i64 1749}
!1750 = metadata !{i64 1750}
!1751 = metadata !{i64 1751}
!1752 = metadata !{i64 1752}
!1753 = metadata !{i64 1753}
!1754 = metadata !{i64 1754}
!1755 = metadata !{i64 1755}
!1756 = metadata !{i64 1756}
!1757 = metadata !{i64 1757}
!1758 = metadata !{i64 1758}
!1759 = metadata !{i64 1759}
!1760 = metadata !{i64 1760}
!1761 = metadata !{i64 1761}
!1762 = metadata !{i64 1762}
!1763 = metadata !{i64 1763}
!1764 = metadata !{i64 1764}
!1765 = metadata !{i64 1765}
!1766 = metadata !{i64 1766}
!1767 = metadata !{i64 1767}
!1768 = metadata !{i64 1768}
!1769 = metadata !{i64 1769}
!1770 = metadata !{i64 1770}
!1771 = metadata !{i64 1771}
!1772 = metadata !{i64 1772}
!1773 = metadata !{i64 1773}
!1774 = metadata !{i64 1774}
!1775 = metadata !{i64 1775}
!1776 = metadata !{i64 1776}
!1777 = metadata !{i64 1777}
!1778 = metadata !{i64 1778}
!1779 = metadata !{i64 1779}
!1780 = metadata !{i64 1780}
!1781 = metadata !{i64 1781}
!1782 = metadata !{i64 1782}
!1783 = metadata !{i64 1783}
!1784 = metadata !{i64 1784}
!1785 = metadata !{i64 1785}
!1786 = metadata !{i64 1786}
!1787 = metadata !{i64 1787}
!1788 = metadata !{i64 1788}
!1789 = metadata !{i64 1789}
!1790 = metadata !{i64 1790}
!1791 = metadata !{i64 1791}
!1792 = metadata !{i64 1792}
!1793 = metadata !{i64 1793}
!1794 = metadata !{i64 1794}
!1795 = metadata !{i64 1795}
!1796 = metadata !{i64 1796}
!1797 = metadata !{i64 1797}
!1798 = metadata !{i64 1798}
!1799 = metadata !{i64 1799}
!1800 = metadata !{i64 1800}
!1801 = metadata !{i64 1801}
!1802 = metadata !{i64 1802}
!1803 = metadata !{i64 1803}
!1804 = metadata !{i64 1804}
!1805 = metadata !{i64 1805}
!1806 = metadata !{i64 1806}
!1807 = metadata !{i64 1807}
!1808 = metadata !{i64 1808}
!1809 = metadata !{i64 1809}
!1810 = metadata !{i64 1810}
!1811 = metadata !{i64 1811}
!1812 = metadata !{i64 1812}
!1813 = metadata !{i64 1813}
!1814 = metadata !{i64 1814}
!1815 = metadata !{i64 1815}
!1816 = metadata !{i64 1816}
!1817 = metadata !{i64 1817}
!1818 = metadata !{i64 1818}
!1819 = metadata !{i64 1819}
!1820 = metadata !{i64 1820}
!1821 = metadata !{i64 1821}
!1822 = metadata !{i64 1822}
!1823 = metadata !{i64 1823}
!1824 = metadata !{i64 1824}
!1825 = metadata !{i64 1825}
!1826 = metadata !{i64 1826}
!1827 = metadata !{i64 1827}
!1828 = metadata !{i64 1828}
!1829 = metadata !{i64 1829}
!1830 = metadata !{i64 1830}
!1831 = metadata !{i64 1831}
!1832 = metadata !{i64 1832}
!1833 = metadata !{i64 1833}
!1834 = metadata !{i64 1834}
!1835 = metadata !{i64 1835}
!1836 = metadata !{i64 1836}
!1837 = metadata !{i64 1837}
!1838 = metadata !{i64 1838}
!1839 = metadata !{i64 1839}
!1840 = metadata !{i64 1840}
!1841 = metadata !{i64 1841}
!1842 = metadata !{i64 1842}
!1843 = metadata !{i64 1843}
!1844 = metadata !{i64 1844}
!1845 = metadata !{i64 1845}
!1846 = metadata !{i64 1846}
!1847 = metadata !{i64 1847}
!1848 = metadata !{i64 1848}
!1849 = metadata !{i64 1849}
!1850 = metadata !{i64 1850}
!1851 = metadata !{i64 1851}
!1852 = metadata !{i64 1852}
!1853 = metadata !{i64 1853}
!1854 = metadata !{i64 1854}
!1855 = metadata !{i64 1855}
!1856 = metadata !{i64 1856}
!1857 = metadata !{i64 1857}
!1858 = metadata !{i64 1858}
!1859 = metadata !{i64 1859}
!1860 = metadata !{i64 1860}
!1861 = metadata !{i64 1861}
!1862 = metadata !{i64 1862}
!1863 = metadata !{i64 1863}
!1864 = metadata !{i64 1864}
!1865 = metadata !{i64 1865}
!1866 = metadata !{i64 1866}
!1867 = metadata !{i64 1867}
!1868 = metadata !{i64 1868}
!1869 = metadata !{i64 1869}
!1870 = metadata !{i64 1870}
!1871 = metadata !{i64 1871}
!1872 = metadata !{i64 1872}
!1873 = metadata !{i64 1873}
!1874 = metadata !{i64 1874}
!1875 = metadata !{i64 1875}
!1876 = metadata !{i64 1876}
!1877 = metadata !{i64 1877}
!1878 = metadata !{i64 1878}
!1879 = metadata !{i64 1879}
!1880 = metadata !{i64 1880}
!1881 = metadata !{i64 1881}
!1882 = metadata !{i64 1882}
!1883 = metadata !{i64 1883}
!1884 = metadata !{i64 1884}
!1885 = metadata !{i64 1885}
!1886 = metadata !{i64 1886}
!1887 = metadata !{i64 1887}
!1888 = metadata !{i64 1888}
!1889 = metadata !{i64 1889}
!1890 = metadata !{i64 1890}
!1891 = metadata !{i64 1891}
!1892 = metadata !{i64 1892}
!1893 = metadata !{i64 1893}
!1894 = metadata !{i64 1894}
!1895 = metadata !{i64 1895}
!1896 = metadata !{i64 1896}
!1897 = metadata !{i64 1897}
!1898 = metadata !{i64 1898}
!1899 = metadata !{i64 1899}
!1900 = metadata !{i64 1900}
!1901 = metadata !{i64 1901}
!1902 = metadata !{i64 1902}
!1903 = metadata !{i64 1903}
!1904 = metadata !{i64 1904}
!1905 = metadata !{i64 1905}
!1906 = metadata !{i64 1906}
!1907 = metadata !{i64 1907}
!1908 = metadata !{i64 1908}
!1909 = metadata !{i64 1909}
!1910 = metadata !{i64 1910}
!1911 = metadata !{i64 1911}
!1912 = metadata !{i64 1912}
!1913 = metadata !{i64 1913}
!1914 = metadata !{i64 1914}
!1915 = metadata !{i64 1915}
!1916 = metadata !{i64 1916}
!1917 = metadata !{i64 1917}
!1918 = metadata !{i64 1918}
!1919 = metadata !{i64 1919}
!1920 = metadata !{i64 1920}
!1921 = metadata !{i64 1921}
!1922 = metadata !{i64 1922}
!1923 = metadata !{i64 1923}
!1924 = metadata !{i64 1924}
!1925 = metadata !{i64 1925}
!1926 = metadata !{i64 1926}
!1927 = metadata !{i64 1927}
!1928 = metadata !{i64 1928}
!1929 = metadata !{i64 1929}
!1930 = metadata !{i64 1930}
!1931 = metadata !{i64 1931}
!1932 = metadata !{i64 1932}
!1933 = metadata !{i64 1933}
!1934 = metadata !{i64 1934}
!1935 = metadata !{i64 1935}
!1936 = metadata !{i64 1936}
!1937 = metadata !{i64 1937}
!1938 = metadata !{i64 1938}
!1939 = metadata !{i64 1939}
!1940 = metadata !{i64 1940}
!1941 = metadata !{i64 1941}
!1942 = metadata !{i64 1942}
!1943 = metadata !{i64 1943}
!1944 = metadata !{i64 1944}
!1945 = metadata !{i64 1945}
!1946 = metadata !{i64 1946}
!1947 = metadata !{i64 1947}
!1948 = metadata !{i64 1948}
!1949 = metadata !{i64 1949}
!1950 = metadata !{i64 1950}
!1951 = metadata !{i64 1951}
!1952 = metadata !{i64 1952}
!1953 = metadata !{i64 1953}
!1954 = metadata !{i64 1954}
!1955 = metadata !{i64 1955}
!1956 = metadata !{i64 1956}
!1957 = metadata !{i64 1957}
!1958 = metadata !{i64 1958}
!1959 = metadata !{i64 1959}
!1960 = metadata !{i64 1960}
!1961 = metadata !{i64 1961}
!1962 = metadata !{i64 1962}
!1963 = metadata !{i64 1963}
!1964 = metadata !{i64 1964}
!1965 = metadata !{i64 1965}
!1966 = metadata !{i64 1966}
!1967 = metadata !{i64 1967}
!1968 = metadata !{i64 1968}
!1969 = metadata !{i64 1969}
!1970 = metadata !{i64 1970}
!1971 = metadata !{i64 1971}
!1972 = metadata !{i64 1972}
!1973 = metadata !{i64 1973}
!1974 = metadata !{i64 1974}
!1975 = metadata !{i64 1975}
!1976 = metadata !{i64 1976}
!1977 = metadata !{i64 1977}
!1978 = metadata !{i64 1978}
!1979 = metadata !{i64 1979}
!1980 = metadata !{i64 1980}
!1981 = metadata !{i64 1981}
!1982 = metadata !{i64 1982}
!1983 = metadata !{i64 1983}
!1984 = metadata !{i64 1984}
!1985 = metadata !{i64 1985}
!1986 = metadata !{i64 1986}
!1987 = metadata !{i64 1987}
!1988 = metadata !{i64 1988}
!1989 = metadata !{i64 1989}
!1990 = metadata !{i64 1990}
!1991 = metadata !{i64 1991}
!1992 = metadata !{i64 1992}
!1993 = metadata !{i64 1993}
!1994 = metadata !{i64 1994}
!1995 = metadata !{i64 1995}
!1996 = metadata !{i64 1996}
!1997 = metadata !{i64 1997}
!1998 = metadata !{i64 1998}
!1999 = metadata !{i64 1999}
!2000 = metadata !{i64 2000}
!2001 = metadata !{i64 2001}
!2002 = metadata !{i64 2002}
!2003 = metadata !{i64 2003}
!2004 = metadata !{i64 2004}
!2005 = metadata !{i64 2005}
!2006 = metadata !{i64 2006}
!2007 = metadata !{i64 2007}
!2008 = metadata !{i64 2008}
!2009 = metadata !{i64 2009}
!2010 = metadata !{i64 2010}
!2011 = metadata !{i64 2011}
!2012 = metadata !{i64 2012}
!2013 = metadata !{i64 2013}
!2014 = metadata !{i64 2014}
!2015 = metadata !{i64 2015}
!2016 = metadata !{i64 2016}
!2017 = metadata !{i64 2017}
!2018 = metadata !{i64 2018}
!2019 = metadata !{i64 2019}
!2020 = metadata !{i64 2020}
!2021 = metadata !{i64 2021}
!2022 = metadata !{i64 2022}
!2023 = metadata !{i64 2023}
!2024 = metadata !{i64 2024}
!2025 = metadata !{i64 2025}
!2026 = metadata !{i64 2026}
!2027 = metadata !{i64 2027}
!2028 = metadata !{i64 2028}
!2029 = metadata !{i64 2029}
!2030 = metadata !{i64 2030}
!2031 = metadata !{i64 2031}
!2032 = metadata !{i64 2032}
!2033 = metadata !{i64 2033}
!2034 = metadata !{i64 2034}
!2035 = metadata !{i64 2035}
!2036 = metadata !{i64 2036}
!2037 = metadata !{i64 2037}
!2038 = metadata !{i64 2038}
!2039 = metadata !{i64 2039}
!2040 = metadata !{i64 2040}
!2041 = metadata !{i64 2041}
!2042 = metadata !{i64 2042}
!2043 = metadata !{i64 2043}
!2044 = metadata !{i64 2044}
!2045 = metadata !{i64 2045}
!2046 = metadata !{i64 2046}
!2047 = metadata !{i64 2047}
!2048 = metadata !{i64 2048}
!2049 = metadata !{i64 2049}
!2050 = metadata !{i64 2050}
!2051 = metadata !{i64 2051}
!2052 = metadata !{i64 2052}
!2053 = metadata !{i64 2053}
!2054 = metadata !{i64 2054}
!2055 = metadata !{i64 2055}
!2056 = metadata !{i64 2056}
!2057 = metadata !{i64 2057}
!2058 = metadata !{i64 2058}
!2059 = metadata !{i64 2059}
!2060 = metadata !{i64 2060}
!2061 = metadata !{i64 2061}
!2062 = metadata !{i64 2062}
!2063 = metadata !{i64 2063}
!2064 = metadata !{i64 2064}
!2065 = metadata !{i64 2065}
!2066 = metadata !{i64 2066}
!2067 = metadata !{i64 2067}
!2068 = metadata !{i64 2068}
!2069 = metadata !{i64 2069}
!2070 = metadata !{i64 2070}
!2071 = metadata !{i64 2071}
!2072 = metadata !{i64 2072}
!2073 = metadata !{i64 2073}
!2074 = metadata !{i64 2074}
!2075 = metadata !{i64 2075}
!2076 = metadata !{i64 2076}
!2077 = metadata !{i64 2077}
!2078 = metadata !{i64 2078}
!2079 = metadata !{i64 2079}
!2080 = metadata !{i64 2080}
!2081 = metadata !{i64 2081}
!2082 = metadata !{i64 2082}
!2083 = metadata !{i64 2083}
!2084 = metadata !{i64 2084}
!2085 = metadata !{i64 2085}
!2086 = metadata !{i64 2086}
!2087 = metadata !{i64 2087}
!2088 = metadata !{i64 2088}
!2089 = metadata !{i64 2089}
!2090 = metadata !{i64 2090}
!2091 = metadata !{i64 2091}
!2092 = metadata !{i64 2092}
!2093 = metadata !{i64 2093}
!2094 = metadata !{i64 2094}
!2095 = metadata !{i64 2095}
!2096 = metadata !{i64 2096}
!2097 = metadata !{i64 2097}
!2098 = metadata !{i64 2098}
!2099 = metadata !{i64 2099}
!2100 = metadata !{i64 2100}
!2101 = metadata !{i64 2101}
!2102 = metadata !{i64 2102}
!2103 = metadata !{i64 2103}
!2104 = metadata !{i64 2104}
!2105 = metadata !{i64 2105}
!2106 = metadata !{i64 2106}
!2107 = metadata !{i64 2107}
!2108 = metadata !{i64 2108}
!2109 = metadata !{i64 2109}
!2110 = metadata !{i64 2110}
!2111 = metadata !{i64 2111}
!2112 = metadata !{i64 2112}
!2113 = metadata !{i64 2113}
!2114 = metadata !{i64 2114}
!2115 = metadata !{i64 2115}
!2116 = metadata !{i64 2116}
!2117 = metadata !{i64 2117}
!2118 = metadata !{i64 2118}
!2119 = metadata !{i64 2119}
!2120 = metadata !{i64 2120}
!2121 = metadata !{i64 2121}
!2122 = metadata !{i64 2122}
!2123 = metadata !{i64 2123}
!2124 = metadata !{i64 2124}
!2125 = metadata !{i64 2125}
!2126 = metadata !{i64 2126}
!2127 = metadata !{i64 2127}
!2128 = metadata !{i64 2128}
!2129 = metadata !{i64 2129}
!2130 = metadata !{i64 2130}
!2131 = metadata !{i64 2131}
!2132 = metadata !{i64 2132}
!2133 = metadata !{i64 2133}
!2134 = metadata !{i64 2134}
!2135 = metadata !{i64 2135}
!2136 = metadata !{i64 2136}
!2137 = metadata !{i64 2137}
!2138 = metadata !{i64 2138}
