; ModuleID = '/data_ssd/backed_up/mrahman12/Peppa-X/input-resilience/Benchmarks/compiled-benchmarks/fft/fft-ga-bound-1/fft--m4--p1--n21614--l4--t/llfi/fft-llfi_index.ll'
target datalayout = "e-p:64:64:64-i1:8:8-i8:8:8-i16:16:16-i32:32:32-i64:64:64-f32:32:32-f64:64:64-v64:64:64-v128:128:128-a0:0:64-s0:64:64-f80:128:128-n8:16:32:64-S128"
target triple = "x86_64-unknown-linux-gnu"

%struct.GlobalMemory = type { i64, i64*, i64*, i64, i64, i64 }
%struct._IO_FILE = type { i32, i8*, i8*, i8*, i8*, i8*, i8*, i8*, i8*, i8*, i8*, i8*, %struct._IO_marker*, %struct._IO_FILE*, i32, i32, i64, i16, i8, [1 x i8], i8*, i64, i8*, i8*, i8*, i8*, i64, i32, [20 x i8] }
%struct._IO_marker = type { %struct._IO_marker*, %struct._IO_FILE*, i32 }

@Global = global %struct.GlobalMemory* null, align 8
@P = global i64 1, align 8
@M = global i64 10, align 8
@N = global i64 0, align 8
@rootN = global i64 0, align 8
@x = global double* null, align 8
@trans = global double* null, align 8
@umain = global double* null, align 8
@umain2 = global double* null, align 8
@test_result = global i64 0, align 8
@doprint = global i64 0, align 8
@dostats = global i64 0, align 8
@transtime = global i64 0, align 8
@transtime2 = global i64 0, align 8
@avgtranstime = global i64 0, align 8
@avgcomptime = global i64 0, align 8
@transstart = global i64 0, align 8
@transend = global i64 0, align 8
@maxtotal = global i64 0, align 8
@mintotal = global i64 0, align 8
@maxfrac = global double 0.000000e+00, align 8
@minfrac = global double 0.000000e+00, align 8
@avgfractime = global double 0.000000e+00, align 8
@orig_num_lines = global i64 65536, align 8
@num_cache_lines = global i64 65536, align 8
@log2_line_size = global i64 4, align 8
@line_size = global i64 0, align 8
@rowsperproc = global i64 0, align 8
@ck1 = global double 0.000000e+00, align 8
@ck3 = global double 0.000000e+00, align 8
@pad_length = global i64 0, align 8
@.str = private unnamed_addr constant [13 x i8] c"p:m:n:l:stoh\00", align 1
@optarg = external global i8*
@.str1 = private unnamed_addr constant [16 x i8] c"P must be >= 1\0A\00", align 1
@.str2 = private unnamed_addr constant [24 x i8] c"P must be a power of 2\0A\00", align 1
@.str3 = private unnamed_addr constant [16 x i8] c"M must be even\0A\00", align 1
@.str4 = private unnamed_addr constant [36 x i8] c"Number of cache lines must be >= 1\0A\00", align 1
@.str5 = private unnamed_addr constant [55 x i8] c"Log base 2 of cache line length in bytes must be >= 0\0A\00", align 1
@.str6 = private unnamed_addr constant [23 x i8] c"Usage: FFT <options>\0A\0A\00", align 1
@.str7 = private unnamed_addr constant [10 x i8] c"options:\0A\00", align 1
@.str8 = private unnamed_addr constant [71 x i8] c"  -mM : M = even integer; 2**M total complex data points transformed.\0A\00", align 1
@.str9 = private unnamed_addr constant [57 x i8] c"  -pP : P = number of processors; Must be a power of 2.\0A\00", align 1
@.str10 = private unnamed_addr constant [36 x i8] c"  -nN : N = number of cache lines.\0A\00", align 1
@.str11 = private unnamed_addr constant [55 x i8] c"  -lL : L = Log base 2 of cache line length in bytes.\0A\00", align 1
@.str12 = private unnamed_addr constant [55 x i8] c"  -s  : Print individual processor timing statistics.\0A\00", align 1
@.str13 = private unnamed_addr constant [68 x i8] c"  -t  : Perform FFT and inverse FFT.  Test output by comparing the\0A\00", align 1
@.str14 = private unnamed_addr constant [72 x i8] c"        integral of the original data to the integral of the data that\0A\00", align 1
@.str15 = private unnamed_addr constant [58 x i8] c"        results from performing the FFT and inverse FFT.\0A\00", align 1
@.str16 = private unnamed_addr constant [40 x i8] c"  -o  : Print out complex data points.\0A\00", align 1
@.str17 = private unnamed_addr constant [42 x i8] c"  -h  : Print out command line options.\0A\0A\00", align 1
@.str18 = private unnamed_addr constant [38 x i8] c"Default: FFT -m%1d -p%1d -n%1d -l%1d\0A\00", align 1
@.str19 = private unnamed_addr constant [48 x i8] c"Matrix not large enough. 2**(M/2) must be >= P\0A\00", align 1
@.str20 = private unnamed_addr constant [55 x i8] c"WARNING: Each element is a complex double (%ld bytes)\0A\00", align 1
@.str21 = private unnamed_addr constant [43 x i8] c"  => Less than one element per cache line\0A\00", align 1
@.str22 = private unnamed_addr constant [42 x i8] c"     Computing transpose blocking factor\0A\00", align 1
@.str23 = private unnamed_addr constant [32 x i8] c"Padding algorithm unsuccessful\0A\00", align 1
@.str24 = private unnamed_addr constant [36 x i8] c"Could not malloc memory for Global\0A\00", align 1
@.str25 = private unnamed_addr constant [31 x i8] c"Could not malloc memory for x\0A\00", align 1
@.str26 = private unnamed_addr constant [35 x i8] c"Could not malloc memory for trans\0A\00", align 1
@.str27 = private unnamed_addr constant [35 x i8] c"Could not malloc memory for umain\0A\00", align 1
@.str28 = private unnamed_addr constant [36 x i8] c"Could not malloc memory for umain2\0A\00", align 1
@.str29 = private unnamed_addr constant [23 x i8] c"Original data values:\0A\00", align 1
@.str30 = private unnamed_addr constant [32 x i8] c"Data values after inverse FFT:\0A\00", align 1
@.str31 = private unnamed_addr constant [24 x i8] c"Data values after FFT:\0A\00", align 1
@.str32 = private unnamed_addr constant [26 x i8] c"INVERSE FFT TEST RESULTS\0A\00", align 1
@.str33 = private unnamed_addr constant [42 x i8] c"Checksum difference is %.3f (%.3f, %.3f)\0A\00", align 1
@.str34 = private unnamed_addr constant [13 x i8] c"TEST PASSED\0A\00", align 1
@.str35 = private unnamed_addr constant [13 x i8] c"TEST FAILED\0A\00", align 1
@stderr = external global %struct._IO_FILE*
@.str36 = private unnamed_addr constant [44 x i8] c"Proc %ld could not malloc memory for upriv\0A\00", align 1
@.str37 = private unnamed_addr constant [13 x i8] c" %4.2f %4.2f\00", align 1
@.str38 = private unnamed_addr constant [2 x i8] c",\00", align 1
@.str39 = private unnamed_addr constant [2 x i8] c"\0A\00", align 1
@.str40 = private unnamed_addr constant [11 x i8] c"ERROR: %s\0A\00", align 1
@load_namestr = internal constant [5 x i8] c"load\00"
@add_namestr = internal constant [4 x i8] c"add\00"
@mul_namestr = internal constant [4 x i8] c"mul\00"
@icmp_namestr = internal constant [5 x i8] c"icmp\00"
@xor_namestr = internal constant [4 x i8] c"xor\00"
@sext_namestr = internal constant [5 x i8] c"sext\00"
@sdiv_namestr = internal constant [5 x i8] c"sdiv\00"
@zext_namestr = internal constant [5 x i8] c"zext\00"
@udiv_namestr = internal constant [5 x i8] c"udiv\00"
@sub_namestr = internal constant [4 x i8] c"sub\00"
@bitcast_namestr = internal constant [8 x i8] c"bitcast\00"
@trunc_namestr = internal constant [6 x i8] c"trunc\00"
@shl_namestr = internal constant [4 x i8] c"shl\00"
@inttoptr_namestr = internal constant [9 x i8] c"inttoptr\00"
@ptrtoint_namestr = internal constant [9 x i8] c"ptrtoint\00"
@urem_namestr = internal constant [5 x i8] c"urem\00"
@fsub_namestr = internal constant [5 x i8] c"fsub\00"
@fcmp_namestr = internal constant [5 x i8] c"fcmp\00"
@getelementptr_namestr = internal constant [14 x i8] c"getelementptr\00"
@sitofp_namestr = internal constant [7 x i8] c"sitofp\00"
@fmul_namestr = internal constant [5 x i8] c"fmul\00"
@fdiv_namestr = internal constant [5 x i8] c"fdiv\00"
@fadd_namestr = internal constant [5 x i8] c"fadd\00"
@srem_namestr = internal constant [5 x i8] c"srem\00"
@and_namestr = internal constant [4 x i8] c"and\00"
@ashr_namestr = internal constant [5 x i8] c"ashr\00"

; Function Attrs: uwtable
define i32 @main(i32 %argc, i8** %argv) #0 {
  call void @initInjections()
  %1 = alloca i32, align 4, !llfi_index !1
  %2 = alloca i32, align 4, !llfi_index !2
  %3 = alloca i8**, align 8, !llfi_index !3
  %i = alloca i64, align 8, !llfi_index !4
  %c = alloca i64, align 8, !llfi_index !5
  %m1 = alloca i64, align 8, !llfi_index !6
  %factor = alloca i64, align 8, !llfi_index !7
  %pages = alloca i64, align 8, !llfi_index !8
  %start = alloca i64, align 8, !llfi_index !9
  store i32 0, i32* %1, !llfi_index !10
  store i32 %argc, i32* %2, align 4, !llfi_index !11
  store i8** %argv, i8*** %3, align 8, !llfi_index !12
  br label %4, !llfi_index !13

; <label>:4                                       ; preds = %83, %0
  %5 = load i32* %2, align 4, !llfi_index !14
  %fi5 = call i32 @injectFault2(i64 14, i32 %5, i32 27, i32 0, i32 1, i32 0, i8* getelementptr inbounds ([5 x i8]* @load_namestr, i32 0, i32 0)), !llfi_injectfault !15
  %6 = load i8*** %3, align 8, !llfi_index !16
  %fi6 = call i8** @injectFault3(i64 15, i8** %6, i32 27, i32 0, i32 1, i32 0, i8* getelementptr inbounds ([5 x i8]* @load_namestr, i32 0, i32 0)), !llfi_injectfault !15
  %7 = call i32 @getopt(i32 %fi5, i8** %fi6, i8* getelementptr inbounds ([13 x i8]* @.str, i32 0, i32 0)) #7, !llfi_index !17
  %8 = sext i32 %7 to i64, !llfi_index !18
  %fi7 = call i64 @injectFault0(i64 17, i64 %8, i32 35, i32 0, i32 1, i32 0, i8* getelementptr inbounds ([5 x i8]* @sext_namestr, i32 0, i32 0)), !llfi_injectfault !15
  store i64 %fi7, i64* %c, align 8, !llfi_index !19
  %9 = icmp ne i64 %fi7, -1, !llfi_index !20
  %fi11 = call i1 @injectFault1(i64 19, i1 %9, i32 46, i32 0, i32 1, i32 0, i8* getelementptr inbounds ([5 x i8]* @icmp_namestr, i32 0, i32 0)), !llfi_injectfault !15
  br i1 %fi11, label %10, label %84, !llfi_index !21

; <label>:10                                      ; preds = %4
  %11 = load i64* %c, align 8, !llfi_index !22
  %fi12 = call i64 @injectFault0(i64 21, i64 %11, i32 27, i32 0, i32 1, i32 0, i8* getelementptr inbounds ([5 x i8]* @load_namestr, i32 0, i32 0)), !llfi_injectfault !15
  switch i64 %fi12, label %83 [
    i64 112, label %12
    i64 109, label %25
    i64 110, label %37
    i64 108, label %46
    i64 115, label %54
    i64 116, label %59
    i64 111, label %64
    i64 104, label %69
  ], !llfi_index !23

; <label>:12                                      ; preds = %10
  %13 = load i8** @optarg, align 8, !llfi_index !24
  %fi13 = call i8* @injectFault5(i64 23, i8* %13, i32 27, i32 0, i32 1, i32 0, i8* getelementptr inbounds ([5 x i8]* @load_namestr, i32 0, i32 0)), !llfi_injectfault !15
  %14 = call i32 @atoi(i8* %fi13) #8, !llfi_index !25
  %15 = sext i32 %14 to i64, !llfi_index !26
  %fi14 = call i64 @injectFault0(i64 25, i64 %15, i32 35, i32 0, i32 1, i32 0, i8* getelementptr inbounds ([5 x i8]* @sext_namestr, i32 0, i32 0)), !llfi_injectfault !15
  store i64 %fi14, i64* @P, align 8, !llfi_index !27
  %16 = load i64* @P, align 8, !llfi_index !28
  %fi15 = call i64 @injectFault0(i64 27, i64 %16, i32 27, i32 0, i32 1, i32 0, i8* getelementptr inbounds ([5 x i8]* @load_namestr, i32 0, i32 0)), !llfi_injectfault !15
  %17 = icmp slt i64 %fi15, 1, !llfi_index !29
  %fi10 = call i1 @injectFault1(i64 28, i1 %17, i32 46, i32 0, i32 1, i32 0, i8* getelementptr inbounds ([5 x i8]* @icmp_namestr, i32 0, i32 0)), !llfi_injectfault !15
  br i1 %fi10, label %18, label %19, !llfi_index !30

; <label>:18                                      ; preds = %12
  call void @_Z8printerrPc(i8* getelementptr inbounds ([16 x i8]* @.str1, i32 0, i32 0)), !llfi_index !31
  call void @postInjections()
  call void @exit(i32 -1) #9, !llfi_index !32
  unreachable, !llfi_index !33

; <label>:19                                      ; preds = %12
  %20 = load i64* @P, align 8, !llfi_index !34
  %fi17 = call i64 @injectFault0(i64 33, i64 %20, i32 27, i32 0, i32 1, i32 0, i8* getelementptr inbounds ([5 x i8]* @load_namestr, i32 0, i32 0)), !llfi_injectfault !15
  %21 = call i64 @_Z5log_2l(i64 %fi17), !llfi_index !35
  %22 = icmp eq i64 %21, -1, !llfi_index !36
  %fi18 = call i1 @injectFault1(i64 35, i1 %22, i32 46, i32 0, i32 1, i32 0, i8* getelementptr inbounds ([5 x i8]* @icmp_namestr, i32 0, i32 0)), !llfi_injectfault !15
  br i1 %fi18, label %23, label %24, !llfi_index !37

; <label>:23                                      ; preds = %19
  call void @_Z8printerrPc(i8* getelementptr inbounds ([24 x i8]* @.str2, i32 0, i32 0)), !llfi_index !38
  call void @postInjections()
  call void @exit(i32 -1) #9, !llfi_index !39
  unreachable, !llfi_index !40

; <label>:24                                      ; preds = %19
  br label %83, !llfi_index !41

; <label>:25                                      ; preds = %10
  %26 = load i8** @optarg, align 8, !llfi_index !42
  %fi19 = call i8* @injectFault5(i64 41, i8* %26, i32 27, i32 0, i32 1, i32 0, i8* getelementptr inbounds ([5 x i8]* @load_namestr, i32 0, i32 0)), !llfi_injectfault !15
  %27 = call i32 @atoi(i8* %fi19) #8, !llfi_index !43
  %28 = sext i32 %27 to i64, !llfi_index !44
  %fi20 = call i64 @injectFault0(i64 43, i64 %28, i32 35, i32 0, i32 1, i32 0, i8* getelementptr inbounds ([5 x i8]* @sext_namestr, i32 0, i32 0)), !llfi_injectfault !15
  store i64 %fi20, i64* @M, align 8, !llfi_index !45
  %29 = load i64* @M, align 8, !llfi_index !46
  %fi21 = call i64 @injectFault0(i64 45, i64 %29, i32 27, i32 0, i32 1, i32 0, i8* getelementptr inbounds ([5 x i8]* @load_namestr, i32 0, i32 0)), !llfi_injectfault !15
  %30 = sdiv i64 %fi21, 2, !llfi_index !47
  %fi22 = call i64 @injectFault0(i64 46, i64 %30, i32 15, i32 0, i32 1, i32 0, i8* getelementptr inbounds ([5 x i8]* @sdiv_namestr, i32 0, i32 0)), !llfi_injectfault !15
  store i64 %fi22, i64* %m1, align 8, !llfi_index !48
  %31 = load i64* %m1, align 8, !llfi_index !49
  %fi23 = call i64 @injectFault0(i64 48, i64 %31, i32 27, i32 0, i32 1, i32 0, i8* getelementptr inbounds ([5 x i8]* @load_namestr, i32 0, i32 0)), !llfi_injectfault !15
  %32 = mul nsw i64 2, %fi23, !llfi_index !50
  %fi = call i64 @injectFault0(i64 49, i64 %32, i32 12, i32 0, i32 1, i32 0, i8* getelementptr inbounds ([4 x i8]* @mul_namestr, i32 0, i32 0)), !llfi_injectfault !15
  %33 = load i64* @M, align 8, !llfi_index !51
  %fi16 = call i64 @injectFault0(i64 50, i64 %33, i32 27, i32 0, i32 1, i32 0, i8* getelementptr inbounds ([5 x i8]* @load_namestr, i32 0, i32 0)), !llfi_injectfault !15
  %34 = icmp ne i64 %fi, %fi16, !llfi_index !52
  %fi4 = call i1 @injectFault1(i64 51, i1 %34, i32 46, i32 0, i32 1, i32 0, i8* getelementptr inbounds ([5 x i8]* @icmp_namestr, i32 0, i32 0)), !llfi_injectfault !15
  br i1 %fi4, label %35, label %36, !llfi_index !53

; <label>:35                                      ; preds = %25
  call void @_Z8printerrPc(i8* getelementptr inbounds ([16 x i8]* @.str3, i32 0, i32 0)), !llfi_index !54
  call void @postInjections()
  call void @exit(i32 -1) #9, !llfi_index !55
  unreachable, !llfi_index !56

; <label>:36                                      ; preds = %25
  br label %83, !llfi_index !57

; <label>:37                                      ; preds = %10
  %38 = load i8** @optarg, align 8, !llfi_index !58
  %fi24 = call i8* @injectFault5(i64 57, i8* %38, i32 27, i32 0, i32 1, i32 0, i8* getelementptr inbounds ([5 x i8]* @load_namestr, i32 0, i32 0)), !llfi_injectfault !15
  %39 = call i32 @atoi(i8* %fi24) #8, !llfi_index !59
  %40 = sext i32 %39 to i64, !llfi_index !60
  %fi25 = call i64 @injectFault0(i64 59, i64 %40, i32 35, i32 0, i32 1, i32 0, i8* getelementptr inbounds ([5 x i8]* @sext_namestr, i32 0, i32 0)), !llfi_injectfault !15
  store i64 %fi25, i64* @num_cache_lines, align 8, !llfi_index !61
  %41 = load i64* @num_cache_lines, align 8, !llfi_index !62
  %fi26 = call i64 @injectFault0(i64 61, i64 %41, i32 27, i32 0, i32 1, i32 0, i8* getelementptr inbounds ([5 x i8]* @load_namestr, i32 0, i32 0)), !llfi_injectfault !15
  store i64 %fi26, i64* @orig_num_lines, align 8, !llfi_index !63
  %42 = load i64* @num_cache_lines, align 8, !llfi_index !64
  %fi27 = call i64 @injectFault0(i64 63, i64 %42, i32 27, i32 0, i32 1, i32 0, i8* getelementptr inbounds ([5 x i8]* @load_namestr, i32 0, i32 0)), !llfi_injectfault !15
  %43 = icmp slt i64 %fi27, 1, !llfi_index !65
  %fi28 = call i1 @injectFault1(i64 64, i1 %43, i32 46, i32 0, i32 1, i32 0, i8* getelementptr inbounds ([5 x i8]* @icmp_namestr, i32 0, i32 0)), !llfi_injectfault !15
  br i1 %fi28, label %44, label %45, !llfi_index !66

; <label>:44                                      ; preds = %37
  call void @_Z8printerrPc(i8* getelementptr inbounds ([36 x i8]* @.str4, i32 0, i32 0)), !llfi_index !67
  call void @postInjections()
  call void @exit(i32 -1) #9, !llfi_index !68
  unreachable, !llfi_index !69

; <label>:45                                      ; preds = %37
  br label %83, !llfi_index !70

; <label>:46                                      ; preds = %10
  %47 = load i8** @optarg, align 8, !llfi_index !71
  %fi29 = call i8* @injectFault5(i64 70, i8* %47, i32 27, i32 0, i32 1, i32 0, i8* getelementptr inbounds ([5 x i8]* @load_namestr, i32 0, i32 0)), !llfi_injectfault !15
  %48 = call i32 @atoi(i8* %fi29) #8, !llfi_index !72
  %49 = sext i32 %48 to i64, !llfi_index !73
  %fi30 = call i64 @injectFault0(i64 72, i64 %49, i32 35, i32 0, i32 1, i32 0, i8* getelementptr inbounds ([5 x i8]* @sext_namestr, i32 0, i32 0)), !llfi_injectfault !15
  store i64 %fi30, i64* @log2_line_size, align 8, !llfi_index !74
  %50 = load i64* @log2_line_size, align 8, !llfi_index !75
  %fi31 = call i64 @injectFault0(i64 74, i64 %50, i32 27, i32 0, i32 1, i32 0, i8* getelementptr inbounds ([5 x i8]* @load_namestr, i32 0, i32 0)), !llfi_injectfault !15
  %51 = icmp slt i64 %fi31, 0, !llfi_index !76
  %fi32 = call i1 @injectFault1(i64 75, i1 %51, i32 46, i32 0, i32 1, i32 0, i8* getelementptr inbounds ([5 x i8]* @icmp_namestr, i32 0, i32 0)), !llfi_injectfault !15
  br i1 %fi32, label %52, label %53, !llfi_index !77

; <label>:52                                      ; preds = %46
  call void @_Z8printerrPc(i8* getelementptr inbounds ([55 x i8]* @.str5, i32 0, i32 0)), !llfi_index !78
  call void @postInjections()
  call void @exit(i32 -1) #9, !llfi_index !79
  unreachable, !llfi_index !80

; <label>:53                                      ; preds = %46
  br label %83, !llfi_index !81

; <label>:54                                      ; preds = %10
  %55 = load i64* @dostats, align 8, !llfi_index !82
  %fi33 = call i64 @injectFault0(i64 81, i64 %55, i32 27, i32 0, i32 1, i32 0, i8* getelementptr inbounds ([5 x i8]* @load_namestr, i32 0, i32 0)), !llfi_injectfault !15
  %56 = icmp ne i64 %fi33, 0, !llfi_index !83
  %fi34 = call i1 @injectFault1(i64 82, i1 %56, i32 46, i32 0, i32 1, i32 0, i8* getelementptr inbounds ([5 x i8]* @icmp_namestr, i32 0, i32 0)), !llfi_injectfault !15
  %57 = xor i1 %fi34, true, !llfi_index !84
  %fi35 = call i1 @injectFault1(i64 83, i1 %57, i32 25, i32 0, i32 1, i32 0, i8* getelementptr inbounds ([4 x i8]* @xor_namestr, i32 0, i32 0)), !llfi_injectfault !15
  %58 = zext i1 %fi35 to i64, !llfi_index !85
  %fi36 = call i64 @injectFault0(i64 84, i64 %58, i32 34, i32 0, i32 1, i32 0, i8* getelementptr inbounds ([5 x i8]* @zext_namestr, i32 0, i32 0)), !llfi_injectfault !15
  store i64 %fi36, i64* @dostats, align 8, !llfi_index !86
  br label %83, !llfi_index !87

; <label>:59                                      ; preds = %10
  %60 = load i64* @test_result, align 8, !llfi_index !88
  %fi37 = call i64 @injectFault0(i64 87, i64 %60, i32 27, i32 0, i32 1, i32 0, i8* getelementptr inbounds ([5 x i8]* @load_namestr, i32 0, i32 0)), !llfi_injectfault !15
  %61 = icmp ne i64 %fi37, 0, !llfi_index !89
  %fi38 = call i1 @injectFault1(i64 88, i1 %61, i32 46, i32 0, i32 1, i32 0, i8* getelementptr inbounds ([5 x i8]* @icmp_namestr, i32 0, i32 0)), !llfi_injectfault !15
  %62 = xor i1 %fi38, true, !llfi_index !90
  %fi39 = call i1 @injectFault1(i64 89, i1 %62, i32 25, i32 0, i32 1, i32 0, i8* getelementptr inbounds ([4 x i8]* @xor_namestr, i32 0, i32 0)), !llfi_injectfault !15
  %63 = zext i1 %fi39 to i64, !llfi_index !91
  %fi40 = call i64 @injectFault0(i64 90, i64 %63, i32 34, i32 0, i32 1, i32 0, i8* getelementptr inbounds ([5 x i8]* @zext_namestr, i32 0, i32 0)), !llfi_injectfault !15
  store i64 %fi40, i64* @test_result, align 8, !llfi_index !92
  br label %83, !llfi_index !93

; <label>:64                                      ; preds = %10
  %65 = load i64* @doprint, align 8, !llfi_index !94
  %fi1 = call i64 @injectFault0(i64 93, i64 %65, i32 27, i32 0, i32 1, i32 0, i8* getelementptr inbounds ([5 x i8]* @load_namestr, i32 0, i32 0)), !llfi_injectfault !15
  %66 = icmp ne i64 %fi1, 0, !llfi_index !95
  %fi2 = call i1 @injectFault1(i64 94, i1 %66, i32 46, i32 0, i32 1, i32 0, i8* getelementptr inbounds ([5 x i8]* @icmp_namestr, i32 0, i32 0)), !llfi_injectfault !15
  %67 = xor i1 %fi2, true, !llfi_index !96
  %fi3 = call i1 @injectFault1(i64 95, i1 %67, i32 25, i32 0, i32 1, i32 0, i8* getelementptr inbounds ([4 x i8]* @xor_namestr, i32 0, i32 0)), !llfi_injectfault !15
  %68 = zext i1 %fi3 to i64, !llfi_index !97
  %fi44 = call i64 @injectFault0(i64 96, i64 %68, i32 34, i32 0, i32 1, i32 0, i8* getelementptr inbounds ([5 x i8]* @zext_namestr, i32 0, i32 0)), !llfi_injectfault !15
  store i64 %fi44, i64* @doprint, align 8, !llfi_index !98
  br label %83, !llfi_index !99

; <label>:69                                      ; preds = %10
  %70 = call i32 (i8*, ...)* @printf(i8* getelementptr inbounds ([23 x i8]* @.str6, i32 0, i32 0)), !llfi_index !100
  %71 = call i32 (i8*, ...)* @printf(i8* getelementptr inbounds ([10 x i8]* @.str7, i32 0, i32 0)), !llfi_index !101
  %72 = call i32 (i8*, ...)* @printf(i8* getelementptr inbounds ([71 x i8]* @.str8, i32 0, i32 0)), !llfi_index !102
  %73 = call i32 (i8*, ...)* @printf(i8* getelementptr inbounds ([57 x i8]* @.str9, i32 0, i32 0)), !llfi_index !103
  %74 = call i32 (i8*, ...)* @printf(i8* getelementptr inbounds ([36 x i8]* @.str10, i32 0, i32 0)), !llfi_index !104
  %75 = call i32 (i8*, ...)* @printf(i8* getelementptr inbounds ([55 x i8]* @.str11, i32 0, i32 0)), !llfi_index !105
  %76 = call i32 (i8*, ...)* @printf(i8* getelementptr inbounds ([55 x i8]* @.str12, i32 0, i32 0)), !llfi_index !106
  %77 = call i32 (i8*, ...)* @printf(i8* getelementptr inbounds ([68 x i8]* @.str13, i32 0, i32 0)), !llfi_index !107
  %78 = call i32 (i8*, ...)* @printf(i8* getelementptr inbounds ([72 x i8]* @.str14, i32 0, i32 0)), !llfi_index !108
  %79 = call i32 (i8*, ...)* @printf(i8* getelementptr inbounds ([58 x i8]* @.str15, i32 0, i32 0)), !llfi_index !109
  %80 = call i32 (i8*, ...)* @printf(i8* getelementptr inbounds ([40 x i8]* @.str16, i32 0, i32 0)), !llfi_index !110
  %81 = call i32 (i8*, ...)* @printf(i8* getelementptr inbounds ([42 x i8]* @.str17, i32 0, i32 0)), !llfi_index !111
  %82 = call i32 (i8*, ...)* @printf(i8* getelementptr inbounds ([38 x i8]* @.str18, i32 0, i32 0), i32 10, i32 1, i32 65536, i32 4), !llfi_index !112
  call void @postInjections()
  call void @exit(i32 0) #9, !llfi_index !113
  unreachable, !llfi_index !114

; <label>:83                                      ; preds = %64, %59, %54, %53, %45, %36, %24, %10
  br label %4, !llfi_index !115

; <label>:84                                      ; preds = %4
  %85 = load i64* @M, align 8, !llfi_index !116
  %fi75 = call i64 @injectFault0(i64 115, i64 %85, i32 27, i32 0, i32 1, i32 0, i8* getelementptr inbounds ([5 x i8]* @load_namestr, i32 0, i32 0)), !llfi_injectfault !15
  %86 = trunc i64 %fi75 to i32, !llfi_index !117
  %fi76 = call i32 @injectFault2(i64 116, i32 %86, i32 33, i32 0, i32 1, i32 0, i8* getelementptr inbounds ([6 x i8]* @trunc_namestr, i32 0, i32 0)), !llfi_injectfault !15
  %87 = shl i32 1, %fi76, !llfi_index !118
  %fi77 = call i32 @injectFault2(i64 117, i32 %87, i32 20, i32 0, i32 1, i32 0, i8* getelementptr inbounds ([4 x i8]* @shl_namestr, i32 0, i32 0)), !llfi_injectfault !15
  %88 = sext i32 %fi77 to i64, !llfi_index !119
  %fi78 = call i64 @injectFault0(i64 118, i64 %88, i32 35, i32 0, i32 1, i32 0, i8* getelementptr inbounds ([5 x i8]* @sext_namestr, i32 0, i32 0)), !llfi_injectfault !15
  store i64 %fi78, i64* @N, align 8, !llfi_index !120
  %89 = load i64* @M, align 8, !llfi_index !121
  %fi79 = call i64 @injectFault0(i64 120, i64 %89, i32 27, i32 0, i32 1, i32 0, i8* getelementptr inbounds ([5 x i8]* @load_namestr, i32 0, i32 0)), !llfi_injectfault !15
  %90 = sdiv i64 %fi79, 2, !llfi_index !122
  %fi80 = call i64 @injectFault0(i64 121, i64 %90, i32 15, i32 0, i32 1, i32 0, i8* getelementptr inbounds ([5 x i8]* @sdiv_namestr, i32 0, i32 0)), !llfi_injectfault !15
  %91 = trunc i64 %fi80 to i32, !llfi_index !123
  %fi81 = call i32 @injectFault2(i64 122, i32 %91, i32 33, i32 0, i32 1, i32 0, i8* getelementptr inbounds ([6 x i8]* @trunc_namestr, i32 0, i32 0)), !llfi_injectfault !15
  %92 = shl i32 1, %fi81, !llfi_index !124
  %fi82 = call i32 @injectFault2(i64 123, i32 %92, i32 20, i32 0, i32 1, i32 0, i8* getelementptr inbounds ([4 x i8]* @shl_namestr, i32 0, i32 0)), !llfi_injectfault !15
  %93 = sext i32 %fi82 to i64, !llfi_index !125
  %fi83 = call i64 @injectFault0(i64 124, i64 %93, i32 35, i32 0, i32 1, i32 0, i8* getelementptr inbounds ([5 x i8]* @sext_namestr, i32 0, i32 0)), !llfi_injectfault !15
  store i64 %fi83, i64* @rootN, align 8, !llfi_index !126
  %94 = load i64* @rootN, align 8, !llfi_index !127
  %fi84 = call i64 @injectFault0(i64 126, i64 %94, i32 27, i32 0, i32 1, i32 0, i8* getelementptr inbounds ([5 x i8]* @load_namestr, i32 0, i32 0)), !llfi_injectfault !15
  %95 = load i64* @P, align 8, !llfi_index !128
  %fi85 = call i64 @injectFault0(i64 127, i64 %95, i32 27, i32 0, i32 1, i32 0, i8* getelementptr inbounds ([5 x i8]* @load_namestr, i32 0, i32 0)), !llfi_injectfault !15
  %96 = sdiv i64 %fi84, %fi85, !llfi_index !129
  %fi86 = call i64 @injectFault0(i64 128, i64 %96, i32 15, i32 0, i32 1, i32 0, i8* getelementptr inbounds ([5 x i8]* @sdiv_namestr, i32 0, i32 0)), !llfi_injectfault !15
  store i64 %fi86, i64* @rowsperproc, align 8, !llfi_index !130
  %97 = load i64* @rowsperproc, align 8, !llfi_index !131
  %fi87 = call i64 @injectFault0(i64 130, i64 %97, i32 27, i32 0, i32 1, i32 0, i8* getelementptr inbounds ([5 x i8]* @load_namestr, i32 0, i32 0)), !llfi_injectfault !15
  %98 = icmp eq i64 %fi87, 0, !llfi_index !132
  %fi88 = call i1 @injectFault1(i64 131, i1 %98, i32 46, i32 0, i32 1, i32 0, i8* getelementptr inbounds ([5 x i8]* @icmp_namestr, i32 0, i32 0)), !llfi_injectfault !15
  br i1 %fi88, label %99, label %100, !llfi_index !133

; <label>:99                                      ; preds = %84
  call void @_Z8printerrPc(i8* getelementptr inbounds ([48 x i8]* @.str19, i32 0, i32 0)), !llfi_index !134
  call void @postInjections()
  call void @exit(i32 -1) #9, !llfi_index !135
  unreachable, !llfi_index !136

; <label>:100                                     ; preds = %84
  %101 = load i64* @log2_line_size, align 8, !llfi_index !137
  %fi89 = call i64 @injectFault0(i64 136, i64 %101, i32 27, i32 0, i32 1, i32 0, i8* getelementptr inbounds ([5 x i8]* @load_namestr, i32 0, i32 0)), !llfi_injectfault !15
  %102 = trunc i64 %fi89 to i32, !llfi_index !138
  %fi90 = call i32 @injectFault2(i64 137, i32 %102, i32 33, i32 0, i32 1, i32 0, i8* getelementptr inbounds ([6 x i8]* @trunc_namestr, i32 0, i32 0)), !llfi_injectfault !15
  %103 = shl i32 1, %fi90, !llfi_index !139
  %fi91 = call i32 @injectFault2(i64 138, i32 %103, i32 20, i32 0, i32 1, i32 0, i8* getelementptr inbounds ([4 x i8]* @shl_namestr, i32 0, i32 0)), !llfi_injectfault !15
  %104 = sext i32 %fi91 to i64, !llfi_index !140
  %fi92 = call i64 @injectFault0(i64 139, i64 %104, i32 35, i32 0, i32 1, i32 0, i8* getelementptr inbounds ([5 x i8]* @sext_namestr, i32 0, i32 0)), !llfi_injectfault !15
  store i64 %fi92, i64* @line_size, align 8, !llfi_index !141
  %105 = load i64* @line_size, align 8, !llfi_index !142
  %fi93 = call i64 @injectFault0(i64 141, i64 %105, i32 27, i32 0, i32 1, i32 0, i8* getelementptr inbounds ([5 x i8]* @load_namestr, i32 0, i32 0)), !llfi_injectfault !15
  %106 = icmp ult i64 %fi93, 16, !llfi_index !143
  %fi94 = call i1 @injectFault1(i64 142, i1 %106, i32 46, i32 0, i32 1, i32 0, i8* getelementptr inbounds ([5 x i8]* @icmp_namestr, i32 0, i32 0)), !llfi_injectfault !15
  br i1 %fi94, label %107, label %116, !llfi_index !144

; <label>:107                                     ; preds = %100
  %108 = call i32 (i8*, ...)* @printf(i8* getelementptr inbounds ([55 x i8]* @.str20, i32 0, i32 0), i64 16), !llfi_index !145
  %109 = call i32 (i8*, ...)* @printf(i8* getelementptr inbounds ([43 x i8]* @.str21, i32 0, i32 0)), !llfi_index !146
  %110 = call i32 (i8*, ...)* @printf(i8* getelementptr inbounds ([42 x i8]* @.str22, i32 0, i32 0)), !llfi_index !147
  %111 = load i64* @line_size, align 8, !llfi_index !148
  %fi95 = call i64 @injectFault0(i64 147, i64 %111, i32 27, i32 0, i32 1, i32 0, i8* getelementptr inbounds ([5 x i8]* @load_namestr, i32 0, i32 0)), !llfi_injectfault !15
  %112 = udiv i64 16, %fi95, !llfi_index !149
  %fi96 = call i64 @injectFault0(i64 148, i64 %112, i32 14, i32 0, i32 1, i32 0, i8* getelementptr inbounds ([5 x i8]* @udiv_namestr, i32 0, i32 0)), !llfi_injectfault !15
  store i64 %fi96, i64* %factor, align 8, !llfi_index !150
  %113 = load i64* @orig_num_lines, align 8, !llfi_index !151
  %fi97 = call i64 @injectFault0(i64 150, i64 %113, i32 27, i32 0, i32 1, i32 0, i8* getelementptr inbounds ([5 x i8]* @load_namestr, i32 0, i32 0)), !llfi_injectfault !15
  %114 = load i64* %factor, align 8, !llfi_index !152
  %fi98 = call i64 @injectFault0(i64 151, i64 %114, i32 27, i32 0, i32 1, i32 0, i8* getelementptr inbounds ([5 x i8]* @load_namestr, i32 0, i32 0)), !llfi_injectfault !15
  %115 = sdiv i64 %fi97, %fi98, !llfi_index !153
  %fi99 = call i64 @injectFault0(i64 152, i64 %115, i32 15, i32 0, i32 1, i32 0, i8* getelementptr inbounds ([5 x i8]* @sdiv_namestr, i32 0, i32 0)), !llfi_injectfault !15
  store i64 %fi99, i64* @num_cache_lines, align 8, !llfi_index !154
  br label %116, !llfi_index !155

; <label>:116                                     ; preds = %107, %100
  %117 = load i64* @line_size, align 8, !llfi_index !156
  %fi100 = call i64 @injectFault0(i64 155, i64 %117, i32 27, i32 0, i32 1, i32 0, i8* getelementptr inbounds ([5 x i8]* @load_namestr, i32 0, i32 0)), !llfi_injectfault !15
  %118 = icmp ule i64 %fi100, 16, !llfi_index !157
  %fi101 = call i1 @injectFault1(i64 156, i1 %118, i32 46, i32 0, i32 1, i32 0, i8* getelementptr inbounds ([5 x i8]* @icmp_namestr, i32 0, i32 0)), !llfi_injectfault !15
  br i1 %fi101, label %119, label %120, !llfi_index !158

; <label>:119                                     ; preds = %116
  store i64 1, i64* @pad_length, align 8, !llfi_index !159
  br label %123, !llfi_index !160

; <label>:120                                     ; preds = %116
  %121 = load i64* @line_size, align 8, !llfi_index !161
  %fi102 = call i64 @injectFault0(i64 160, i64 %121, i32 27, i32 0, i32 1, i32 0, i8* getelementptr inbounds ([5 x i8]* @load_namestr, i32 0, i32 0)), !llfi_injectfault !15
  %122 = udiv i64 %fi102, 16, !llfi_index !162
  %fi103 = call i64 @injectFault0(i64 161, i64 %122, i32 14, i32 0, i32 1, i32 0, i8* getelementptr inbounds ([5 x i8]* @udiv_namestr, i32 0, i32 0)), !llfi_injectfault !15
  store i64 %fi103, i64* @pad_length, align 8, !llfi_index !163
  br label %123, !llfi_index !164

; <label>:123                                     ; preds = %120, %119
  %124 = load i64* @rowsperproc, align 8, !llfi_index !165
  %fi104 = call i64 @injectFault0(i64 164, i64 %124, i32 27, i32 0, i32 1, i32 0, i8* getelementptr inbounds ([5 x i8]* @load_namestr, i32 0, i32 0)), !llfi_injectfault !15
  %125 = load i64* @rootN, align 8, !llfi_index !166
  %fi105 = call i64 @injectFault0(i64 165, i64 %125, i32 27, i32 0, i32 1, i32 0, i8* getelementptr inbounds ([5 x i8]* @load_namestr, i32 0, i32 0)), !llfi_injectfault !15
  %126 = mul nsw i64 %fi104, %fi105, !llfi_index !167
  %fi106 = call i64 @injectFault0(i64 166, i64 %126, i32 12, i32 0, i32 1, i32 0, i8* getelementptr inbounds ([4 x i8]* @mul_namestr, i32 0, i32 0)), !llfi_injectfault !15
  %127 = mul nsw i64 %fi106, 2, !llfi_index !168
  %fi107 = call i64 @injectFault0(i64 167, i64 %127, i32 12, i32 0, i32 1, i32 0, i8* getelementptr inbounds ([4 x i8]* @mul_namestr, i32 0, i32 0)), !llfi_injectfault !15
  %128 = mul i64 %fi107, 8, !llfi_index !169
  %fi108 = call i64 @injectFault0(i64 168, i64 %128, i32 12, i32 0, i32 1, i32 0, i8* getelementptr inbounds ([4 x i8]* @mul_namestr, i32 0, i32 0)), !llfi_injectfault !15
  %129 = icmp uge i64 %fi108, 4096, !llfi_index !170
  %fi41 = call i1 @injectFault1(i64 169, i1 %129, i32 46, i32 0, i32 1, i32 0, i8* getelementptr inbounds ([5 x i8]* @icmp_namestr, i32 0, i32 0)), !llfi_injectfault !15
  br i1 %fi41, label %130, label %154, !llfi_index !171

; <label>:130                                     ; preds = %123
  %131 = load i64* @pad_length, align 8, !llfi_index !172
  %fi42 = call i64 @injectFault0(i64 171, i64 %131, i32 27, i32 0, i32 1, i32 0, i8* getelementptr inbounds ([5 x i8]* @load_namestr, i32 0, i32 0)), !llfi_injectfault !15
  %132 = mul nsw i64 2, %fi42, !llfi_index !173
  %fi43 = call i64 @injectFault0(i64 172, i64 %132, i32 12, i32 0, i32 1, i32 0, i8* getelementptr inbounds ([4 x i8]* @mul_namestr, i32 0, i32 0)), !llfi_injectfault !15
  %133 = mul i64 %fi43, 8, !llfi_index !174
  %fi119 = call i64 @injectFault0(i64 173, i64 %133, i32 12, i32 0, i32 1, i32 0, i8* getelementptr inbounds ([4 x i8]* @mul_namestr, i32 0, i32 0)), !llfi_injectfault !15
  %134 = load i64* @rowsperproc, align 8, !llfi_index !175
  %fi120 = call i64 @injectFault0(i64 174, i64 %134, i32 27, i32 0, i32 1, i32 0, i8* getelementptr inbounds ([5 x i8]* @load_namestr, i32 0, i32 0)), !llfi_injectfault !15
  %135 = mul i64 %fi119, %fi120, !llfi_index !176
  %fi121 = call i64 @injectFault0(i64 175, i64 %135, i32 12, i32 0, i32 1, i32 0, i8* getelementptr inbounds ([4 x i8]* @mul_namestr, i32 0, i32 0)), !llfi_injectfault !15
  %136 = udiv i64 %fi121, 4096, !llfi_index !177
  %fi122 = call i64 @injectFault0(i64 176, i64 %136, i32 14, i32 0, i32 1, i32 0, i8* getelementptr inbounds ([5 x i8]* @udiv_namestr, i32 0, i32 0)), !llfi_injectfault !15
  store i64 %fi122, i64* %pages, align 8, !llfi_index !178
  %137 = load i64* %pages, align 8, !llfi_index !179
  %fi123 = call i64 @injectFault0(i64 178, i64 %137, i32 27, i32 0, i32 1, i32 0, i8* getelementptr inbounds ([5 x i8]* @load_namestr, i32 0, i32 0)), !llfi_injectfault !15
  %138 = mul nsw i64 %fi123, 4096, !llfi_index !180
  %fi124 = call i64 @injectFault0(i64 179, i64 %138, i32 12, i32 0, i32 1, i32 0, i8* getelementptr inbounds ([4 x i8]* @mul_namestr, i32 0, i32 0)), !llfi_injectfault !15
  %139 = load i64* @pad_length, align 8, !llfi_index !181
  %fi125 = call i64 @injectFault0(i64 180, i64 %139, i32 27, i32 0, i32 1, i32 0, i8* getelementptr inbounds ([5 x i8]* @load_namestr, i32 0, i32 0)), !llfi_injectfault !15
  %140 = mul nsw i64 2, %fi125, !llfi_index !182
  %fi126 = call i64 @injectFault0(i64 181, i64 %140, i32 12, i32 0, i32 1, i32 0, i8* getelementptr inbounds ([4 x i8]* @mul_namestr, i32 0, i32 0)), !llfi_injectfault !15
  %141 = mul i64 %fi126, 8, !llfi_index !183
  %fi127 = call i64 @injectFault0(i64 182, i64 %141, i32 12, i32 0, i32 1, i32 0, i8* getelementptr inbounds ([4 x i8]* @mul_namestr, i32 0, i32 0)), !llfi_injectfault !15
  %142 = load i64* @rowsperproc, align 8, !llfi_index !184
  %fi128 = call i64 @injectFault0(i64 183, i64 %142, i32 27, i32 0, i32 1, i32 0, i8* getelementptr inbounds ([5 x i8]* @load_namestr, i32 0, i32 0)), !llfi_injectfault !15
  %143 = mul i64 %fi127, %fi128, !llfi_index !185
  %fi129 = call i64 @injectFault0(i64 184, i64 %143, i32 12, i32 0, i32 1, i32 0, i8* getelementptr inbounds ([4 x i8]* @mul_namestr, i32 0, i32 0)), !llfi_injectfault !15
  %144 = icmp ne i64 %fi124, %fi129, !llfi_index !186
  %fi130 = call i1 @injectFault1(i64 185, i1 %144, i32 46, i32 0, i32 1, i32 0, i8* getelementptr inbounds ([5 x i8]* @icmp_namestr, i32 0, i32 0)), !llfi_injectfault !15
  br i1 %fi130, label %145, label %148, !llfi_index !187

; <label>:145                                     ; preds = %130
  %146 = load i64* %pages, align 8, !llfi_index !188
  %fi131 = call i64 @injectFault0(i64 187, i64 %146, i32 27, i32 0, i32 1, i32 0, i8* getelementptr inbounds ([5 x i8]* @load_namestr, i32 0, i32 0)), !llfi_injectfault !15
  %147 = add nsw i64 %fi131, 1, !llfi_index !189
  %fi132 = call i64 @injectFault0(i64 188, i64 %147, i32 8, i32 0, i32 1, i32 0, i8* getelementptr inbounds ([4 x i8]* @add_namestr, i32 0, i32 0)), !llfi_injectfault !15
  store i64 %fi132, i64* %pages, align 8, !llfi_index !190
  br label %148, !llfi_index !191

; <label>:148                                     ; preds = %145, %130
  %149 = load i64* %pages, align 8, !llfi_index !192
  %fi133 = call i64 @injectFault0(i64 191, i64 %149, i32 27, i32 0, i32 1, i32 0, i8* getelementptr inbounds ([5 x i8]* @load_namestr, i32 0, i32 0)), !llfi_injectfault !15
  %150 = mul nsw i64 %fi133, 4096, !llfi_index !193
  %fi134 = call i64 @injectFault0(i64 192, i64 %150, i32 12, i32 0, i32 1, i32 0, i8* getelementptr inbounds ([4 x i8]* @mul_namestr, i32 0, i32 0)), !llfi_injectfault !15
  %151 = load i64* @rowsperproc, align 8, !llfi_index !194
  %fi45 = call i64 @injectFault0(i64 193, i64 %151, i32 27, i32 0, i32 1, i32 0, i8* getelementptr inbounds ([5 x i8]* @load_namestr, i32 0, i32 0)), !llfi_injectfault !15
  %152 = mul i64 16, %fi45, !llfi_index !195
  %fi46 = call i64 @injectFault0(i64 194, i64 %152, i32 12, i32 0, i32 1, i32 0, i8* getelementptr inbounds ([4 x i8]* @mul_namestr, i32 0, i32 0)), !llfi_injectfault !15
  %153 = udiv i64 %fi134, %fi46, !llfi_index !196
  %fi47 = call i64 @injectFault0(i64 195, i64 %153, i32 14, i32 0, i32 1, i32 0, i8* getelementptr inbounds ([5 x i8]* @udiv_namestr, i32 0, i32 0)), !llfi_injectfault !15
  store i64 %fi47, i64* @pad_length, align 8, !llfi_index !197
  br label %177, !llfi_index !198

; <label>:154                                     ; preds = %123
  %155 = load i64* @rowsperproc, align 8, !llfi_index !199
  %fi48 = call i64 @injectFault0(i64 198, i64 %155, i32 27, i32 0, i32 1, i32 0, i8* getelementptr inbounds ([5 x i8]* @load_namestr, i32 0, i32 0)), !llfi_injectfault !15
  %156 = load i64* @rootN, align 8, !llfi_index !200
  %fi49 = call i64 @injectFault0(i64 199, i64 %156, i32 27, i32 0, i32 1, i32 0, i8* getelementptr inbounds ([5 x i8]* @load_namestr, i32 0, i32 0)), !llfi_injectfault !15
  %157 = mul nsw i64 %fi48, %fi49, !llfi_index !201
  %fi50 = call i64 @injectFault0(i64 200, i64 %157, i32 12, i32 0, i32 1, i32 0, i8* getelementptr inbounds ([4 x i8]* @mul_namestr, i32 0, i32 0)), !llfi_injectfault !15
  %158 = mul nsw i64 %fi50, 2, !llfi_index !202
  %fi51 = call i64 @injectFault0(i64 201, i64 %158, i32 12, i32 0, i32 1, i32 0, i8* getelementptr inbounds ([4 x i8]* @mul_namestr, i32 0, i32 0)), !llfi_injectfault !15
  %159 = mul i64 %fi51, 8, !llfi_index !203
  %fi52 = call i64 @injectFault0(i64 202, i64 %159, i32 12, i32 0, i32 1, i32 0, i8* getelementptr inbounds ([4 x i8]* @mul_namestr, i32 0, i32 0)), !llfi_injectfault !15
  %160 = sub i64 4096, %fi52, !llfi_index !204
  %fi53 = call i64 @injectFault0(i64 203, i64 %160, i32 10, i32 0, i32 1, i32 0, i8* getelementptr inbounds ([4 x i8]* @sub_namestr, i32 0, i32 0)), !llfi_injectfault !15
  %161 = load i64* @rowsperproc, align 8, !llfi_index !205
  %fi54 = call i64 @injectFault0(i64 204, i64 %161, i32 27, i32 0, i32 1, i32 0, i8* getelementptr inbounds ([5 x i8]* @load_namestr, i32 0, i32 0)), !llfi_injectfault !15
  %162 = mul i64 16, %fi54, !llfi_index !206
  %fi55 = call i64 @injectFault0(i64 205, i64 %162, i32 12, i32 0, i32 1, i32 0, i8* getelementptr inbounds ([4 x i8]* @mul_namestr, i32 0, i32 0)), !llfi_injectfault !15
  %163 = udiv i64 %fi53, %fi55, !llfi_index !207
  %fi56 = call i64 @injectFault0(i64 206, i64 %163, i32 14, i32 0, i32 1, i32 0, i8* getelementptr inbounds ([5 x i8]* @udiv_namestr, i32 0, i32 0)), !llfi_injectfault !15
  store i64 %fi56, i64* @pad_length, align 8, !llfi_index !208
  %164 = load i64* @pad_length, align 8, !llfi_index !209
  %fi57 = call i64 @injectFault0(i64 208, i64 %164, i32 27, i32 0, i32 1, i32 0, i8* getelementptr inbounds ([5 x i8]* @load_namestr, i32 0, i32 0)), !llfi_injectfault !15
  %165 = load i64* @rowsperproc, align 8, !llfi_index !210
  %fi58 = call i64 @injectFault0(i64 209, i64 %165, i32 27, i32 0, i32 1, i32 0, i8* getelementptr inbounds ([5 x i8]* @load_namestr, i32 0, i32 0)), !llfi_injectfault !15
  %166 = mul i64 16, %fi58, !llfi_index !211
  %fi59 = call i64 @injectFault0(i64 210, i64 %166, i32 12, i32 0, i32 1, i32 0, i8* getelementptr inbounds ([4 x i8]* @mul_namestr, i32 0, i32 0)), !llfi_injectfault !15
  %167 = mul i64 %fi57, %fi59, !llfi_index !212
  %fi60 = call i64 @injectFault0(i64 211, i64 %167, i32 12, i32 0, i32 1, i32 0, i8* getelementptr inbounds ([4 x i8]* @mul_namestr, i32 0, i32 0)), !llfi_injectfault !15
  %168 = load i64* @rowsperproc, align 8, !llfi_index !213
  %fi61 = call i64 @injectFault0(i64 212, i64 %168, i32 27, i32 0, i32 1, i32 0, i8* getelementptr inbounds ([5 x i8]* @load_namestr, i32 0, i32 0)), !llfi_injectfault !15
  %169 = load i64* @rootN, align 8, !llfi_index !214
  %fi62 = call i64 @injectFault0(i64 213, i64 %169, i32 27, i32 0, i32 1, i32 0, i8* getelementptr inbounds ([5 x i8]* @load_namestr, i32 0, i32 0)), !llfi_injectfault !15
  %170 = mul nsw i64 %fi61, %fi62, !llfi_index !215
  %fi63 = call i64 @injectFault0(i64 214, i64 %170, i32 12, i32 0, i32 1, i32 0, i8* getelementptr inbounds ([4 x i8]* @mul_namestr, i32 0, i32 0)), !llfi_injectfault !15
  %171 = mul nsw i64 %fi63, 2, !llfi_index !216
  %fi64 = call i64 @injectFault0(i64 215, i64 %171, i32 12, i32 0, i32 1, i32 0, i8* getelementptr inbounds ([4 x i8]* @mul_namestr, i32 0, i32 0)), !llfi_injectfault !15
  %172 = mul i64 %fi64, 8, !llfi_index !217
  %fi65 = call i64 @injectFault0(i64 216, i64 %172, i32 12, i32 0, i32 1, i32 0, i8* getelementptr inbounds ([4 x i8]* @mul_namestr, i32 0, i32 0)), !llfi_injectfault !15
  %173 = sub i64 4096, %fi65, !llfi_index !218
  %fi66 = call i64 @injectFault0(i64 217, i64 %173, i32 10, i32 0, i32 1, i32 0, i8* getelementptr inbounds ([4 x i8]* @sub_namestr, i32 0, i32 0)), !llfi_injectfault !15
  %174 = icmp ne i64 %fi60, %fi66, !llfi_index !219
  %fi67 = call i1 @injectFault1(i64 218, i1 %174, i32 46, i32 0, i32 1, i32 0, i8* getelementptr inbounds ([5 x i8]* @icmp_namestr, i32 0, i32 0)), !llfi_injectfault !15
  br i1 %fi67, label %175, label %176, !llfi_index !220

; <label>:175                                     ; preds = %154
  call void @_Z8printerrPc(i8* getelementptr inbounds ([32 x i8]* @.str23, i32 0, i32 0)), !llfi_index !221
  call void @postInjections()
  call void @exit(i32 -1) #9, !llfi_index !222
  unreachable, !llfi_index !223

; <label>:176                                     ; preds = %154
  br label %177, !llfi_index !224

; <label>:177                                     ; preds = %176, %148
  %178 = call noalias i8* @malloc(i64 48) #7, !llfi_index !225
  %179 = bitcast i8* %178 to %struct.GlobalMemory*, !llfi_index !226
  %fi68 = call %struct.GlobalMemory* @injectFault6(i64 225, %struct.GlobalMemory* %179, i32 44, i32 0, i32 1, i32 0, i8* getelementptr inbounds ([8 x i8]* @bitcast_namestr, i32 0, i32 0)), !llfi_injectfault !15
  store %struct.GlobalMemory* %fi68, %struct.GlobalMemory** @Global, align 8, !llfi_index !227
  %180 = load i64* @N, align 8, !llfi_index !228
  %fi69 = call i64 @injectFault0(i64 227, i64 %180, i32 27, i32 0, i32 1, i32 0, i8* getelementptr inbounds ([5 x i8]* @load_namestr, i32 0, i32 0)), !llfi_injectfault !15
  %181 = load i64* @rootN, align 8, !llfi_index !229
  %fi70 = call i64 @injectFault0(i64 228, i64 %181, i32 27, i32 0, i32 1, i32 0, i8* getelementptr inbounds ([5 x i8]* @load_namestr, i32 0, i32 0)), !llfi_injectfault !15
  %182 = load i64* @pad_length, align 8, !llfi_index !230
  %fi71 = call i64 @injectFault0(i64 229, i64 %182, i32 27, i32 0, i32 1, i32 0, i8* getelementptr inbounds ([5 x i8]* @load_namestr, i32 0, i32 0)), !llfi_injectfault !15
  %183 = mul nsw i64 %fi70, %fi71, !llfi_index !231
  %fi72 = call i64 @injectFault0(i64 230, i64 %183, i32 12, i32 0, i32 1, i32 0, i8* getelementptr inbounds ([4 x i8]* @mul_namestr, i32 0, i32 0)), !llfi_injectfault !15
  %184 = add nsw i64 %fi69, %fi72, !llfi_index !232
  %fi73 = call i64 @injectFault0(i64 231, i64 %184, i32 8, i32 0, i32 1, i32 0, i8* getelementptr inbounds ([4 x i8]* @add_namestr, i32 0, i32 0)), !llfi_injectfault !15
  %185 = mul nsw i64 2, %fi73, !llfi_index !233
  %fi74 = call i64 @injectFault0(i64 232, i64 %185, i32 12, i32 0, i32 1, i32 0, i8* getelementptr inbounds ([4 x i8]* @mul_namestr, i32 0, i32 0)), !llfi_injectfault !15
  %186 = mul i64 %fi74, 8, !llfi_index !234
  %fi145 = call i64 @injectFault0(i64 233, i64 %186, i32 12, i32 0, i32 1, i32 0, i8* getelementptr inbounds ([4 x i8]* @mul_namestr, i32 0, i32 0)), !llfi_injectfault !15
  %187 = add i64 %fi145, 4096, !llfi_index !235
  %fi146 = call i64 @injectFault0(i64 234, i64 %187, i32 8, i32 0, i32 1, i32 0, i8* getelementptr inbounds ([4 x i8]* @add_namestr, i32 0, i32 0)), !llfi_injectfault !15
  %188 = call noalias i8* @malloc(i64 %fi146) #7, !llfi_index !236
  %189 = bitcast i8* %188 to double*, !llfi_index !237
  %fi147 = call double* @injectFault4(i64 236, double* %189, i32 44, i32 0, i32 1, i32 0, i8* getelementptr inbounds ([8 x i8]* @bitcast_namestr, i32 0, i32 0)), !llfi_injectfault !15
  store double* %fi147, double** @x, align 8, !llfi_index !238
  %190 = load i64* @N, align 8, !llfi_index !239
  %fi148 = call i64 @injectFault0(i64 238, i64 %190, i32 27, i32 0, i32 1, i32 0, i8* getelementptr inbounds ([5 x i8]* @load_namestr, i32 0, i32 0)), !llfi_injectfault !15
  %191 = load i64* @rootN, align 8, !llfi_index !240
  %fi149 = call i64 @injectFault0(i64 239, i64 %191, i32 27, i32 0, i32 1, i32 0, i8* getelementptr inbounds ([5 x i8]* @load_namestr, i32 0, i32 0)), !llfi_injectfault !15
  %192 = load i64* @pad_length, align 8, !llfi_index !241
  %fi150 = call i64 @injectFault0(i64 240, i64 %192, i32 27, i32 0, i32 1, i32 0, i8* getelementptr inbounds ([5 x i8]* @load_namestr, i32 0, i32 0)), !llfi_injectfault !15
  %193 = mul nsw i64 %fi149, %fi150, !llfi_index !242
  %fi151 = call i64 @injectFault0(i64 241, i64 %193, i32 12, i32 0, i32 1, i32 0, i8* getelementptr inbounds ([4 x i8]* @mul_namestr, i32 0, i32 0)), !llfi_injectfault !15
  %194 = add nsw i64 %fi148, %fi151, !llfi_index !243
  %fi152 = call i64 @injectFault0(i64 242, i64 %194, i32 8, i32 0, i32 1, i32 0, i8* getelementptr inbounds ([4 x i8]* @add_namestr, i32 0, i32 0)), !llfi_injectfault !15
  %195 = mul nsw i64 2, %fi152, !llfi_index !244
  %fi153 = call i64 @injectFault0(i64 243, i64 %195, i32 12, i32 0, i32 1, i32 0, i8* getelementptr inbounds ([4 x i8]* @mul_namestr, i32 0, i32 0)), !llfi_injectfault !15
  %196 = mul i64 %fi153, 8, !llfi_index !245
  %fi154 = call i64 @injectFault0(i64 244, i64 %196, i32 12, i32 0, i32 1, i32 0, i8* getelementptr inbounds ([4 x i8]* @mul_namestr, i32 0, i32 0)), !llfi_injectfault !15
  %197 = add i64 %fi154, 4096, !llfi_index !246
  %fi155 = call i64 @injectFault0(i64 245, i64 %197, i32 8, i32 0, i32 1, i32 0, i8* getelementptr inbounds ([4 x i8]* @add_namestr, i32 0, i32 0)), !llfi_injectfault !15
  %198 = call noalias i8* @malloc(i64 %fi155) #7, !llfi_index !247
  %199 = bitcast i8* %198 to double*, !llfi_index !248
  %fi156 = call double* @injectFault4(i64 247, double* %199, i32 44, i32 0, i32 1, i32 0, i8* getelementptr inbounds ([8 x i8]* @bitcast_namestr, i32 0, i32 0)), !llfi_injectfault !15
  store double* %fi156, double** @trans, align 8, !llfi_index !249
  %200 = load i64* @rootN, align 8, !llfi_index !250
  %fi157 = call i64 @injectFault0(i64 249, i64 %200, i32 27, i32 0, i32 1, i32 0, i8* getelementptr inbounds ([5 x i8]* @load_namestr, i32 0, i32 0)), !llfi_injectfault !15
  %201 = mul nsw i64 2, %fi157, !llfi_index !251
  %fi158 = call i64 @injectFault0(i64 250, i64 %201, i32 12, i32 0, i32 1, i32 0, i8* getelementptr inbounds ([4 x i8]* @mul_namestr, i32 0, i32 0)), !llfi_injectfault !15
  %202 = mul i64 %fi158, 8, !llfi_index !252
  %fi159 = call i64 @injectFault0(i64 251, i64 %202, i32 12, i32 0, i32 1, i32 0, i8* getelementptr inbounds ([4 x i8]* @mul_namestr, i32 0, i32 0)), !llfi_injectfault !15
  %203 = call noalias i8* @malloc(i64 %fi159) #7, !llfi_index !253
  %204 = bitcast i8* %203 to double*, !llfi_index !254
  %fi160 = call double* @injectFault4(i64 253, double* %204, i32 44, i32 0, i32 1, i32 0, i8* getelementptr inbounds ([8 x i8]* @bitcast_namestr, i32 0, i32 0)), !llfi_injectfault !15
  store double* %fi160, double** @umain, align 8, !llfi_index !255
  %205 = load i64* @N, align 8, !llfi_index !256
  %fi161 = call i64 @injectFault0(i64 255, i64 %205, i32 27, i32 0, i32 1, i32 0, i8* getelementptr inbounds ([5 x i8]* @load_namestr, i32 0, i32 0)), !llfi_injectfault !15
  %206 = load i64* @rootN, align 8, !llfi_index !257
  %fi162 = call i64 @injectFault0(i64 256, i64 %206, i32 27, i32 0, i32 1, i32 0, i8* getelementptr inbounds ([5 x i8]* @load_namestr, i32 0, i32 0)), !llfi_injectfault !15
  %207 = load i64* @pad_length, align 8, !llfi_index !258
  %fi163 = call i64 @injectFault0(i64 257, i64 %207, i32 27, i32 0, i32 1, i32 0, i8* getelementptr inbounds ([5 x i8]* @load_namestr, i32 0, i32 0)), !llfi_injectfault !15
  %208 = mul nsw i64 %fi162, %fi163, !llfi_index !259
  %fi164 = call i64 @injectFault0(i64 258, i64 %208, i32 12, i32 0, i32 1, i32 0, i8* getelementptr inbounds ([4 x i8]* @mul_namestr, i32 0, i32 0)), !llfi_injectfault !15
  %209 = add nsw i64 %fi161, %fi164, !llfi_index !260
  %fi165 = call i64 @injectFault0(i64 259, i64 %209, i32 8, i32 0, i32 1, i32 0, i8* getelementptr inbounds ([4 x i8]* @add_namestr, i32 0, i32 0)), !llfi_injectfault !15
  %210 = mul nsw i64 2, %fi165, !llfi_index !261
  %fi166 = call i64 @injectFault0(i64 260, i64 %210, i32 12, i32 0, i32 1, i32 0, i8* getelementptr inbounds ([4 x i8]* @mul_namestr, i32 0, i32 0)), !llfi_injectfault !15
  %211 = mul i64 %fi166, 8, !llfi_index !262
  %fi167 = call i64 @injectFault0(i64 261, i64 %211, i32 12, i32 0, i32 1, i32 0, i8* getelementptr inbounds ([4 x i8]* @mul_namestr, i32 0, i32 0)), !llfi_injectfault !15
  %212 = add i64 %fi167, 4096, !llfi_index !263
  %fi168 = call i64 @injectFault0(i64 262, i64 %212, i32 8, i32 0, i32 1, i32 0, i8* getelementptr inbounds ([4 x i8]* @add_namestr, i32 0, i32 0)), !llfi_injectfault !15
  %213 = call noalias i8* @malloc(i64 %fi168) #7, !llfi_index !264
  %214 = bitcast i8* %213 to double*, !llfi_index !265
  %fi169 = call double* @injectFault4(i64 264, double* %214, i32 44, i32 0, i32 1, i32 0, i8* getelementptr inbounds ([8 x i8]* @bitcast_namestr, i32 0, i32 0)), !llfi_injectfault !15
  store double* %fi169, double** @umain2, align 8, !llfi_index !266
  %215 = load i64* @P, align 8, !llfi_index !267
  %fi170 = call i64 @injectFault0(i64 266, i64 %215, i32 27, i32 0, i32 1, i32 0, i8* getelementptr inbounds ([5 x i8]* @load_namestr, i32 0, i32 0)), !llfi_injectfault !15
  %216 = mul i64 %fi170, 8, !llfi_index !268
  %fi171 = call i64 @injectFault0(i64 267, i64 %216, i32 12, i32 0, i32 1, i32 0, i8* getelementptr inbounds ([4 x i8]* @mul_namestr, i32 0, i32 0)), !llfi_injectfault !15
  %217 = call noalias i8* @malloc(i64 %fi171) #7, !llfi_index !269
  %218 = bitcast i8* %217 to i64*, !llfi_index !270
  %fi172 = call i64* @injectFault8(i64 269, i64* %218, i32 44, i32 0, i32 1, i32 0, i8* getelementptr inbounds ([8 x i8]* @bitcast_namestr, i32 0, i32 0)), !llfi_injectfault !15
  %219 = load %struct.GlobalMemory** @Global, align 8, !llfi_index !271
  %fi173 = call %struct.GlobalMemory* @injectFault6(i64 270, %struct.GlobalMemory* %219, i32 27, i32 0, i32 1, i32 0, i8* getelementptr inbounds ([5 x i8]* @load_namestr, i32 0, i32 0)), !llfi_injectfault !15
  %220 = getelementptr %struct.GlobalMemory* %fi173, i32 0, i32 1, !llfi_index !272
  %fi174 = call i64** @injectFault9(i64 271, i64** %220, i32 29, i32 0, i32 1, i32 0, i8* getelementptr inbounds ([14 x i8]* @getelementptr_namestr, i32 0, i32 0)), !llfi_injectfault !15
  store i64* %fi172, i64** %fi174, align 8, !llfi_index !273
  %221 = load i64* @P, align 8, !llfi_index !274
  %fi175 = call i64 @injectFault0(i64 273, i64 %221, i32 27, i32 0, i32 1, i32 0, i8* getelementptr inbounds ([5 x i8]* @load_namestr, i32 0, i32 0)), !llfi_injectfault !15
  %222 = mul i64 %fi175, 8, !llfi_index !275
  %fi176 = call i64 @injectFault0(i64 274, i64 %222, i32 12, i32 0, i32 1, i32 0, i8* getelementptr inbounds ([4 x i8]* @mul_namestr, i32 0, i32 0)), !llfi_injectfault !15
  %223 = call noalias i8* @malloc(i64 %fi176) #7, !llfi_index !276
  %224 = bitcast i8* %223 to i64*, !llfi_index !277
  %fi177 = call i64* @injectFault8(i64 276, i64* %224, i32 44, i32 0, i32 1, i32 0, i8* getelementptr inbounds ([8 x i8]* @bitcast_namestr, i32 0, i32 0)), !llfi_injectfault !15
  %225 = load %struct.GlobalMemory** @Global, align 8, !llfi_index !278
  %fi178 = call %struct.GlobalMemory* @injectFault6(i64 277, %struct.GlobalMemory* %225, i32 27, i32 0, i32 1, i32 0, i8* getelementptr inbounds ([5 x i8]* @load_namestr, i32 0, i32 0)), !llfi_injectfault !15
  %226 = getelementptr %struct.GlobalMemory* %fi178, i32 0, i32 2, !llfi_index !279
  %fi179 = call i64** @injectFault9(i64 278, i64** %226, i32 29, i32 0, i32 1, i32 0, i8* getelementptr inbounds ([14 x i8]* @getelementptr_namestr, i32 0, i32 0)), !llfi_injectfault !15
  store i64* %fi177, i64** %fi179, align 8, !llfi_index !280
  %227 = load %struct.GlobalMemory** @Global, align 8, !llfi_index !281
  %fi180 = call %struct.GlobalMemory* @injectFault6(i64 280, %struct.GlobalMemory* %227, i32 27, i32 0, i32 1, i32 0, i8* getelementptr inbounds ([5 x i8]* @load_namestr, i32 0, i32 0)), !llfi_injectfault !15
  %228 = icmp eq %struct.GlobalMemory* %fi180, null, !llfi_index !282
  %fi181 = call i1 @injectFault1(i64 281, i1 %228, i32 46, i32 0, i32 1, i32 0, i8* getelementptr inbounds ([5 x i8]* @icmp_namestr, i32 0, i32 0)), !llfi_injectfault !15
  br i1 %fi181, label %229, label %230, !llfi_index !283

; <label>:229                                     ; preds = %177
  call void @_Z8printerrPc(i8* getelementptr inbounds ([36 x i8]* @.str24, i32 0, i32 0)), !llfi_index !284
  call void @postInjections()
  call void @exit(i32 -1) #9, !llfi_index !285
  unreachable, !llfi_index !286

; <label>:230                                     ; preds = %177
  %231 = load double** @x, align 8, !llfi_index !287
  %fi182 = call double* @injectFault4(i64 286, double* %231, i32 27, i32 0, i32 1, i32 0, i8* getelementptr inbounds ([5 x i8]* @load_namestr, i32 0, i32 0)), !llfi_injectfault !15
  %232 = icmp eq double* %fi182, null, !llfi_index !288
  %fi183 = call i1 @injectFault1(i64 287, i1 %232, i32 46, i32 0, i32 1, i32 0, i8* getelementptr inbounds ([5 x i8]* @icmp_namestr, i32 0, i32 0)), !llfi_injectfault !15
  br i1 %fi183, label %233, label %234, !llfi_index !289

; <label>:233                                     ; preds = %230
  call void @_Z8printerrPc(i8* getelementptr inbounds ([31 x i8]* @.str25, i32 0, i32 0)), !llfi_index !290
  call void @postInjections()
  call void @exit(i32 -1) #9, !llfi_index !291
  unreachable, !llfi_index !292

; <label>:234                                     ; preds = %230
  %235 = load double** @trans, align 8, !llfi_index !293
  %fi184 = call double* @injectFault4(i64 292, double* %235, i32 27, i32 0, i32 1, i32 0, i8* getelementptr inbounds ([5 x i8]* @load_namestr, i32 0, i32 0)), !llfi_injectfault !15
  %236 = icmp eq double* %fi184, null, !llfi_index !294
  %fi185 = call i1 @injectFault1(i64 293, i1 %236, i32 46, i32 0, i32 1, i32 0, i8* getelementptr inbounds ([5 x i8]* @icmp_namestr, i32 0, i32 0)), !llfi_injectfault !15
  br i1 %fi185, label %237, label %238, !llfi_index !295

; <label>:237                                     ; preds = %234
  call void @_Z8printerrPc(i8* getelementptr inbounds ([35 x i8]* @.str26, i32 0, i32 0)), !llfi_index !296
  call void @postInjections()
  call void @exit(i32 -1) #9, !llfi_index !297
  unreachable, !llfi_index !298

; <label>:238                                     ; preds = %234
  %239 = load double** @umain, align 8, !llfi_index !299
  %fi186 = call double* @injectFault4(i64 298, double* %239, i32 27, i32 0, i32 1, i32 0, i8* getelementptr inbounds ([5 x i8]* @load_namestr, i32 0, i32 0)), !llfi_injectfault !15
  %240 = icmp eq double* %fi186, null, !llfi_index !300
  %fi187 = call i1 @injectFault1(i64 299, i1 %240, i32 46, i32 0, i32 1, i32 0, i8* getelementptr inbounds ([5 x i8]* @icmp_namestr, i32 0, i32 0)), !llfi_injectfault !15
  br i1 %fi187, label %241, label %242, !llfi_index !301

; <label>:241                                     ; preds = %238
  call void @_Z8printerrPc(i8* getelementptr inbounds ([35 x i8]* @.str27, i32 0, i32 0)), !llfi_index !302
  call void @postInjections()
  call void @exit(i32 -1) #9, !llfi_index !303
  unreachable, !llfi_index !304

; <label>:242                                     ; preds = %238
  %243 = load double** @umain2, align 8, !llfi_index !305
  %fi188 = call double* @injectFault4(i64 304, double* %243, i32 27, i32 0, i32 1, i32 0, i8* getelementptr inbounds ([5 x i8]* @load_namestr, i32 0, i32 0)), !llfi_injectfault !15
  %244 = icmp eq double* %fi188, null, !llfi_index !306
  %fi189 = call i1 @injectFault1(i64 305, i1 %244, i32 46, i32 0, i32 1, i32 0, i8* getelementptr inbounds ([5 x i8]* @icmp_namestr, i32 0, i32 0)), !llfi_injectfault !15
  br i1 %fi189, label %245, label %246, !llfi_index !307

; <label>:245                                     ; preds = %242
  call void @_Z8printerrPc(i8* getelementptr inbounds ([36 x i8]* @.str28, i32 0, i32 0)), !llfi_index !308
  call void @postInjections()
  call void @exit(i32 -1) #9, !llfi_index !309
  unreachable, !llfi_index !310

; <label>:246                                     ; preds = %242
  br label %247, !llfi_index !311

; <label>:247                                     ; preds = %246
  br label %248, !llfi_index !312

; <label>:248                                     ; preds = %247
  br label %249, !llfi_index !313

; <label>:249                                     ; preds = %248
  br label %250, !llfi_index !314

; <label>:250                                     ; preds = %249
  %251 = load double** @x, align 8, !llfi_index !315
  %fi190 = call double* @injectFault4(i64 314, double* %251, i32 27, i32 0, i32 1, i32 0, i8* getelementptr inbounds ([5 x i8]* @load_namestr, i32 0, i32 0)), !llfi_injectfault !15
  %252 = ptrtoint double* %fi190 to i64, !llfi_index !316
  %fi191 = call i64 @injectFault0(i64 315, i64 %252, i32 42, i32 0, i32 1, i32 0, i8* getelementptr inbounds ([9 x i8]* @ptrtoint_namestr, i32 0, i32 0)), !llfi_injectfault !15
  %253 = add i64 %fi191, 4096, !llfi_index !317
  %fi192 = call i64 @injectFault0(i64 316, i64 %253, i32 8, i32 0, i32 1, i32 0, i8* getelementptr inbounds ([4 x i8]* @add_namestr, i32 0, i32 0)), !llfi_injectfault !15
  %254 = load double** @x, align 8, !llfi_index !318
  %fi193 = call double* @injectFault4(i64 317, double* %254, i32 27, i32 0, i32 1, i32 0, i8* getelementptr inbounds ([5 x i8]* @load_namestr, i32 0, i32 0)), !llfi_injectfault !15
  %255 = ptrtoint double* %fi193 to i64, !llfi_index !319
  %fi194 = call i64 @injectFault0(i64 318, i64 %255, i32 42, i32 0, i32 1, i32 0, i8* getelementptr inbounds ([9 x i8]* @ptrtoint_namestr, i32 0, i32 0)), !llfi_injectfault !15
  %256 = urem i64 %fi194, 4096, !llfi_index !320
  %fi195 = call i64 @injectFault0(i64 319, i64 %256, i32 17, i32 0, i32 1, i32 0, i8* getelementptr inbounds ([5 x i8]* @urem_namestr, i32 0, i32 0)), !llfi_injectfault !15
  %257 = sub i64 %fi192, %fi195, !llfi_index !321
  %fi109 = call i64 @injectFault0(i64 320, i64 %257, i32 10, i32 0, i32 1, i32 0, i8* getelementptr inbounds ([4 x i8]* @sub_namestr, i32 0, i32 0)), !llfi_injectfault !15
  %258 = inttoptr i64 %fi109 to double*, !llfi_index !322
  %fi110 = call double* @injectFault4(i64 321, double* %258, i32 43, i32 0, i32 1, i32 0, i8* getelementptr inbounds ([9 x i8]* @inttoptr_namestr, i32 0, i32 0)), !llfi_injectfault !15
  store double* %fi110, double** @x, align 8, !llfi_index !323
  %259 = load double** @trans, align 8, !llfi_index !324
  %fi111 = call double* @injectFault4(i64 323, double* %259, i32 27, i32 0, i32 1, i32 0, i8* getelementptr inbounds ([5 x i8]* @load_namestr, i32 0, i32 0)), !llfi_injectfault !15
  %260 = ptrtoint double* %fi111 to i64, !llfi_index !325
  %fi112 = call i64 @injectFault0(i64 324, i64 %260, i32 42, i32 0, i32 1, i32 0, i8* getelementptr inbounds ([9 x i8]* @ptrtoint_namestr, i32 0, i32 0)), !llfi_injectfault !15
  %261 = add i64 %fi112, 4096, !llfi_index !326
  %fi113 = call i64 @injectFault0(i64 325, i64 %261, i32 8, i32 0, i32 1, i32 0, i8* getelementptr inbounds ([4 x i8]* @add_namestr, i32 0, i32 0)), !llfi_injectfault !15
  %262 = load double** @trans, align 8, !llfi_index !327
  %fi114 = call double* @injectFault4(i64 326, double* %262, i32 27, i32 0, i32 1, i32 0, i8* getelementptr inbounds ([5 x i8]* @load_namestr, i32 0, i32 0)), !llfi_injectfault !15
  %263 = ptrtoint double* %fi114 to i64, !llfi_index !328
  %fi115 = call i64 @injectFault0(i64 327, i64 %263, i32 42, i32 0, i32 1, i32 0, i8* getelementptr inbounds ([9 x i8]* @ptrtoint_namestr, i32 0, i32 0)), !llfi_injectfault !15
  %264 = urem i64 %fi115, 4096, !llfi_index !329
  %fi116 = call i64 @injectFault0(i64 328, i64 %264, i32 17, i32 0, i32 1, i32 0, i8* getelementptr inbounds ([5 x i8]* @urem_namestr, i32 0, i32 0)), !llfi_injectfault !15
  %265 = sub i64 %fi113, %fi116, !llfi_index !330
  %fi117 = call i64 @injectFault0(i64 329, i64 %265, i32 10, i32 0, i32 1, i32 0, i8* getelementptr inbounds ([4 x i8]* @sub_namestr, i32 0, i32 0)), !llfi_injectfault !15
  %266 = inttoptr i64 %fi117 to double*, !llfi_index !331
  %fi118 = call double* @injectFault4(i64 330, double* %266, i32 43, i32 0, i32 1, i32 0, i8* getelementptr inbounds ([9 x i8]* @inttoptr_namestr, i32 0, i32 0)), !llfi_injectfault !15
  store double* %fi118, double** @trans, align 8, !llfi_index !332
  %267 = load double** @umain2, align 8, !llfi_index !333
  %fi196 = call double* @injectFault4(i64 332, double* %267, i32 27, i32 0, i32 1, i32 0, i8* getelementptr inbounds ([5 x i8]* @load_namestr, i32 0, i32 0)), !llfi_injectfault !15
  %268 = ptrtoint double* %fi196 to i64, !llfi_index !334
  %fi197 = call i64 @injectFault0(i64 333, i64 %268, i32 42, i32 0, i32 1, i32 0, i8* getelementptr inbounds ([9 x i8]* @ptrtoint_namestr, i32 0, i32 0)), !llfi_injectfault !15
  %269 = add i64 %fi197, 4096, !llfi_index !335
  %fi198 = call i64 @injectFault0(i64 334, i64 %269, i32 8, i32 0, i32 1, i32 0, i8* getelementptr inbounds ([4 x i8]* @add_namestr, i32 0, i32 0)), !llfi_injectfault !15
  %270 = load double** @umain2, align 8, !llfi_index !336
  %fi199 = call double* @injectFault4(i64 335, double* %270, i32 27, i32 0, i32 1, i32 0, i8* getelementptr inbounds ([5 x i8]* @load_namestr, i32 0, i32 0)), !llfi_injectfault !15
  %271 = ptrtoint double* %fi199 to i64, !llfi_index !337
  %fi200 = call i64 @injectFault0(i64 336, i64 %271, i32 42, i32 0, i32 1, i32 0, i8* getelementptr inbounds ([9 x i8]* @ptrtoint_namestr, i32 0, i32 0)), !llfi_injectfault !15
  %272 = urem i64 %fi200, 4096, !llfi_index !338
  %fi201 = call i64 @injectFault0(i64 337, i64 %272, i32 17, i32 0, i32 1, i32 0, i8* getelementptr inbounds ([5 x i8]* @urem_namestr, i32 0, i32 0)), !llfi_injectfault !15
  %273 = sub i64 %fi198, %fi201, !llfi_index !339
  %fi202 = call i64 @injectFault0(i64 338, i64 %273, i32 10, i32 0, i32 1, i32 0, i8* getelementptr inbounds ([4 x i8]* @sub_namestr, i32 0, i32 0)), !llfi_injectfault !15
  %274 = inttoptr i64 %fi202 to double*, !llfi_index !340
  %fi203 = call double* @injectFault4(i64 339, double* %274, i32 43, i32 0, i32 1, i32 0, i8* getelementptr inbounds ([9 x i8]* @inttoptr_namestr, i32 0, i32 0)), !llfi_injectfault !15
  store double* %fi203, double** @umain2, align 8, !llfi_index !341
  %275 = load %struct.GlobalMemory** @Global, align 8, !llfi_index !342
  %fi204 = call %struct.GlobalMemory* @injectFault6(i64 341, %struct.GlobalMemory* %275, i32 27, i32 0, i32 1, i32 0, i8* getelementptr inbounds ([5 x i8]* @load_namestr, i32 0, i32 0)), !llfi_injectfault !15
  %276 = getelementptr %struct.GlobalMemory* %fi204, i32 0, i32 0, !llfi_index !343
  %fi205 = call i64* @injectFault8(i64 342, i64* %276, i32 29, i32 0, i32 1, i32 0, i8* getelementptr inbounds ([14 x i8]* @getelementptr_namestr, i32 0, i32 0)), !llfi_injectfault !15
  store i64 0, i64* %fi205, align 8, !llfi_index !344
  %277 = load double** @x, align 8, !llfi_index !345
  %fi206 = call double* @injectFault4(i64 344, double* %277, i32 27, i32 0, i32 1, i32 0, i8* getelementptr inbounds ([5 x i8]* @load_namestr, i32 0, i32 0)), !llfi_injectfault !15
  call void @_Z5InitXPd(double* %fi206), !llfi_index !346
  %278 = load i64* @test_result, align 8, !llfi_index !347
  %fi207 = call i64 @injectFault0(i64 346, i64 %278, i32 27, i32 0, i32 1, i32 0, i8* getelementptr inbounds ([5 x i8]* @load_namestr, i32 0, i32 0)), !llfi_injectfault !15
  %279 = icmp ne i64 %fi207, 0, !llfi_index !348
  %fi208 = call i1 @injectFault1(i64 347, i1 %279, i32 46, i32 0, i32 1, i32 0, i8* getelementptr inbounds ([5 x i8]* @icmp_namestr, i32 0, i32 0)), !llfi_injectfault !15
  br i1 %fi208, label %280, label %283, !llfi_index !349

; <label>:280                                     ; preds = %250
  %281 = load double** @x, align 8, !llfi_index !350
  %fi209 = call double* @injectFault4(i64 349, double* %281, i32 27, i32 0, i32 1, i32 0, i8* getelementptr inbounds ([5 x i8]* @load_namestr, i32 0, i32 0)), !llfi_injectfault !15
  %282 = call double @_Z8CheckSumPd(double* %fi209), !llfi_index !351
  store double %282, double* @ck1, align 8, !llfi_index !352
  br label %283, !llfi_index !353

; <label>:283                                     ; preds = %280, %250
  %284 = load i64* @doprint, align 8, !llfi_index !354
  %fi210 = call i64 @injectFault0(i64 353, i64 %284, i32 27, i32 0, i32 1, i32 0, i8* getelementptr inbounds ([5 x i8]* @load_namestr, i32 0, i32 0)), !llfi_injectfault !15
  %285 = icmp ne i64 %fi210, 0, !llfi_index !355
  %fi211 = call i1 @injectFault1(i64 354, i1 %285, i32 46, i32 0, i32 1, i32 0, i8* getelementptr inbounds ([5 x i8]* @icmp_namestr, i32 0, i32 0)), !llfi_injectfault !15
  br i1 %fi211, label %286, label %290, !llfi_index !356

; <label>:286                                     ; preds = %283
  %287 = call i32 (i8*, ...)* @printf(i8* getelementptr inbounds ([23 x i8]* @.str29, i32 0, i32 0)), !llfi_index !357
  %288 = load i64* @N, align 8, !llfi_index !358
  %fi212 = call i64 @injectFault0(i64 357, i64 %288, i32 27, i32 0, i32 1, i32 0, i8* getelementptr inbounds ([5 x i8]* @load_namestr, i32 0, i32 0)), !llfi_injectfault !15
  %289 = load double** @x, align 8, !llfi_index !359
  %fi213 = call double* @injectFault4(i64 358, double* %289, i32 27, i32 0, i32 1, i32 0, i8* getelementptr inbounds ([5 x i8]* @load_namestr, i32 0, i32 0)), !llfi_injectfault !15
  call void @_Z10PrintArraylPd(i64 %fi212, double* %fi213), !llfi_index !360
  br label %290, !llfi_index !361

; <label>:290                                     ; preds = %286, %283
  %291 = load i64* @N, align 8, !llfi_index !362
  %fi8 = call i64 @injectFault0(i64 361, i64 %291, i32 27, i32 0, i32 1, i32 0, i8* getelementptr inbounds ([5 x i8]* @load_namestr, i32 0, i32 0)), !llfi_injectfault !15
  %292 = load double** @umain, align 8, !llfi_index !363
  %fi9 = call double* @injectFault4(i64 362, double* %292, i32 27, i32 0, i32 1, i32 0, i8* getelementptr inbounds ([5 x i8]* @load_namestr, i32 0, i32 0)), !llfi_injectfault !15
  call void @_Z5InitUlPd(i64 %fi8, double* %fi9), !llfi_index !364
  %293 = load i64* @N, align 8, !llfi_index !365
  %fi214 = call i64 @injectFault0(i64 364, i64 %293, i32 27, i32 0, i32 1, i32 0, i8* getelementptr inbounds ([5 x i8]* @load_namestr, i32 0, i32 0)), !llfi_injectfault !15
  %294 = load double** @umain2, align 8, !llfi_index !366
  %fi215 = call double* @injectFault4(i64 365, double* %294, i32 27, i32 0, i32 1, i32 0, i8* getelementptr inbounds ([5 x i8]* @load_namestr, i32 0, i32 0)), !llfi_injectfault !15
  %295 = load i64* @rootN, align 8, !llfi_index !367
  %fi216 = call i64 @injectFault0(i64 366, i64 %295, i32 27, i32 0, i32 1, i32 0, i8* getelementptr inbounds ([5 x i8]* @load_namestr, i32 0, i32 0)), !llfi_injectfault !15
  call void @_Z6InitU2lPdl(i64 %fi214, double* %fi215, i64 %fi216), !llfi_index !368
  call void @_Z10SlaveStartv(), !llfi_index !369
  %296 = load i64* @test_result, align 8, !llfi_index !370
  %fi217 = call i64 @injectFault0(i64 369, i64 %296, i32 27, i32 0, i32 1, i32 0, i8* getelementptr inbounds ([5 x i8]* @load_namestr, i32 0, i32 0)), !llfi_injectfault !15
  %297 = icmp ne i64 %fi217, 0, !llfi_index !371
  %fi218 = call i1 @injectFault1(i64 370, i1 %297, i32 46, i32 0, i32 1, i32 0, i8* getelementptr inbounds ([5 x i8]* @icmp_namestr, i32 0, i32 0)), !llfi_injectfault !15
  br i1 %fi218, label %298, label %300, !llfi_index !372

; <label>:298                                     ; preds = %290
  %299 = call i32 (i8*, ...)* @printf(i8* getelementptr inbounds ([32 x i8]* @.str30, i32 0, i32 0)), !llfi_index !373
  br label %302, !llfi_index !374

; <label>:300                                     ; preds = %290
  %301 = call i32 (i8*, ...)* @printf(i8* getelementptr inbounds ([24 x i8]* @.str31, i32 0, i32 0)), !llfi_index !375
  br label %302, !llfi_index !376

; <label>:302                                     ; preds = %300, %298
  %303 = load i64* @N, align 8, !llfi_index !377
  %fi219 = call i64 @injectFault0(i64 376, i64 %303, i32 27, i32 0, i32 1, i32 0, i8* getelementptr inbounds ([5 x i8]* @load_namestr, i32 0, i32 0)), !llfi_injectfault !15
  %304 = load double** @x, align 8, !llfi_index !378
  %fi220 = call double* @injectFault4(i64 377, double* %304, i32 27, i32 0, i32 1, i32 0, i8* getelementptr inbounds ([5 x i8]* @load_namestr, i32 0, i32 0)), !llfi_injectfault !15
  call void @_Z10PrintArraylPd(i64 %fi219, double* %fi220), !llfi_index !379
  %305 = load i64* @test_result, align 8, !llfi_index !380
  %fi221 = call i64 @injectFault0(i64 379, i64 %305, i32 27, i32 0, i32 1, i32 0, i8* getelementptr inbounds ([5 x i8]* @load_namestr, i32 0, i32 0)), !llfi_injectfault !15
  %306 = icmp ne i64 %fi221, 0, !llfi_index !381
  %fi222 = call i1 @injectFault1(i64 380, i1 %306, i32 46, i32 0, i32 1, i32 0, i8* getelementptr inbounds ([5 x i8]* @icmp_namestr, i32 0, i32 0)), !llfi_injectfault !15
  br i1 %fi222, label %307, label %327, !llfi_index !382

; <label>:307                                     ; preds = %302
  %308 = load double** @x, align 8, !llfi_index !383
  %fi223 = call double* @injectFault4(i64 382, double* %308, i32 27, i32 0, i32 1, i32 0, i8* getelementptr inbounds ([5 x i8]* @load_namestr, i32 0, i32 0)), !llfi_injectfault !15
  %309 = call double @_Z8CheckSumPd(double* %fi223), !llfi_index !384
  store double %309, double* @ck3, align 8, !llfi_index !385
  %310 = call i32 (i8*, ...)* @printf(i8* getelementptr inbounds ([26 x i8]* @.str32, i32 0, i32 0)), !llfi_index !386
  %311 = load double* @ck1, align 8, !llfi_index !387
  %fi135 = call double @injectFault7(i64 386, double %311, i32 27, i32 0, i32 1, i32 0, i8* getelementptr inbounds ([5 x i8]* @load_namestr, i32 0, i32 0)), !llfi_injectfault !15
  %312 = load double* @ck3, align 8, !llfi_index !388
  %fi136 = call double @injectFault7(i64 387, double %312, i32 27, i32 0, i32 1, i32 0, i8* getelementptr inbounds ([5 x i8]* @load_namestr, i32 0, i32 0)), !llfi_injectfault !15
  %313 = fsub double %fi135, %fi136, !llfi_index !389
  %fi137 = call double @injectFault7(i64 388, double %313, i32 11, i32 0, i32 1, i32 0, i8* getelementptr inbounds ([5 x i8]* @fsub_namestr, i32 0, i32 0)), !llfi_injectfault !15
  %314 = load double* @ck1, align 8, !llfi_index !390
  %fi138 = call double @injectFault7(i64 389, double %314, i32 27, i32 0, i32 1, i32 0, i8* getelementptr inbounds ([5 x i8]* @load_namestr, i32 0, i32 0)), !llfi_injectfault !15
  %315 = load double* @ck3, align 8, !llfi_index !391
  %fi139 = call double @injectFault7(i64 390, double %315, i32 27, i32 0, i32 1, i32 0, i8* getelementptr inbounds ([5 x i8]* @load_namestr, i32 0, i32 0)), !llfi_injectfault !15
  %316 = call i32 (i8*, ...)* @printf(i8* getelementptr inbounds ([42 x i8]* @.str33, i32 0, i32 0), double %fi137, double %fi138, double %fi139), !llfi_index !392
  %317 = load double* @ck1, align 8, !llfi_index !393
  %fi140 = call double @injectFault7(i64 392, double %317, i32 27, i32 0, i32 1, i32 0, i8* getelementptr inbounds ([5 x i8]* @load_namestr, i32 0, i32 0)), !llfi_injectfault !15
  %318 = load double* @ck3, align 8, !llfi_index !394
  %fi141 = call double @injectFault7(i64 393, double %318, i32 27, i32 0, i32 1, i32 0, i8* getelementptr inbounds ([5 x i8]* @load_namestr, i32 0, i32 0)), !llfi_injectfault !15
  %319 = fsub double %fi140, %fi141, !llfi_index !395
  %fi142 = call double @injectFault7(i64 394, double %319, i32 11, i32 0, i32 1, i32 0, i8* getelementptr inbounds ([5 x i8]* @fsub_namestr, i32 0, i32 0)), !llfi_injectfault !15
  %320 = call double @fabs(double %fi142) #10, !llfi_index !396
  %321 = fcmp olt double %320, 1.000000e-03, !llfi_index !397
  %fi143 = call i1 @injectFault1(i64 396, i1 %321, i32 47, i32 0, i32 1, i32 0, i8* getelementptr inbounds ([5 x i8]* @fcmp_namestr, i32 0, i32 0)), !llfi_injectfault !15
  br i1 %fi143, label %322, label %324, !llfi_index !398

; <label>:322                                     ; preds = %307
  %323 = call i32 (i8*, ...)* @printf(i8* getelementptr inbounds ([13 x i8]* @.str34, i32 0, i32 0)), !llfi_index !399
  br label %326, !llfi_index !400

; <label>:324                                     ; preds = %307
  %325 = call i32 (i8*, ...)* @printf(i8* getelementptr inbounds ([13 x i8]* @.str35, i32 0, i32 0)), !llfi_index !401
  br label %326, !llfi_index !402

; <label>:326                                     ; preds = %324, %322
  br label %327, !llfi_index !403

; <label>:327                                     ; preds = %326, %302
  %328 = load i32* %1, !llfi_index !404
  %fi144 = call i32 @injectFault2(i64 403, i32 %328, i32 27, i32 0, i32 1, i32 0, i8* getelementptr inbounds ([5 x i8]* @load_namestr, i32 0, i32 0)), !llfi_injectfault !15
  call void @postInjections()
  ret i32 %fi144, !llfi_index !405
}

; Function Attrs: nounwind
declare i32 @getopt(i32, i8**, i8*) #1

; Function Attrs: nounwind readonly
declare i32 @atoi(i8*) #2

; Function Attrs: uwtable
define void @_Z8printerrPc(i8* %s) #0 {
  %1 = alloca i8*, align 8, !llfi_index !406
  store i8* %s, i8** %1, align 8, !llfi_index !407
  %2 = load %struct._IO_FILE** @stderr, align 8, !llfi_index !408
  %fi = call %struct._IO_FILE* @injectFault10(i64 407, %struct._IO_FILE* %2, i32 27, i32 0, i32 1, i32 0, i8* getelementptr inbounds ([5 x i8]* @load_namestr, i32 0, i32 0)), !llfi_injectfault !15
  %3 = load i8** %1, align 8, !llfi_index !409
  %fi1 = call i8* @injectFault5(i64 408, i8* %3, i32 27, i32 0, i32 1, i32 0, i8* getelementptr inbounds ([5 x i8]* @load_namestr, i32 0, i32 0)), !llfi_injectfault !15
  %4 = call i32 (%struct._IO_FILE*, i8*, ...)* @fprintf(%struct._IO_FILE* %fi, i8* getelementptr inbounds ([11 x i8]* @.str40, i32 0, i32 0), i8* %fi1), !llfi_index !410
  ret void, !llfi_index !411
}

; Function Attrs: noreturn nounwind
declare void @exit(i32) #3

; Function Attrs: nounwind uwtable
define i64 @_Z5log_2l(i64 %number) #4 {
  %1 = alloca i64, align 8, !llfi_index !412
  %2 = alloca i64, align 8, !llfi_index !413
  %cumulative = alloca i64, align 8, !llfi_index !414
  %out = alloca i64, align 8, !llfi_index !415
  %done = alloca i64, align 8, !llfi_index !416
  store i64 %number, i64* %2, align 8, !llfi_index !417
  store i64 1, i64* %cumulative, align 8, !llfi_index !418
  store i64 0, i64* %out, align 8, !llfi_index !419
  store i64 0, i64* %done, align 8, !llfi_index !420
  br label %3, !llfi_index !421

; <label>:3                                       ; preds = %25, %0
  %4 = load i64* %cumulative, align 8, !llfi_index !422
  %fi = call i64 @injectFault0(i64 421, i64 %4, i32 27, i32 0, i32 1, i32 0, i8* getelementptr inbounds ([5 x i8]* @load_namestr, i32 0, i32 0)), !llfi_injectfault !15
  %5 = load i64* %2, align 8, !llfi_index !423
  %fi1 = call i64 @injectFault0(i64 422, i64 %5, i32 27, i32 0, i32 1, i32 0, i8* getelementptr inbounds ([5 x i8]* @load_namestr, i32 0, i32 0)), !llfi_injectfault !15
  %6 = icmp slt i64 %fi, %fi1, !llfi_index !424
  %fi2 = call i1 @injectFault1(i64 423, i1 %6, i32 46, i32 0, i32 1, i32 0, i8* getelementptr inbounds ([5 x i8]* @icmp_namestr, i32 0, i32 0)), !llfi_injectfault !15
  br i1 %fi2, label %7, label %13, !llfi_index !425

; <label>:7                                       ; preds = %3
  %8 = load i64* %done, align 8, !llfi_index !426
  %fi3 = call i64 @injectFault0(i64 425, i64 %8, i32 27, i32 0, i32 1, i32 0, i8* getelementptr inbounds ([5 x i8]* @load_namestr, i32 0, i32 0)), !llfi_injectfault !15
  %9 = icmp ne i64 %fi3, 0, !llfi_index !427
  %fi5 = call i1 @injectFault1(i64 426, i1 %9, i32 46, i32 0, i32 1, i32 0, i8* getelementptr inbounds ([5 x i8]* @icmp_namestr, i32 0, i32 0)), !llfi_injectfault !15
  br i1 %fi5, label %13, label %10, !llfi_index !428

; <label>:10                                      ; preds = %7
  %11 = load i64* %out, align 8, !llfi_index !429
  %fi6 = call i64 @injectFault0(i64 428, i64 %11, i32 27, i32 0, i32 1, i32 0, i8* getelementptr inbounds ([5 x i8]* @load_namestr, i32 0, i32 0)), !llfi_injectfault !15
  %12 = icmp slt i64 %fi6, 50, !llfi_index !430
  %fi7 = call i1 @injectFault1(i64 429, i1 %12, i32 46, i32 0, i32 1, i32 0, i8* getelementptr inbounds ([5 x i8]* @icmp_namestr, i32 0, i32 0)), !llfi_injectfault !15
  br label %13, !llfi_index !431

; <label>:13                                      ; preds = %10, %7, %3
  %14 = phi i1 [ false, %7 ], [ false, %3 ], [ %fi7, %10 ], !llfi_index !432
  br i1 %14, label %15, label %26, !llfi_index !433

; <label>:15                                      ; preds = %13
  %16 = load i64* %cumulative, align 8, !llfi_index !434
  %fi8 = call i64 @injectFault0(i64 433, i64 %16, i32 27, i32 0, i32 1, i32 0, i8* getelementptr inbounds ([5 x i8]* @load_namestr, i32 0, i32 0)), !llfi_injectfault !15
  %17 = load i64* %2, align 8, !llfi_index !435
  %fi4 = call i64 @injectFault0(i64 434, i64 %17, i32 27, i32 0, i32 1, i32 0, i8* getelementptr inbounds ([5 x i8]* @load_namestr, i32 0, i32 0)), !llfi_injectfault !15
  %18 = icmp eq i64 %fi8, %fi4, !llfi_index !436
  %fi9 = call i1 @injectFault1(i64 435, i1 %18, i32 46, i32 0, i32 1, i32 0, i8* getelementptr inbounds ([5 x i8]* @icmp_namestr, i32 0, i32 0)), !llfi_injectfault !15
  br i1 %fi9, label %19, label %20, !llfi_index !437

; <label>:19                                      ; preds = %15
  store i64 1, i64* %done, align 8, !llfi_index !438
  br label %25, !llfi_index !439

; <label>:20                                      ; preds = %15
  %21 = load i64* %cumulative, align 8, !llfi_index !440
  %fi10 = call i64 @injectFault0(i64 439, i64 %21, i32 27, i32 0, i32 1, i32 0, i8* getelementptr inbounds ([5 x i8]* @load_namestr, i32 0, i32 0)), !llfi_injectfault !15
  %22 = mul nsw i64 %fi10, 2, !llfi_index !441
  %fi11 = call i64 @injectFault0(i64 440, i64 %22, i32 12, i32 0, i32 1, i32 0, i8* getelementptr inbounds ([4 x i8]* @mul_namestr, i32 0, i32 0)), !llfi_injectfault !15
  store i64 %fi11, i64* %cumulative, align 8, !llfi_index !442
  %23 = load i64* %out, align 8, !llfi_index !443
  %fi12 = call i64 @injectFault0(i64 442, i64 %23, i32 27, i32 0, i32 1, i32 0, i8* getelementptr inbounds ([5 x i8]* @load_namestr, i32 0, i32 0)), !llfi_injectfault !15
  %24 = add nsw i64 %fi12, 1, !llfi_index !444
  %fi13 = call i64 @injectFault0(i64 443, i64 %24, i32 8, i32 0, i32 1, i32 0, i8* getelementptr inbounds ([4 x i8]* @add_namestr, i32 0, i32 0)), !llfi_injectfault !15
  store i64 %fi13, i64* %out, align 8, !llfi_index !445
  br label %25, !llfi_index !446

; <label>:25                                      ; preds = %20, %19
  br label %3, !llfi_index !447

; <label>:26                                      ; preds = %13
  %27 = load i64* %cumulative, align 8, !llfi_index !448
  %fi14 = call i64 @injectFault0(i64 447, i64 %27, i32 27, i32 0, i32 1, i32 0, i8* getelementptr inbounds ([5 x i8]* @load_namestr, i32 0, i32 0)), !llfi_injectfault !15
  %28 = load i64* %2, align 8, !llfi_index !449
  %fi15 = call i64 @injectFault0(i64 448, i64 %28, i32 27, i32 0, i32 1, i32 0, i8* getelementptr inbounds ([5 x i8]* @load_namestr, i32 0, i32 0)), !llfi_injectfault !15
  %29 = icmp eq i64 %fi14, %fi15, !llfi_index !450
  %fi16 = call i1 @injectFault1(i64 449, i1 %29, i32 46, i32 0, i32 1, i32 0, i8* getelementptr inbounds ([5 x i8]* @icmp_namestr, i32 0, i32 0)), !llfi_injectfault !15
  br i1 %fi16, label %30, label %32, !llfi_index !451

; <label>:30                                      ; preds = %26
  %31 = load i64* %out, align 8, !llfi_index !452
  %fi17 = call i64 @injectFault0(i64 451, i64 %31, i32 27, i32 0, i32 1, i32 0, i8* getelementptr inbounds ([5 x i8]* @load_namestr, i32 0, i32 0)), !llfi_injectfault !15
  store i64 %fi17, i64* %1, !llfi_index !453
  br label %33, !llfi_index !454

; <label>:32                                      ; preds = %26
  store i64 -1, i64* %1, !llfi_index !455
  br label %33, !llfi_index !456

; <label>:33                                      ; preds = %32, %30
  %34 = load i64* %1, !llfi_index !457
  %fi18 = call i64 @injectFault0(i64 456, i64 %34, i32 27, i32 0, i32 1, i32 0, i8* getelementptr inbounds ([5 x i8]* @load_namestr, i32 0, i32 0)), !llfi_injectfault !15
  ret i64 %fi18, !llfi_index !458
}

declare i32 @printf(i8*, ...) #5

; Function Attrs: nounwind
declare noalias i8* @malloc(i64) #1

; Function Attrs: nounwind uwtable
define void @_Z5InitXPd(double* %x) #4 {
  %1 = alloca double*, align 8, !llfi_index !459
  %i = alloca i64, align 8, !llfi_index !460
  %j = alloca i64, align 8, !llfi_index !461
  %k = alloca i64, align 8, !llfi_index !462
  store double* %x, double** %1, align 8, !llfi_index !463
  store i64 0, i64* %j, align 8, !llfi_index !464
  br label %2, !llfi_index !465

; <label>:2                                       ; preds = %34, %0
  %3 = load i64* %j, align 8, !llfi_index !466
  %fi = call i64 @injectFault0(i64 465, i64 %3, i32 27, i32 0, i32 1, i32 0, i8* getelementptr inbounds ([5 x i8]* @load_namestr, i32 0, i32 0)), !llfi_injectfault !15
  %4 = load i64* @rootN, align 8, !llfi_index !467
  %fi1 = call i64 @injectFault0(i64 466, i64 %4, i32 27, i32 0, i32 1, i32 0, i8* getelementptr inbounds ([5 x i8]* @load_namestr, i32 0, i32 0)), !llfi_injectfault !15
  %5 = icmp slt i64 %fi, %fi1, !llfi_index !468
  %fi2 = call i1 @injectFault1(i64 467, i1 %5, i32 46, i32 0, i32 1, i32 0, i8* getelementptr inbounds ([5 x i8]* @icmp_namestr, i32 0, i32 0)), !llfi_injectfault !15
  br i1 %fi2, label %6, label %37, !llfi_index !469

; <label>:6                                       ; preds = %2
  %7 = load i64* %j, align 8, !llfi_index !470
  %fi3 = call i64 @injectFault0(i64 469, i64 %7, i32 27, i32 0, i32 1, i32 0, i8* getelementptr inbounds ([5 x i8]* @load_namestr, i32 0, i32 0)), !llfi_injectfault !15
  %8 = load i64* @rootN, align 8, !llfi_index !471
  %fi4 = call i64 @injectFault0(i64 470, i64 %8, i32 27, i32 0, i32 1, i32 0, i8* getelementptr inbounds ([5 x i8]* @load_namestr, i32 0, i32 0)), !llfi_injectfault !15
  %9 = load i64* @pad_length, align 8, !llfi_index !472
  %fi6 = call i64 @injectFault0(i64 471, i64 %9, i32 27, i32 0, i32 1, i32 0, i8* getelementptr inbounds ([5 x i8]* @load_namestr, i32 0, i32 0)), !llfi_injectfault !15
  %10 = add nsw i64 %fi4, %fi6, !llfi_index !473
  %fi7 = call i64 @injectFault0(i64 472, i64 %10, i32 8, i32 0, i32 1, i32 0, i8* getelementptr inbounds ([4 x i8]* @add_namestr, i32 0, i32 0)), !llfi_injectfault !15
  %11 = mul nsw i64 %fi3, %fi7, !llfi_index !474
  %fi8 = call i64 @injectFault0(i64 473, i64 %11, i32 12, i32 0, i32 1, i32 0, i8* getelementptr inbounds ([4 x i8]* @mul_namestr, i32 0, i32 0)), !llfi_injectfault !15
  store i64 %fi8, i64* %k, align 8, !llfi_index !475
  store i64 0, i64* %i, align 8, !llfi_index !476
  br label %12, !llfi_index !477

; <label>:12                                      ; preds = %30, %6
  %13 = load i64* %i, align 8, !llfi_index !478
  %fi9 = call i64 @injectFault0(i64 477, i64 %13, i32 27, i32 0, i32 1, i32 0, i8* getelementptr inbounds ([5 x i8]* @load_namestr, i32 0, i32 0)), !llfi_injectfault !15
  %14 = load i64* @rootN, align 8, !llfi_index !479
  %fi10 = call i64 @injectFault0(i64 478, i64 %14, i32 27, i32 0, i32 1, i32 0, i8* getelementptr inbounds ([5 x i8]* @load_namestr, i32 0, i32 0)), !llfi_injectfault !15
  %15 = icmp slt i64 %fi9, %fi10, !llfi_index !480
  %fi11 = call i1 @injectFault1(i64 479, i1 %15, i32 46, i32 0, i32 1, i32 0, i8* getelementptr inbounds ([5 x i8]* @icmp_namestr, i32 0, i32 0)), !llfi_injectfault !15
  br i1 %fi11, label %16, label %33, !llfi_index !481

; <label>:16                                      ; preds = %12
  %17 = load i64* %k, align 8, !llfi_index !482
  %fi5 = call i64 @injectFault0(i64 481, i64 %17, i32 27, i32 0, i32 1, i32 0, i8* getelementptr inbounds ([5 x i8]* @load_namestr, i32 0, i32 0)), !llfi_injectfault !15
  %18 = load i64* %i, align 8, !llfi_index !483
  %fi12 = call i64 @injectFault0(i64 482, i64 %18, i32 27, i32 0, i32 1, i32 0, i8* getelementptr inbounds ([5 x i8]* @load_namestr, i32 0, i32 0)), !llfi_injectfault !15
  %19 = add nsw i64 %fi5, %fi12, !llfi_index !484
  %fi13 = call i64 @injectFault0(i64 483, i64 %19, i32 8, i32 0, i32 1, i32 0, i8* getelementptr inbounds ([4 x i8]* @add_namestr, i32 0, i32 0)), !llfi_injectfault !15
  %20 = mul nsw i64 2, %fi13, !llfi_index !485
  %fi14 = call i64 @injectFault0(i64 484, i64 %20, i32 12, i32 0, i32 1, i32 0, i8* getelementptr inbounds ([4 x i8]* @mul_namestr, i32 0, i32 0)), !llfi_injectfault !15
  %21 = load double** %1, align 8, !llfi_index !486
  %fi15 = call double* @injectFault4(i64 485, double* %21, i32 27, i32 0, i32 1, i32 0, i8* getelementptr inbounds ([5 x i8]* @load_namestr, i32 0, i32 0)), !llfi_injectfault !15
  %22 = getelementptr double* %fi15, i64 %fi14, !llfi_index !487
  %fi16 = call double* @injectFault4(i64 486, double* %22, i32 29, i32 0, i32 1, i32 0, i8* getelementptr inbounds ([14 x i8]* @getelementptr_namestr, i32 0, i32 0)), !llfi_injectfault !15
  store double 5.000000e-01, double* %fi16, align 8, !llfi_index !488
  %23 = load i64* %k, align 8, !llfi_index !489
  %fi17 = call i64 @injectFault0(i64 488, i64 %23, i32 27, i32 0, i32 1, i32 0, i8* getelementptr inbounds ([5 x i8]* @load_namestr, i32 0, i32 0)), !llfi_injectfault !15
  %24 = load i64* %i, align 8, !llfi_index !490
  %fi18 = call i64 @injectFault0(i64 489, i64 %24, i32 27, i32 0, i32 1, i32 0, i8* getelementptr inbounds ([5 x i8]* @load_namestr, i32 0, i32 0)), !llfi_injectfault !15
  %25 = add nsw i64 %fi17, %fi18, !llfi_index !491
  %fi19 = call i64 @injectFault0(i64 490, i64 %25, i32 8, i32 0, i32 1, i32 0, i8* getelementptr inbounds ([4 x i8]* @add_namestr, i32 0, i32 0)), !llfi_injectfault !15
  %26 = mul nsw i64 2, %fi19, !llfi_index !492
  %fi20 = call i64 @injectFault0(i64 491, i64 %26, i32 12, i32 0, i32 1, i32 0, i8* getelementptr inbounds ([4 x i8]* @mul_namestr, i32 0, i32 0)), !llfi_injectfault !15
  %27 = add nsw i64 %fi20, 1, !llfi_index !493
  %fi21 = call i64 @injectFault0(i64 492, i64 %27, i32 8, i32 0, i32 1, i32 0, i8* getelementptr inbounds ([4 x i8]* @add_namestr, i32 0, i32 0)), !llfi_injectfault !15
  %28 = load double** %1, align 8, !llfi_index !494
  %fi22 = call double* @injectFault4(i64 493, double* %28, i32 27, i32 0, i32 1, i32 0, i8* getelementptr inbounds ([5 x i8]* @load_namestr, i32 0, i32 0)), !llfi_injectfault !15
  %29 = getelementptr double* %fi22, i64 %fi21, !llfi_index !495
  %fi23 = call double* @injectFault4(i64 494, double* %29, i32 29, i32 0, i32 1, i32 0, i8* getelementptr inbounds ([14 x i8]* @getelementptr_namestr, i32 0, i32 0)), !llfi_injectfault !15
  store double 7.000000e-01, double* %fi23, align 8, !llfi_index !496
  br label %30, !llfi_index !497

; <label>:30                                      ; preds = %16
  %31 = load i64* %i, align 8, !llfi_index !498
  %fi24 = call i64 @injectFault0(i64 497, i64 %31, i32 27, i32 0, i32 1, i32 0, i8* getelementptr inbounds ([5 x i8]* @load_namestr, i32 0, i32 0)), !llfi_injectfault !15
  %32 = add nsw i64 %fi24, 1, !llfi_index !499
  %fi25 = call i64 @injectFault0(i64 498, i64 %32, i32 8, i32 0, i32 1, i32 0, i8* getelementptr inbounds ([4 x i8]* @add_namestr, i32 0, i32 0)), !llfi_injectfault !15
  store i64 %fi25, i64* %i, align 8, !llfi_index !500
  br label %12, !llfi_index !501

; <label>:33                                      ; preds = %12
  br label %34, !llfi_index !502

; <label>:34                                      ; preds = %33
  %35 = load i64* %j, align 8, !llfi_index !503
  %fi26 = call i64 @injectFault0(i64 502, i64 %35, i32 27, i32 0, i32 1, i32 0, i8* getelementptr inbounds ([5 x i8]* @load_namestr, i32 0, i32 0)), !llfi_injectfault !15
  %36 = add nsw i64 %fi26, 1, !llfi_index !504
  %fi27 = call i64 @injectFault0(i64 503, i64 %36, i32 8, i32 0, i32 1, i32 0, i8* getelementptr inbounds ([4 x i8]* @add_namestr, i32 0, i32 0)), !llfi_injectfault !15
  store i64 %fi27, i64* %j, align 8, !llfi_index !505
  br label %2, !llfi_index !506

; <label>:37                                      ; preds = %2
  ret void, !llfi_index !507
}

; Function Attrs: nounwind uwtable
define double @_Z8CheckSumPd(double* %x) #4 {
  %1 = alloca double*, align 8, !llfi_index !508
  %i = alloca i64, align 8, !llfi_index !509
  %j = alloca i64, align 8, !llfi_index !510
  %k = alloca i64, align 8, !llfi_index !511
  %cks = alloca double, align 8, !llfi_index !512
  store double* %x, double** %1, align 8, !llfi_index !513
  store double 0.000000e+00, double* %cks, align 8, !llfi_index !514
  store i64 0, i64* %j, align 8, !llfi_index !515
  br label %2, !llfi_index !516

; <label>:2                                       ; preds = %39, %0
  %3 = load i64* %j, align 8, !llfi_index !517
  %fi = call i64 @injectFault0(i64 516, i64 %3, i32 27, i32 0, i32 1, i32 0, i8* getelementptr inbounds ([5 x i8]* @load_namestr, i32 0, i32 0)), !llfi_injectfault !15
  %4 = load i64* @rootN, align 8, !llfi_index !518
  %fi1 = call i64 @injectFault0(i64 517, i64 %4, i32 27, i32 0, i32 1, i32 0, i8* getelementptr inbounds ([5 x i8]* @load_namestr, i32 0, i32 0)), !llfi_injectfault !15
  %5 = icmp slt i64 %fi, %fi1, !llfi_index !519
  %fi2 = call i1 @injectFault1(i64 518, i1 %5, i32 46, i32 0, i32 1, i32 0, i8* getelementptr inbounds ([5 x i8]* @icmp_namestr, i32 0, i32 0)), !llfi_injectfault !15
  br i1 %fi2, label %6, label %42, !llfi_index !520

; <label>:6                                       ; preds = %2
  %7 = load i64* %j, align 8, !llfi_index !521
  %fi3 = call i64 @injectFault0(i64 520, i64 %7, i32 27, i32 0, i32 1, i32 0, i8* getelementptr inbounds ([5 x i8]* @load_namestr, i32 0, i32 0)), !llfi_injectfault !15
  %8 = load i64* @rootN, align 8, !llfi_index !522
  %fi4 = call i64 @injectFault0(i64 521, i64 %8, i32 27, i32 0, i32 1, i32 0, i8* getelementptr inbounds ([5 x i8]* @load_namestr, i32 0, i32 0)), !llfi_injectfault !15
  %9 = load i64* @pad_length, align 8, !llfi_index !523
  %fi6 = call i64 @injectFault0(i64 522, i64 %9, i32 27, i32 0, i32 1, i32 0, i8* getelementptr inbounds ([5 x i8]* @load_namestr, i32 0, i32 0)), !llfi_injectfault !15
  %10 = add nsw i64 %fi4, %fi6, !llfi_index !524
  %fi7 = call i64 @injectFault0(i64 523, i64 %10, i32 8, i32 0, i32 1, i32 0, i8* getelementptr inbounds ([4 x i8]* @add_namestr, i32 0, i32 0)), !llfi_injectfault !15
  %11 = mul nsw i64 %fi3, %fi7, !llfi_index !525
  %fi8 = call i64 @injectFault0(i64 524, i64 %11, i32 12, i32 0, i32 1, i32 0, i8* getelementptr inbounds ([4 x i8]* @mul_namestr, i32 0, i32 0)), !llfi_injectfault !15
  store i64 %fi8, i64* %k, align 8, !llfi_index !526
  store i64 0, i64* %i, align 8, !llfi_index !527
  br label %12, !llfi_index !528

; <label>:12                                      ; preds = %35, %6
  %13 = load i64* %i, align 8, !llfi_index !529
  %fi9 = call i64 @injectFault0(i64 528, i64 %13, i32 27, i32 0, i32 1, i32 0, i8* getelementptr inbounds ([5 x i8]* @load_namestr, i32 0, i32 0)), !llfi_injectfault !15
  %14 = load i64* @rootN, align 8, !llfi_index !530
  %fi10 = call i64 @injectFault0(i64 529, i64 %14, i32 27, i32 0, i32 1, i32 0, i8* getelementptr inbounds ([5 x i8]* @load_namestr, i32 0, i32 0)), !llfi_injectfault !15
  %15 = icmp slt i64 %fi9, %fi10, !llfi_index !531
  %fi11 = call i1 @injectFault1(i64 530, i1 %15, i32 46, i32 0, i32 1, i32 0, i8* getelementptr inbounds ([5 x i8]* @icmp_namestr, i32 0, i32 0)), !llfi_injectfault !15
  br i1 %fi11, label %16, label %38, !llfi_index !532

; <label>:16                                      ; preds = %12
  %17 = load i64* %k, align 8, !llfi_index !533
  %fi5 = call i64 @injectFault0(i64 532, i64 %17, i32 27, i32 0, i32 1, i32 0, i8* getelementptr inbounds ([5 x i8]* @load_namestr, i32 0, i32 0)), !llfi_injectfault !15
  %18 = load i64* %i, align 8, !llfi_index !534
  %fi13 = call i64 @injectFault0(i64 533, i64 %18, i32 27, i32 0, i32 1, i32 0, i8* getelementptr inbounds ([5 x i8]* @load_namestr, i32 0, i32 0)), !llfi_injectfault !15
  %19 = add nsw i64 %fi5, %fi13, !llfi_index !535
  %fi14 = call i64 @injectFault0(i64 534, i64 %19, i32 8, i32 0, i32 1, i32 0, i8* getelementptr inbounds ([4 x i8]* @add_namestr, i32 0, i32 0)), !llfi_injectfault !15
  %20 = mul nsw i64 2, %fi14, !llfi_index !536
  %fi15 = call i64 @injectFault0(i64 535, i64 %20, i32 12, i32 0, i32 1, i32 0, i8* getelementptr inbounds ([4 x i8]* @mul_namestr, i32 0, i32 0)), !llfi_injectfault !15
  %21 = load double** %1, align 8, !llfi_index !537
  %fi16 = call double* @injectFault4(i64 536, double* %21, i32 27, i32 0, i32 1, i32 0, i8* getelementptr inbounds ([5 x i8]* @load_namestr, i32 0, i32 0)), !llfi_injectfault !15
  %22 = getelementptr double* %fi16, i64 %fi15, !llfi_index !538
  %fi17 = call double* @injectFault4(i64 537, double* %22, i32 29, i32 0, i32 1, i32 0, i8* getelementptr inbounds ([14 x i8]* @getelementptr_namestr, i32 0, i32 0)), !llfi_injectfault !15
  %23 = load double* %fi17, align 8, !llfi_index !539
  %fi18 = call double @injectFault7(i64 538, double %23, i32 27, i32 0, i32 1, i32 0, i8* getelementptr inbounds ([5 x i8]* @load_namestr, i32 0, i32 0)), !llfi_injectfault !15
  %24 = load i64* %k, align 8, !llfi_index !540
  %fi19 = call i64 @injectFault0(i64 539, i64 %24, i32 27, i32 0, i32 1, i32 0, i8* getelementptr inbounds ([5 x i8]* @load_namestr, i32 0, i32 0)), !llfi_injectfault !15
  %25 = load i64* %i, align 8, !llfi_index !541
  %fi20 = call i64 @injectFault0(i64 540, i64 %25, i32 27, i32 0, i32 1, i32 0, i8* getelementptr inbounds ([5 x i8]* @load_namestr, i32 0, i32 0)), !llfi_injectfault !15
  %26 = add nsw i64 %fi19, %fi20, !llfi_index !542
  %fi21 = call i64 @injectFault0(i64 541, i64 %26, i32 8, i32 0, i32 1, i32 0, i8* getelementptr inbounds ([4 x i8]* @add_namestr, i32 0, i32 0)), !llfi_injectfault !15
  %27 = mul nsw i64 2, %fi21, !llfi_index !543
  %fi22 = call i64 @injectFault0(i64 542, i64 %27, i32 12, i32 0, i32 1, i32 0, i8* getelementptr inbounds ([4 x i8]* @mul_namestr, i32 0, i32 0)), !llfi_injectfault !15
  %28 = add nsw i64 %fi22, 1, !llfi_index !544
  %fi23 = call i64 @injectFault0(i64 543, i64 %28, i32 8, i32 0, i32 1, i32 0, i8* getelementptr inbounds ([4 x i8]* @add_namestr, i32 0, i32 0)), !llfi_injectfault !15
  %29 = load double** %1, align 8, !llfi_index !545
  %fi24 = call double* @injectFault4(i64 544, double* %29, i32 27, i32 0, i32 1, i32 0, i8* getelementptr inbounds ([5 x i8]* @load_namestr, i32 0, i32 0)), !llfi_injectfault !15
  %30 = getelementptr double* %fi24, i64 %fi23, !llfi_index !546
  %fi25 = call double* @injectFault4(i64 545, double* %30, i32 29, i32 0, i32 1, i32 0, i8* getelementptr inbounds ([14 x i8]* @getelementptr_namestr, i32 0, i32 0)), !llfi_injectfault !15
  %31 = load double* %fi25, align 8, !llfi_index !547
  %fi26 = call double @injectFault7(i64 546, double %31, i32 27, i32 0, i32 1, i32 0, i8* getelementptr inbounds ([5 x i8]* @load_namestr, i32 0, i32 0)), !llfi_injectfault !15
  %32 = fadd double %fi18, %fi26, !llfi_index !548
  %fi27 = call double @injectFault7(i64 547, double %32, i32 9, i32 0, i32 1, i32 0, i8* getelementptr inbounds ([5 x i8]* @fadd_namestr, i32 0, i32 0)), !llfi_injectfault !15
  %33 = load double* %cks, align 8, !llfi_index !549
  %fi12 = call double @injectFault7(i64 548, double %33, i32 27, i32 0, i32 1, i32 0, i8* getelementptr inbounds ([5 x i8]* @load_namestr, i32 0, i32 0)), !llfi_injectfault !15
  %34 = fadd double %fi12, %fi27, !llfi_index !550
  %fi28 = call double @injectFault7(i64 549, double %34, i32 9, i32 0, i32 1, i32 0, i8* getelementptr inbounds ([5 x i8]* @fadd_namestr, i32 0, i32 0)), !llfi_injectfault !15
  store double %fi28, double* %cks, align 8, !llfi_index !551
  br label %35, !llfi_index !552

; <label>:35                                      ; preds = %16
  %36 = load i64* %i, align 8, !llfi_index !553
  %fi29 = call i64 @injectFault0(i64 552, i64 %36, i32 27, i32 0, i32 1, i32 0, i8* getelementptr inbounds ([5 x i8]* @load_namestr, i32 0, i32 0)), !llfi_injectfault !15
  %37 = add nsw i64 %fi29, 1, !llfi_index !554
  %fi30 = call i64 @injectFault0(i64 553, i64 %37, i32 8, i32 0, i32 1, i32 0, i8* getelementptr inbounds ([4 x i8]* @add_namestr, i32 0, i32 0)), !llfi_injectfault !15
  store i64 %fi30, i64* %i, align 8, !llfi_index !555
  br label %12, !llfi_index !556

; <label>:38                                      ; preds = %12
  br label %39, !llfi_index !557

; <label>:39                                      ; preds = %38
  %40 = load i64* %j, align 8, !llfi_index !558
  %fi31 = call i64 @injectFault0(i64 557, i64 %40, i32 27, i32 0, i32 1, i32 0, i8* getelementptr inbounds ([5 x i8]* @load_namestr, i32 0, i32 0)), !llfi_injectfault !15
  %41 = add nsw i64 %fi31, 1, !llfi_index !559
  %fi32 = call i64 @injectFault0(i64 558, i64 %41, i32 8, i32 0, i32 1, i32 0, i8* getelementptr inbounds ([4 x i8]* @add_namestr, i32 0, i32 0)), !llfi_injectfault !15
  store i64 %fi32, i64* %j, align 8, !llfi_index !560
  br label %2, !llfi_index !561

; <label>:42                                      ; preds = %2
  %43 = load double* %cks, align 8, !llfi_index !562
  %fi33 = call double @injectFault7(i64 561, double %43, i32 27, i32 0, i32 1, i32 0, i8* getelementptr inbounds ([5 x i8]* @load_namestr, i32 0, i32 0)), !llfi_injectfault !15
  ret double %fi33, !llfi_index !563
}

; Function Attrs: uwtable
define void @_Z10PrintArraylPd(i64 %N, double* %x) #0 {
  %1 = alloca i64, align 8, !llfi_index !564
  %2 = alloca double*, align 8, !llfi_index !565
  %i = alloca i64, align 8, !llfi_index !566
  %j = alloca i64, align 8, !llfi_index !567
  %k = alloca i64, align 8, !llfi_index !568
  store i64 %N, i64* %1, align 8, !llfi_index !569
  store double* %x, double** %2, align 8, !llfi_index !570
  store i64 0, i64* %i, align 8, !llfi_index !571
  br label %3, !llfi_index !572

; <label>:3                                       ; preds = %60, %0
  %4 = load i64* %i, align 8, !llfi_index !573
  %fi = call i64 @injectFault0(i64 572, i64 %4, i32 27, i32 0, i32 1, i32 0, i8* getelementptr inbounds ([5 x i8]* @load_namestr, i32 0, i32 0)), !llfi_injectfault !15
  %5 = load i64* @rootN, align 8, !llfi_index !574
  %fi1 = call i64 @injectFault0(i64 573, i64 %5, i32 27, i32 0, i32 1, i32 0, i8* getelementptr inbounds ([5 x i8]* @load_namestr, i32 0, i32 0)), !llfi_injectfault !15
  %6 = icmp slt i64 %fi, %fi1, !llfi_index !575
  %fi2 = call i1 @injectFault1(i64 574, i1 %6, i32 46, i32 0, i32 1, i32 0, i8* getelementptr inbounds ([5 x i8]* @icmp_namestr, i32 0, i32 0)), !llfi_injectfault !15
  br i1 %fi2, label %7, label %63, !llfi_index !576

; <label>:7                                       ; preds = %3
  %8 = load i64* %i, align 8, !llfi_index !577
  %fi3 = call i64 @injectFault0(i64 576, i64 %8, i32 27, i32 0, i32 1, i32 0, i8* getelementptr inbounds ([5 x i8]* @load_namestr, i32 0, i32 0)), !llfi_injectfault !15
  %9 = load i64* @rootN, align 8, !llfi_index !578
  %fi4 = call i64 @injectFault0(i64 577, i64 %9, i32 27, i32 0, i32 1, i32 0, i8* getelementptr inbounds ([5 x i8]* @load_namestr, i32 0, i32 0)), !llfi_injectfault !15
  %10 = load i64* @pad_length, align 8, !llfi_index !579
  %fi5 = call i64 @injectFault0(i64 578, i64 %10, i32 27, i32 0, i32 1, i32 0, i8* getelementptr inbounds ([5 x i8]* @load_namestr, i32 0, i32 0)), !llfi_injectfault !15
  %11 = add nsw i64 %fi4, %fi5, !llfi_index !580
  %fi6 = call i64 @injectFault0(i64 579, i64 %11, i32 8, i32 0, i32 1, i32 0, i8* getelementptr inbounds ([4 x i8]* @add_namestr, i32 0, i32 0)), !llfi_injectfault !15
  %12 = mul nsw i64 %fi3, %fi6, !llfi_index !581
  %fi7 = call i64 @injectFault0(i64 580, i64 %12, i32 12, i32 0, i32 1, i32 0, i8* getelementptr inbounds ([4 x i8]* @mul_namestr, i32 0, i32 0)), !llfi_injectfault !15
  store i64 %fi7, i64* %k, align 8, !llfi_index !582
  store i64 0, i64* %j, align 8, !llfi_index !583
  br label %13, !llfi_index !584

; <label>:13                                      ; preds = %56, %7
  %14 = load i64* %j, align 8, !llfi_index !585
  %fi8 = call i64 @injectFault0(i64 584, i64 %14, i32 27, i32 0, i32 1, i32 0, i8* getelementptr inbounds ([5 x i8]* @load_namestr, i32 0, i32 0)), !llfi_injectfault !15
  %15 = load i64* @rootN, align 8, !llfi_index !586
  %fi9 = call i64 @injectFault0(i64 585, i64 %15, i32 27, i32 0, i32 1, i32 0, i8* getelementptr inbounds ([5 x i8]* @load_namestr, i32 0, i32 0)), !llfi_injectfault !15
  %16 = icmp slt i64 %fi8, %fi9, !llfi_index !587
  %fi10 = call i1 @injectFault1(i64 586, i1 %16, i32 46, i32 0, i32 1, i32 0, i8* getelementptr inbounds ([5 x i8]* @icmp_namestr, i32 0, i32 0)), !llfi_injectfault !15
  br i1 %fi10, label %17, label %59, !llfi_index !588

; <label>:17                                      ; preds = %13
  %18 = load i64* %k, align 8, !llfi_index !589
  %fi11 = call i64 @injectFault0(i64 588, i64 %18, i32 27, i32 0, i32 1, i32 0, i8* getelementptr inbounds ([5 x i8]* @load_namestr, i32 0, i32 0)), !llfi_injectfault !15
  %19 = load i64* %j, align 8, !llfi_index !590
  %fi12 = call i64 @injectFault0(i64 589, i64 %19, i32 27, i32 0, i32 1, i32 0, i8* getelementptr inbounds ([5 x i8]* @load_namestr, i32 0, i32 0)), !llfi_injectfault !15
  %20 = add nsw i64 %fi11, %fi12, !llfi_index !591
  %fi13 = call i64 @injectFault0(i64 590, i64 %20, i32 8, i32 0, i32 1, i32 0, i8* getelementptr inbounds ([4 x i8]* @add_namestr, i32 0, i32 0)), !llfi_injectfault !15
  %21 = mul nsw i64 2, %fi13, !llfi_index !592
  %fi14 = call i64 @injectFault0(i64 591, i64 %21, i32 12, i32 0, i32 1, i32 0, i8* getelementptr inbounds ([4 x i8]* @mul_namestr, i32 0, i32 0)), !llfi_injectfault !15
  %22 = load double** %2, align 8, !llfi_index !593
  %fi15 = call double* @injectFault4(i64 592, double* %22, i32 27, i32 0, i32 1, i32 0, i8* getelementptr inbounds ([5 x i8]* @load_namestr, i32 0, i32 0)), !llfi_injectfault !15
  %23 = getelementptr double* %fi15, i64 %fi14, !llfi_index !594
  %fi16 = call double* @injectFault4(i64 593, double* %23, i32 29, i32 0, i32 1, i32 0, i8* getelementptr inbounds ([14 x i8]* @getelementptr_namestr, i32 0, i32 0)), !llfi_injectfault !15
  %24 = load double* %fi16, align 8, !llfi_index !595
  %fi17 = call double @injectFault7(i64 594, double %24, i32 27, i32 0, i32 1, i32 0, i8* getelementptr inbounds ([5 x i8]* @load_namestr, i32 0, i32 0)), !llfi_injectfault !15
  %25 = load i64* %k, align 8, !llfi_index !596
  %fi18 = call i64 @injectFault0(i64 595, i64 %25, i32 27, i32 0, i32 1, i32 0, i8* getelementptr inbounds ([5 x i8]* @load_namestr, i32 0, i32 0)), !llfi_injectfault !15
  %26 = load i64* %j, align 8, !llfi_index !597
  %fi19 = call i64 @injectFault0(i64 596, i64 %26, i32 27, i32 0, i32 1, i32 0, i8* getelementptr inbounds ([5 x i8]* @load_namestr, i32 0, i32 0)), !llfi_injectfault !15
  %27 = add nsw i64 %fi18, %fi19, !llfi_index !598
  %fi20 = call i64 @injectFault0(i64 597, i64 %27, i32 8, i32 0, i32 1, i32 0, i8* getelementptr inbounds ([4 x i8]* @add_namestr, i32 0, i32 0)), !llfi_injectfault !15
  %28 = mul nsw i64 2, %fi20, !llfi_index !599
  %fi21 = call i64 @injectFault0(i64 598, i64 %28, i32 12, i32 0, i32 1, i32 0, i8* getelementptr inbounds ([4 x i8]* @mul_namestr, i32 0, i32 0)), !llfi_injectfault !15
  %29 = add nsw i64 %fi21, 1, !llfi_index !600
  %fi22 = call i64 @injectFault0(i64 599, i64 %29, i32 8, i32 0, i32 1, i32 0, i8* getelementptr inbounds ([4 x i8]* @add_namestr, i32 0, i32 0)), !llfi_injectfault !15
  %30 = load double** %2, align 8, !llfi_index !601
  %fi23 = call double* @injectFault4(i64 600, double* %30, i32 27, i32 0, i32 1, i32 0, i8* getelementptr inbounds ([5 x i8]* @load_namestr, i32 0, i32 0)), !llfi_injectfault !15
  %31 = getelementptr double* %fi23, i64 %fi22, !llfi_index !602
  %fi24 = call double* @injectFault4(i64 601, double* %31, i32 29, i32 0, i32 1, i32 0, i8* getelementptr inbounds ([14 x i8]* @getelementptr_namestr, i32 0, i32 0)), !llfi_injectfault !15
  %32 = load double* %fi24, align 8, !llfi_index !603
  %fi25 = call double @injectFault7(i64 602, double %32, i32 27, i32 0, i32 1, i32 0, i8* getelementptr inbounds ([5 x i8]* @load_namestr, i32 0, i32 0)), !llfi_injectfault !15
  %33 = call i32 (i8*, ...)* @printf(i8* getelementptr inbounds ([13 x i8]* @.str37, i32 0, i32 0), double %fi17, double %fi25), !llfi_index !604
  %34 = load i64* %i, align 8, !llfi_index !605
  %fi26 = call i64 @injectFault0(i64 604, i64 %34, i32 27, i32 0, i32 1, i32 0, i8* getelementptr inbounds ([5 x i8]* @load_namestr, i32 0, i32 0)), !llfi_injectfault !15
  %35 = load i64* @rootN, align 8, !llfi_index !606
  %fi27 = call i64 @injectFault0(i64 605, i64 %35, i32 27, i32 0, i32 1, i32 0, i8* getelementptr inbounds ([5 x i8]* @load_namestr, i32 0, i32 0)), !llfi_injectfault !15
  %36 = mul nsw i64 %fi26, %fi27, !llfi_index !607
  %fi28 = call i64 @injectFault0(i64 606, i64 %36, i32 12, i32 0, i32 1, i32 0, i8* getelementptr inbounds ([4 x i8]* @mul_namestr, i32 0, i32 0)), !llfi_injectfault !15
  %37 = load i64* %j, align 8, !llfi_index !608
  %fi29 = call i64 @injectFault0(i64 607, i64 %37, i32 27, i32 0, i32 1, i32 0, i8* getelementptr inbounds ([5 x i8]* @load_namestr, i32 0, i32 0)), !llfi_injectfault !15
  %38 = add nsw i64 %fi28, %fi29, !llfi_index !609
  %fi30 = call i64 @injectFault0(i64 608, i64 %38, i32 8, i32 0, i32 1, i32 0, i8* getelementptr inbounds ([4 x i8]* @add_namestr, i32 0, i32 0)), !llfi_injectfault !15
  %39 = load i64* %1, align 8, !llfi_index !610
  %fi31 = call i64 @injectFault0(i64 609, i64 %39, i32 27, i32 0, i32 1, i32 0, i8* getelementptr inbounds ([5 x i8]* @load_namestr, i32 0, i32 0)), !llfi_injectfault !15
  %40 = sub nsw i64 %fi31, 1, !llfi_index !611
  %fi32 = call i64 @injectFault0(i64 610, i64 %40, i32 10, i32 0, i32 1, i32 0, i8* getelementptr inbounds ([4 x i8]* @sub_namestr, i32 0, i32 0)), !llfi_injectfault !15
  %41 = icmp ne i64 %fi30, %fi32, !llfi_index !612
  %fi33 = call i1 @injectFault1(i64 611, i1 %41, i32 46, i32 0, i32 1, i32 0, i8* getelementptr inbounds ([5 x i8]* @icmp_namestr, i32 0, i32 0)), !llfi_injectfault !15
  br i1 %fi33, label %42, label %44, !llfi_index !613

; <label>:42                                      ; preds = %17
  %43 = call i32 (i8*, ...)* @printf(i8* getelementptr inbounds ([2 x i8]* @.str38, i32 0, i32 0)), !llfi_index !614
  br label %44, !llfi_index !615

; <label>:44                                      ; preds = %42, %17
  %45 = load i64* %i, align 8, !llfi_index !616
  %fi34 = call i64 @injectFault0(i64 615, i64 %45, i32 27, i32 0, i32 1, i32 0, i8* getelementptr inbounds ([5 x i8]* @load_namestr, i32 0, i32 0)), !llfi_injectfault !15
  %46 = load i64* @rootN, align 8, !llfi_index !617
  %fi35 = call i64 @injectFault0(i64 616, i64 %46, i32 27, i32 0, i32 1, i32 0, i8* getelementptr inbounds ([5 x i8]* @load_namestr, i32 0, i32 0)), !llfi_injectfault !15
  %47 = mul nsw i64 %fi34, %fi35, !llfi_index !618
  %fi36 = call i64 @injectFault0(i64 617, i64 %47, i32 12, i32 0, i32 1, i32 0, i8* getelementptr inbounds ([4 x i8]* @mul_namestr, i32 0, i32 0)), !llfi_injectfault !15
  %48 = load i64* %j, align 8, !llfi_index !619
  %fi37 = call i64 @injectFault0(i64 618, i64 %48, i32 27, i32 0, i32 1, i32 0, i8* getelementptr inbounds ([5 x i8]* @load_namestr, i32 0, i32 0)), !llfi_injectfault !15
  %49 = add nsw i64 %fi36, %fi37, !llfi_index !620
  %fi38 = call i64 @injectFault0(i64 619, i64 %49, i32 8, i32 0, i32 1, i32 0, i8* getelementptr inbounds ([4 x i8]* @add_namestr, i32 0, i32 0)), !llfi_injectfault !15
  %50 = add nsw i64 %fi38, 1, !llfi_index !621
  %fi39 = call i64 @injectFault0(i64 620, i64 %50, i32 8, i32 0, i32 1, i32 0, i8* getelementptr inbounds ([4 x i8]* @add_namestr, i32 0, i32 0)), !llfi_injectfault !15
  %51 = srem i64 %fi39, 8, !llfi_index !622
  %fi40 = call i64 @injectFault0(i64 621, i64 %51, i32 18, i32 0, i32 1, i32 0, i8* getelementptr inbounds ([5 x i8]* @srem_namestr, i32 0, i32 0)), !llfi_injectfault !15
  %52 = icmp eq i64 %fi40, 0, !llfi_index !623
  %fi41 = call i1 @injectFault1(i64 622, i1 %52, i32 46, i32 0, i32 1, i32 0, i8* getelementptr inbounds ([5 x i8]* @icmp_namestr, i32 0, i32 0)), !llfi_injectfault !15
  br i1 %fi41, label %53, label %55, !llfi_index !624

; <label>:53                                      ; preds = %44
  %54 = call i32 (i8*, ...)* @printf(i8* getelementptr inbounds ([2 x i8]* @.str39, i32 0, i32 0)), !llfi_index !625
  br label %55, !llfi_index !626

; <label>:55                                      ; preds = %53, %44
  br label %56, !llfi_index !627

; <label>:56                                      ; preds = %55
  %57 = load i64* %j, align 8, !llfi_index !628
  %fi42 = call i64 @injectFault0(i64 627, i64 %57, i32 27, i32 0, i32 1, i32 0, i8* getelementptr inbounds ([5 x i8]* @load_namestr, i32 0, i32 0)), !llfi_injectfault !15
  %58 = add nsw i64 %fi42, 1, !llfi_index !629
  %fi43 = call i64 @injectFault0(i64 628, i64 %58, i32 8, i32 0, i32 1, i32 0, i8* getelementptr inbounds ([4 x i8]* @add_namestr, i32 0, i32 0)), !llfi_injectfault !15
  store i64 %fi43, i64* %j, align 8, !llfi_index !630
  br label %13, !llfi_index !631

; <label>:59                                      ; preds = %13
  br label %60, !llfi_index !632

; <label>:60                                      ; preds = %59
  %61 = load i64* %i, align 8, !llfi_index !633
  %fi44 = call i64 @injectFault0(i64 632, i64 %61, i32 27, i32 0, i32 1, i32 0, i8* getelementptr inbounds ([5 x i8]* @load_namestr, i32 0, i32 0)), !llfi_injectfault !15
  %62 = add nsw i64 %fi44, 1, !llfi_index !634
  %fi45 = call i64 @injectFault0(i64 633, i64 %62, i32 8, i32 0, i32 1, i32 0, i8* getelementptr inbounds ([4 x i8]* @add_namestr, i32 0, i32 0)), !llfi_injectfault !15
  store i64 %fi45, i64* %i, align 8, !llfi_index !635
  br label %3, !llfi_index !636

; <label>:63                                      ; preds = %3
  %64 = call i32 (i8*, ...)* @printf(i8* getelementptr inbounds ([2 x i8]* @.str39, i32 0, i32 0)), !llfi_index !637
  %65 = call i32 (i8*, ...)* @printf(i8* getelementptr inbounds ([2 x i8]* @.str39, i32 0, i32 0)), !llfi_index !638
  ret void, !llfi_index !639
}

; Function Attrs: nounwind uwtable
define void @_Z5InitUlPd(i64 %N, double* %u) #4 {
  %1 = alloca i64, align 8, !llfi_index !640
  %2 = alloca double*, align 8, !llfi_index !641
  %q = alloca i64, align 8, !llfi_index !642
  %j = alloca i64, align 8, !llfi_index !643
  %base = alloca i64, align 8, !llfi_index !644
  %n1 = alloca i64, align 8, !llfi_index !645
  store i64 %N, i64* %1, align 8, !llfi_index !646
  store double* %u, double** %2, align 8, !llfi_index !647
  store i64 0, i64* %q, align 8, !llfi_index !648
  br label %3, !llfi_index !649

; <label>:3                                       ; preds = %64, %0
  %4 = load i64* %q, align 8, !llfi_index !650
  %fi = call i64 @injectFault0(i64 649, i64 %4, i32 27, i32 0, i32 1, i32 0, i8* getelementptr inbounds ([5 x i8]* @load_namestr, i32 0, i32 0)), !llfi_injectfault !15
  %5 = trunc i64 %fi to i32, !llfi_index !651
  %fi1 = call i32 @injectFault2(i64 650, i32 %5, i32 33, i32 0, i32 1, i32 0, i8* getelementptr inbounds ([6 x i8]* @trunc_namestr, i32 0, i32 0)), !llfi_injectfault !15
  %6 = shl i32 1, %fi1, !llfi_index !652
  %fi2 = call i32 @injectFault2(i64 651, i32 %6, i32 20, i32 0, i32 1, i32 0, i8* getelementptr inbounds ([4 x i8]* @shl_namestr, i32 0, i32 0)), !llfi_injectfault !15
  %7 = sext i32 %fi2 to i64, !llfi_index !653
  %fi3 = call i64 @injectFault0(i64 652, i64 %7, i32 35, i32 0, i32 1, i32 0, i8* getelementptr inbounds ([5 x i8]* @sext_namestr, i32 0, i32 0)), !llfi_injectfault !15
  %8 = load i64* %1, align 8, !llfi_index !654
  %fi4 = call i64 @injectFault0(i64 653, i64 %8, i32 27, i32 0, i32 1, i32 0, i8* getelementptr inbounds ([5 x i8]* @load_namestr, i32 0, i32 0)), !llfi_injectfault !15
  %9 = icmp slt i64 %fi3, %fi4, !llfi_index !655
  %fi5 = call i1 @injectFault1(i64 654, i1 %9, i32 46, i32 0, i32 1, i32 0, i8* getelementptr inbounds ([5 x i8]* @icmp_namestr, i32 0, i32 0)), !llfi_injectfault !15
  br i1 %fi5, label %10, label %67, !llfi_index !656

; <label>:10                                      ; preds = %3
  %11 = load i64* %q, align 8, !llfi_index !657
  %fi6 = call i64 @injectFault0(i64 656, i64 %11, i32 27, i32 0, i32 1, i32 0, i8* getelementptr inbounds ([5 x i8]* @load_namestr, i32 0, i32 0)), !llfi_injectfault !15
  %12 = trunc i64 %fi6 to i32, !llfi_index !658
  %fi7 = call i32 @injectFault2(i64 657, i32 %12, i32 33, i32 0, i32 1, i32 0, i8* getelementptr inbounds ([6 x i8]* @trunc_namestr, i32 0, i32 0)), !llfi_injectfault !15
  %13 = shl i32 1, %fi7, !llfi_index !659
  %fi8 = call i32 @injectFault2(i64 658, i32 %13, i32 20, i32 0, i32 1, i32 0, i8* getelementptr inbounds ([4 x i8]* @shl_namestr, i32 0, i32 0)), !llfi_injectfault !15
  %14 = sext i32 %fi8 to i64, !llfi_index !660
  %fi9 = call i64 @injectFault0(i64 659, i64 %14, i32 35, i32 0, i32 1, i32 0, i8* getelementptr inbounds ([5 x i8]* @sext_namestr, i32 0, i32 0)), !llfi_injectfault !15
  store i64 %fi9, i64* %n1, align 8, !llfi_index !661
  %15 = load i64* %n1, align 8, !llfi_index !662
  %fi10 = call i64 @injectFault0(i64 661, i64 %15, i32 27, i32 0, i32 1, i32 0, i8* getelementptr inbounds ([5 x i8]* @load_namestr, i32 0, i32 0)), !llfi_injectfault !15
  %16 = sub nsw i64 %fi10, 1, !llfi_index !663
  %fi11 = call i64 @injectFault0(i64 662, i64 %16, i32 10, i32 0, i32 1, i32 0, i8* getelementptr inbounds ([4 x i8]* @sub_namestr, i32 0, i32 0)), !llfi_injectfault !15
  store i64 %fi11, i64* %base, align 8, !llfi_index !664
  store i64 0, i64* %j, align 8, !llfi_index !665
  br label %17, !llfi_index !666

; <label>:17                                      ; preds = %60, %10
  %18 = load i64* %j, align 8, !llfi_index !667
  %fi13 = call i64 @injectFault0(i64 666, i64 %18, i32 27, i32 0, i32 1, i32 0, i8* getelementptr inbounds ([5 x i8]* @load_namestr, i32 0, i32 0)), !llfi_injectfault !15
  %19 = load i64* %n1, align 8, !llfi_index !668
  %fi14 = call i64 @injectFault0(i64 667, i64 %19, i32 27, i32 0, i32 1, i32 0, i8* getelementptr inbounds ([5 x i8]* @load_namestr, i32 0, i32 0)), !llfi_injectfault !15
  %20 = icmp slt i64 %fi13, %fi14, !llfi_index !669
  %fi15 = call i1 @injectFault1(i64 668, i1 %20, i32 46, i32 0, i32 1, i32 0, i8* getelementptr inbounds ([5 x i8]* @icmp_namestr, i32 0, i32 0)), !llfi_injectfault !15
  br i1 %fi15, label %21, label %63, !llfi_index !670

; <label>:21                                      ; preds = %17
  %22 = load i64* %base, align 8, !llfi_index !671
  %fi16 = call i64 @injectFault0(i64 670, i64 %22, i32 27, i32 0, i32 1, i32 0, i8* getelementptr inbounds ([5 x i8]* @load_namestr, i32 0, i32 0)), !llfi_injectfault !15
  %23 = load i64* %j, align 8, !llfi_index !672
  %fi17 = call i64 @injectFault0(i64 671, i64 %23, i32 27, i32 0, i32 1, i32 0, i8* getelementptr inbounds ([5 x i8]* @load_namestr, i32 0, i32 0)), !llfi_injectfault !15
  %24 = add nsw i64 %fi16, %fi17, !llfi_index !673
  %fi18 = call i64 @injectFault0(i64 672, i64 %24, i32 8, i32 0, i32 1, i32 0, i8* getelementptr inbounds ([4 x i8]* @add_namestr, i32 0, i32 0)), !llfi_injectfault !15
  %25 = load i64* @rootN, align 8, !llfi_index !674
  %fi19 = call i64 @injectFault0(i64 673, i64 %25, i32 27, i32 0, i32 1, i32 0, i8* getelementptr inbounds ([5 x i8]* @load_namestr, i32 0, i32 0)), !llfi_injectfault !15
  %26 = sub nsw i64 %fi19, 1, !llfi_index !675
  %fi20 = call i64 @injectFault0(i64 674, i64 %26, i32 10, i32 0, i32 1, i32 0, i8* getelementptr inbounds ([4 x i8]* @sub_namestr, i32 0, i32 0)), !llfi_injectfault !15
  %27 = icmp sgt i64 %fi18, %fi20, !llfi_index !676
  %fi21 = call i1 @injectFault1(i64 675, i1 %27, i32 46, i32 0, i32 1, i32 0, i8* getelementptr inbounds ([5 x i8]* @icmp_namestr, i32 0, i32 0)), !llfi_injectfault !15
  br i1 %fi21, label %28, label %29, !llfi_index !677

; <label>:28                                      ; preds = %21
  br label %67, !llfi_index !678

; <label>:29                                      ; preds = %21
  %30 = load i64* %j, align 8, !llfi_index !679
  %fi22 = call i64 @injectFault0(i64 678, i64 %30, i32 27, i32 0, i32 1, i32 0, i8* getelementptr inbounds ([5 x i8]* @load_namestr, i32 0, i32 0)), !llfi_injectfault !15
  %31 = sitofp i64 %fi22 to double, !llfi_index !680
  %fi23 = call double @injectFault7(i64 679, double %31, i32 39, i32 0, i32 1, i32 0, i8* getelementptr inbounds ([7 x i8]* @sitofp_namestr, i32 0, i32 0)), !llfi_injectfault !15
  %32 = fmul double 6.283200e+00, %fi23, !llfi_index !681
  %fi24 = call double @injectFault7(i64 680, double %32, i32 13, i32 0, i32 1, i32 0, i8* getelementptr inbounds ([5 x i8]* @fmul_namestr, i32 0, i32 0)), !llfi_injectfault !15
  %33 = load i64* %n1, align 8, !llfi_index !682
  %fi12 = call i64 @injectFault0(i64 681, i64 %33, i32 27, i32 0, i32 1, i32 0, i8* getelementptr inbounds ([5 x i8]* @load_namestr, i32 0, i32 0)), !llfi_injectfault !15
  %34 = mul nsw i64 2, %fi12, !llfi_index !683
  %fi27 = call i64 @injectFault0(i64 682, i64 %34, i32 12, i32 0, i32 1, i32 0, i8* getelementptr inbounds ([4 x i8]* @mul_namestr, i32 0, i32 0)), !llfi_injectfault !15
  %35 = sitofp i64 %fi27 to double, !llfi_index !684
  %fi28 = call double @injectFault7(i64 683, double %35, i32 39, i32 0, i32 1, i32 0, i8* getelementptr inbounds ([7 x i8]* @sitofp_namestr, i32 0, i32 0)), !llfi_injectfault !15
  %36 = fdiv double %fi24, %fi28, !llfi_index !685
  %fi29 = call double @injectFault7(i64 684, double %36, i32 16, i32 0, i32 1, i32 0, i8* getelementptr inbounds ([5 x i8]* @fdiv_namestr, i32 0, i32 0)), !llfi_injectfault !15
  %37 = call double @cos(double %fi29) #7, !llfi_index !686
  %38 = load i64* %base, align 8, !llfi_index !687
  %fi30 = call i64 @injectFault0(i64 686, i64 %38, i32 27, i32 0, i32 1, i32 0, i8* getelementptr inbounds ([5 x i8]* @load_namestr, i32 0, i32 0)), !llfi_injectfault !15
  %39 = load i64* %j, align 8, !llfi_index !688
  %fi31 = call i64 @injectFault0(i64 687, i64 %39, i32 27, i32 0, i32 1, i32 0, i8* getelementptr inbounds ([5 x i8]* @load_namestr, i32 0, i32 0)), !llfi_injectfault !15
  %40 = add nsw i64 %fi30, %fi31, !llfi_index !689
  %fi32 = call i64 @injectFault0(i64 688, i64 %40, i32 8, i32 0, i32 1, i32 0, i8* getelementptr inbounds ([4 x i8]* @add_namestr, i32 0, i32 0)), !llfi_injectfault !15
  %41 = mul nsw i64 2, %fi32, !llfi_index !690
  %fi33 = call i64 @injectFault0(i64 689, i64 %41, i32 12, i32 0, i32 1, i32 0, i8* getelementptr inbounds ([4 x i8]* @mul_namestr, i32 0, i32 0)), !llfi_injectfault !15
  %42 = load double** %2, align 8, !llfi_index !691
  %fi34 = call double* @injectFault4(i64 690, double* %42, i32 27, i32 0, i32 1, i32 0, i8* getelementptr inbounds ([5 x i8]* @load_namestr, i32 0, i32 0)), !llfi_injectfault !15
  %43 = getelementptr double* %fi34, i64 %fi33, !llfi_index !692
  %fi35 = call double* @injectFault4(i64 691, double* %43, i32 29, i32 0, i32 1, i32 0, i8* getelementptr inbounds ([14 x i8]* @getelementptr_namestr, i32 0, i32 0)), !llfi_injectfault !15
  store double %37, double* %fi35, align 8, !llfi_index !693
  %44 = load i64* %j, align 8, !llfi_index !694
  %fi36 = call i64 @injectFault0(i64 693, i64 %44, i32 27, i32 0, i32 1, i32 0, i8* getelementptr inbounds ([5 x i8]* @load_namestr, i32 0, i32 0)), !llfi_injectfault !15
  %45 = sitofp i64 %fi36 to double, !llfi_index !695
  %fi37 = call double @injectFault7(i64 694, double %45, i32 39, i32 0, i32 1, i32 0, i8* getelementptr inbounds ([7 x i8]* @sitofp_namestr, i32 0, i32 0)), !llfi_injectfault !15
  %46 = fmul double 6.283200e+00, %fi37, !llfi_index !696
  %fi38 = call double @injectFault7(i64 695, double %46, i32 13, i32 0, i32 1, i32 0, i8* getelementptr inbounds ([5 x i8]* @fmul_namestr, i32 0, i32 0)), !llfi_injectfault !15
  %47 = load i64* %n1, align 8, !llfi_index !697
  %fi39 = call i64 @injectFault0(i64 696, i64 %47, i32 27, i32 0, i32 1, i32 0, i8* getelementptr inbounds ([5 x i8]* @load_namestr, i32 0, i32 0)), !llfi_injectfault !15
  %48 = mul nsw i64 2, %fi39, !llfi_index !698
  %fi40 = call i64 @injectFault0(i64 697, i64 %48, i32 12, i32 0, i32 1, i32 0, i8* getelementptr inbounds ([4 x i8]* @mul_namestr, i32 0, i32 0)), !llfi_injectfault !15
  %49 = sitofp i64 %fi40 to double, !llfi_index !699
  %fi41 = call double @injectFault7(i64 698, double %49, i32 39, i32 0, i32 1, i32 0, i8* getelementptr inbounds ([7 x i8]* @sitofp_namestr, i32 0, i32 0)), !llfi_injectfault !15
  %50 = fdiv double %fi38, %fi41, !llfi_index !700
  %fi42 = call double @injectFault7(i64 699, double %50, i32 16, i32 0, i32 1, i32 0, i8* getelementptr inbounds ([5 x i8]* @fdiv_namestr, i32 0, i32 0)), !llfi_injectfault !15
  %51 = call double @sin(double %fi42) #7, !llfi_index !701
  %52 = fsub double -0.000000e+00, %51, !llfi_index !702
  %fi43 = call double @injectFault7(i64 701, double %52, i32 11, i32 0, i32 1, i32 0, i8* getelementptr inbounds ([5 x i8]* @fsub_namestr, i32 0, i32 0)), !llfi_injectfault !15
  %53 = load i64* %base, align 8, !llfi_index !703
  %fi44 = call i64 @injectFault0(i64 702, i64 %53, i32 27, i32 0, i32 1, i32 0, i8* getelementptr inbounds ([5 x i8]* @load_namestr, i32 0, i32 0)), !llfi_injectfault !15
  %54 = load i64* %j, align 8, !llfi_index !704
  %fi45 = call i64 @injectFault0(i64 703, i64 %54, i32 27, i32 0, i32 1, i32 0, i8* getelementptr inbounds ([5 x i8]* @load_namestr, i32 0, i32 0)), !llfi_injectfault !15
  %55 = add nsw i64 %fi44, %fi45, !llfi_index !705
  %fi46 = call i64 @injectFault0(i64 704, i64 %55, i32 8, i32 0, i32 1, i32 0, i8* getelementptr inbounds ([4 x i8]* @add_namestr, i32 0, i32 0)), !llfi_injectfault !15
  %56 = mul nsw i64 2, %fi46, !llfi_index !706
  %fi47 = call i64 @injectFault0(i64 705, i64 %56, i32 12, i32 0, i32 1, i32 0, i8* getelementptr inbounds ([4 x i8]* @mul_namestr, i32 0, i32 0)), !llfi_injectfault !15
  %57 = add nsw i64 %fi47, 1, !llfi_index !707
  %fi48 = call i64 @injectFault0(i64 706, i64 %57, i32 8, i32 0, i32 1, i32 0, i8* getelementptr inbounds ([4 x i8]* @add_namestr, i32 0, i32 0)), !llfi_injectfault !15
  %58 = load double** %2, align 8, !llfi_index !708
  %fi49 = call double* @injectFault4(i64 707, double* %58, i32 27, i32 0, i32 1, i32 0, i8* getelementptr inbounds ([5 x i8]* @load_namestr, i32 0, i32 0)), !llfi_injectfault !15
  %59 = getelementptr double* %fi49, i64 %fi48, !llfi_index !709
  %fi50 = call double* @injectFault4(i64 708, double* %59, i32 29, i32 0, i32 1, i32 0, i8* getelementptr inbounds ([14 x i8]* @getelementptr_namestr, i32 0, i32 0)), !llfi_injectfault !15
  store double %fi43, double* %fi50, align 8, !llfi_index !710
  br label %60, !llfi_index !711

; <label>:60                                      ; preds = %29
  %61 = load i64* %j, align 8, !llfi_index !712
  %fi51 = call i64 @injectFault0(i64 711, i64 %61, i32 27, i32 0, i32 1, i32 0, i8* getelementptr inbounds ([5 x i8]* @load_namestr, i32 0, i32 0)), !llfi_injectfault !15
  %62 = add nsw i64 %fi51, 1, !llfi_index !713
  %fi52 = call i64 @injectFault0(i64 712, i64 %62, i32 8, i32 0, i32 1, i32 0, i8* getelementptr inbounds ([4 x i8]* @add_namestr, i32 0, i32 0)), !llfi_injectfault !15
  store i64 %fi52, i64* %j, align 8, !llfi_index !714
  br label %17, !llfi_index !715

; <label>:63                                      ; preds = %17
  br label %64, !llfi_index !716

; <label>:64                                      ; preds = %63
  %65 = load i64* %q, align 8, !llfi_index !717
  %fi25 = call i64 @injectFault0(i64 716, i64 %65, i32 27, i32 0, i32 1, i32 0, i8* getelementptr inbounds ([5 x i8]* @load_namestr, i32 0, i32 0)), !llfi_injectfault !15
  %66 = add nsw i64 %fi25, 1, !llfi_index !718
  %fi26 = call i64 @injectFault0(i64 717, i64 %66, i32 8, i32 0, i32 1, i32 0, i8* getelementptr inbounds ([4 x i8]* @add_namestr, i32 0, i32 0)), !llfi_injectfault !15
  store i64 %fi26, i64* %q, align 8, !llfi_index !719
  br label %3, !llfi_index !720

; <label>:67                                      ; preds = %28, %3
  ret void, !llfi_index !721
}

; Function Attrs: nounwind uwtable
define void @_Z6InitU2lPdl(i64 %N, double* %u, i64 %n1) #4 {
  %1 = alloca i64, align 8, !llfi_index !722
  %2 = alloca double*, align 8, !llfi_index !723
  %3 = alloca i64, align 8, !llfi_index !724
  %i = alloca i64, align 8, !llfi_index !725
  %j = alloca i64, align 8, !llfi_index !726
  %k = alloca i64, align 8, !llfi_index !727
  store i64 %N, i64* %1, align 8, !llfi_index !728
  store double* %u, double** %2, align 8, !llfi_index !729
  store i64 %n1, i64* %3, align 8, !llfi_index !730
  store i64 0, i64* %j, align 8, !llfi_index !731
  br label %4, !llfi_index !732

; <label>:4                                       ; preds = %57, %0
  %5 = load i64* %j, align 8, !llfi_index !733
  %fi17 = call i64 @injectFault0(i64 732, i64 %5, i32 27, i32 0, i32 1, i32 0, i8* getelementptr inbounds ([5 x i8]* @load_namestr, i32 0, i32 0)), !llfi_injectfault !15
  %6 = load i64* %3, align 8, !llfi_index !734
  %fi18 = call i64 @injectFault0(i64 733, i64 %6, i32 27, i32 0, i32 1, i32 0, i8* getelementptr inbounds ([5 x i8]* @load_namestr, i32 0, i32 0)), !llfi_injectfault !15
  %7 = icmp slt i64 %fi17, %fi18, !llfi_index !735
  %fi19 = call i1 @injectFault1(i64 734, i1 %7, i32 46, i32 0, i32 1, i32 0, i8* getelementptr inbounds ([5 x i8]* @icmp_namestr, i32 0, i32 0)), !llfi_injectfault !15
  br i1 %fi19, label %8, label %60, !llfi_index !736

; <label>:8                                       ; preds = %4
  %9 = load i64* %j, align 8, !llfi_index !737
  %fi21 = call i64 @injectFault0(i64 736, i64 %9, i32 27, i32 0, i32 1, i32 0, i8* getelementptr inbounds ([5 x i8]* @load_namestr, i32 0, i32 0)), !llfi_injectfault !15
  %10 = load i64* @rootN, align 8, !llfi_index !738
  %fi22 = call i64 @injectFault0(i64 737, i64 %10, i32 27, i32 0, i32 1, i32 0, i8* getelementptr inbounds ([5 x i8]* @load_namestr, i32 0, i32 0)), !llfi_injectfault !15
  %11 = load i64* @pad_length, align 8, !llfi_index !739
  %fi23 = call i64 @injectFault0(i64 738, i64 %11, i32 27, i32 0, i32 1, i32 0, i8* getelementptr inbounds ([5 x i8]* @load_namestr, i32 0, i32 0)), !llfi_injectfault !15
  %12 = add nsw i64 %fi22, %fi23, !llfi_index !740
  %fi24 = call i64 @injectFault0(i64 739, i64 %12, i32 8, i32 0, i32 1, i32 0, i8* getelementptr inbounds ([4 x i8]* @add_namestr, i32 0, i32 0)), !llfi_injectfault !15
  %13 = mul nsw i64 %fi21, %fi24, !llfi_index !741
  %fi25 = call i64 @injectFault0(i64 740, i64 %13, i32 12, i32 0, i32 1, i32 0, i8* getelementptr inbounds ([4 x i8]* @mul_namestr, i32 0, i32 0)), !llfi_injectfault !15
  store i64 %fi25, i64* %k, align 8, !llfi_index !742
  store i64 0, i64* %i, align 8, !llfi_index !743
  br label %14, !llfi_index !744

; <label>:14                                      ; preds = %53, %8
  %15 = load i64* %i, align 8, !llfi_index !745
  %fi26 = call i64 @injectFault0(i64 744, i64 %15, i32 27, i32 0, i32 1, i32 0, i8* getelementptr inbounds ([5 x i8]* @load_namestr, i32 0, i32 0)), !llfi_injectfault !15
  %16 = load i64* %3, align 8, !llfi_index !746
  %fi27 = call i64 @injectFault0(i64 745, i64 %16, i32 27, i32 0, i32 1, i32 0, i8* getelementptr inbounds ([5 x i8]* @load_namestr, i32 0, i32 0)), !llfi_injectfault !15
  %17 = icmp slt i64 %fi26, %fi27, !llfi_index !747
  %fi20 = call i1 @injectFault1(i64 746, i1 %17, i32 46, i32 0, i32 1, i32 0, i8* getelementptr inbounds ([5 x i8]* @icmp_namestr, i32 0, i32 0)), !llfi_injectfault !15
  br i1 %fi20, label %18, label %56, !llfi_index !748

; <label>:18                                      ; preds = %14
  %19 = load i64* %i, align 8, !llfi_index !749
  %fi29 = call i64 @injectFault0(i64 748, i64 %19, i32 27, i32 0, i32 1, i32 0, i8* getelementptr inbounds ([5 x i8]* @load_namestr, i32 0, i32 0)), !llfi_injectfault !15
  %20 = sitofp i64 %fi29 to double, !llfi_index !750
  %fi30 = call double @injectFault7(i64 749, double %20, i32 39, i32 0, i32 1, i32 0, i8* getelementptr inbounds ([7 x i8]* @sitofp_namestr, i32 0, i32 0)), !llfi_injectfault !15
  %21 = fmul double 6.283200e+00, %fi30, !llfi_index !751
  %fi31 = call double @injectFault7(i64 750, double %21, i32 13, i32 0, i32 1, i32 0, i8* getelementptr inbounds ([5 x i8]* @fmul_namestr, i32 0, i32 0)), !llfi_injectfault !15
  %22 = load i64* %j, align 8, !llfi_index !752
  %fi32 = call i64 @injectFault0(i64 751, i64 %22, i32 27, i32 0, i32 1, i32 0, i8* getelementptr inbounds ([5 x i8]* @load_namestr, i32 0, i32 0)), !llfi_injectfault !15
  %23 = sitofp i64 %fi32 to double, !llfi_index !753
  %fi33 = call double @injectFault7(i64 752, double %23, i32 39, i32 0, i32 1, i32 0, i8* getelementptr inbounds ([7 x i8]* @sitofp_namestr, i32 0, i32 0)), !llfi_injectfault !15
  %24 = fmul double %fi31, %fi33, !llfi_index !754
  %fi34 = call double @injectFault7(i64 753, double %24, i32 13, i32 0, i32 1, i32 0, i8* getelementptr inbounds ([5 x i8]* @fmul_namestr, i32 0, i32 0)), !llfi_injectfault !15
  %25 = load i64* %1, align 8, !llfi_index !755
  %fi35 = call i64 @injectFault0(i64 754, i64 %25, i32 27, i32 0, i32 1, i32 0, i8* getelementptr inbounds ([5 x i8]* @load_namestr, i32 0, i32 0)), !llfi_injectfault !15
  %26 = sitofp i64 %fi35 to double, !llfi_index !756
  %fi36 = call double @injectFault7(i64 755, double %26, i32 39, i32 0, i32 1, i32 0, i8* getelementptr inbounds ([7 x i8]* @sitofp_namestr, i32 0, i32 0)), !llfi_injectfault !15
  %27 = fdiv double %fi34, %fi36, !llfi_index !757
  %fi37 = call double @injectFault7(i64 756, double %27, i32 16, i32 0, i32 1, i32 0, i8* getelementptr inbounds ([5 x i8]* @fdiv_namestr, i32 0, i32 0)), !llfi_injectfault !15
  %28 = call double @cos(double %fi37) #7, !llfi_index !758
  %29 = load i64* %k, align 8, !llfi_index !759
  %fi38 = call i64 @injectFault0(i64 758, i64 %29, i32 27, i32 0, i32 1, i32 0, i8* getelementptr inbounds ([5 x i8]* @load_namestr, i32 0, i32 0)), !llfi_injectfault !15
  %30 = load i64* %i, align 8, !llfi_index !760
  %fi39 = call i64 @injectFault0(i64 759, i64 %30, i32 27, i32 0, i32 1, i32 0, i8* getelementptr inbounds ([5 x i8]* @load_namestr, i32 0, i32 0)), !llfi_injectfault !15
  %31 = add nsw i64 %fi38, %fi39, !llfi_index !761
  %fi40 = call i64 @injectFault0(i64 760, i64 %31, i32 8, i32 0, i32 1, i32 0, i8* getelementptr inbounds ([4 x i8]* @add_namestr, i32 0, i32 0)), !llfi_injectfault !15
  %32 = mul nsw i64 2, %fi40, !llfi_index !762
  %fi41 = call i64 @injectFault0(i64 761, i64 %32, i32 12, i32 0, i32 1, i32 0, i8* getelementptr inbounds ([4 x i8]* @mul_namestr, i32 0, i32 0)), !llfi_injectfault !15
  %33 = load double** %2, align 8, !llfi_index !763
  %fi28 = call double* @injectFault4(i64 762, double* %33, i32 27, i32 0, i32 1, i32 0, i8* getelementptr inbounds ([5 x i8]* @load_namestr, i32 0, i32 0)), !llfi_injectfault !15
  %34 = getelementptr double* %fi28, i64 %fi41, !llfi_index !764
  %fi42 = call double* @injectFault4(i64 763, double* %34, i32 29, i32 0, i32 1, i32 0, i8* getelementptr inbounds ([14 x i8]* @getelementptr_namestr, i32 0, i32 0)), !llfi_injectfault !15
  store double %28, double* %fi42, align 8, !llfi_index !765
  %35 = load i64* %i, align 8, !llfi_index !766
  %fi43 = call i64 @injectFault0(i64 765, i64 %35, i32 27, i32 0, i32 1, i32 0, i8* getelementptr inbounds ([5 x i8]* @load_namestr, i32 0, i32 0)), !llfi_injectfault !15
  %36 = sitofp i64 %fi43 to double, !llfi_index !767
  %fi44 = call double @injectFault7(i64 766, double %36, i32 39, i32 0, i32 1, i32 0, i8* getelementptr inbounds ([7 x i8]* @sitofp_namestr, i32 0, i32 0)), !llfi_injectfault !15
  %37 = fmul double 6.283200e+00, %fi44, !llfi_index !768
  %fi45 = call double @injectFault7(i64 767, double %37, i32 13, i32 0, i32 1, i32 0, i8* getelementptr inbounds ([5 x i8]* @fmul_namestr, i32 0, i32 0)), !llfi_injectfault !15
  %38 = load i64* %j, align 8, !llfi_index !769
  %fi46 = call i64 @injectFault0(i64 768, i64 %38, i32 27, i32 0, i32 1, i32 0, i8* getelementptr inbounds ([5 x i8]* @load_namestr, i32 0, i32 0)), !llfi_injectfault !15
  %39 = sitofp i64 %fi46 to double, !llfi_index !770
  %fi = call double @injectFault7(i64 769, double %39, i32 39, i32 0, i32 1, i32 0, i8* getelementptr inbounds ([7 x i8]* @sitofp_namestr, i32 0, i32 0)), !llfi_injectfault !15
  %40 = fmul double %fi45, %fi, !llfi_index !771
  %fi1 = call double @injectFault7(i64 770, double %40, i32 13, i32 0, i32 1, i32 0, i8* getelementptr inbounds ([5 x i8]* @fmul_namestr, i32 0, i32 0)), !llfi_injectfault !15
  %41 = load i64* %1, align 8, !llfi_index !772
  %fi2 = call i64 @injectFault0(i64 771, i64 %41, i32 27, i32 0, i32 1, i32 0, i8* getelementptr inbounds ([5 x i8]* @load_namestr, i32 0, i32 0)), !llfi_injectfault !15
  %42 = sitofp i64 %fi2 to double, !llfi_index !773
  %fi3 = call double @injectFault7(i64 772, double %42, i32 39, i32 0, i32 1, i32 0, i8* getelementptr inbounds ([7 x i8]* @sitofp_namestr, i32 0, i32 0)), !llfi_injectfault !15
  %43 = fdiv double %fi1, %fi3, !llfi_index !774
  %fi4 = call double @injectFault7(i64 773, double %43, i32 16, i32 0, i32 1, i32 0, i8* getelementptr inbounds ([5 x i8]* @fdiv_namestr, i32 0, i32 0)), !llfi_injectfault !15
  %44 = call double @sin(double %fi4) #7, !llfi_index !775
  %45 = fsub double -0.000000e+00, %44, !llfi_index !776
  %fi5 = call double @injectFault7(i64 775, double %45, i32 11, i32 0, i32 1, i32 0, i8* getelementptr inbounds ([5 x i8]* @fsub_namestr, i32 0, i32 0)), !llfi_injectfault !15
  %46 = load i64* %k, align 8, !llfi_index !777
  %fi6 = call i64 @injectFault0(i64 776, i64 %46, i32 27, i32 0, i32 1, i32 0, i8* getelementptr inbounds ([5 x i8]* @load_namestr, i32 0, i32 0)), !llfi_injectfault !15
  %47 = load i64* %i, align 8, !llfi_index !778
  %fi7 = call i64 @injectFault0(i64 777, i64 %47, i32 27, i32 0, i32 1, i32 0, i8* getelementptr inbounds ([5 x i8]* @load_namestr, i32 0, i32 0)), !llfi_injectfault !15
  %48 = add nsw i64 %fi6, %fi7, !llfi_index !779
  %fi8 = call i64 @injectFault0(i64 778, i64 %48, i32 8, i32 0, i32 1, i32 0, i8* getelementptr inbounds ([4 x i8]* @add_namestr, i32 0, i32 0)), !llfi_injectfault !15
  %49 = mul nsw i64 2, %fi8, !llfi_index !780
  %fi9 = call i64 @injectFault0(i64 779, i64 %49, i32 12, i32 0, i32 1, i32 0, i8* getelementptr inbounds ([4 x i8]* @mul_namestr, i32 0, i32 0)), !llfi_injectfault !15
  %50 = add nsw i64 %fi9, 1, !llfi_index !781
  %fi10 = call i64 @injectFault0(i64 780, i64 %50, i32 8, i32 0, i32 1, i32 0, i8* getelementptr inbounds ([4 x i8]* @add_namestr, i32 0, i32 0)), !llfi_injectfault !15
  %51 = load double** %2, align 8, !llfi_index !782
  %fi11 = call double* @injectFault4(i64 781, double* %51, i32 27, i32 0, i32 1, i32 0, i8* getelementptr inbounds ([5 x i8]* @load_namestr, i32 0, i32 0)), !llfi_injectfault !15
  %52 = getelementptr double* %fi11, i64 %fi10, !llfi_index !783
  %fi12 = call double* @injectFault4(i64 782, double* %52, i32 29, i32 0, i32 1, i32 0, i8* getelementptr inbounds ([14 x i8]* @getelementptr_namestr, i32 0, i32 0)), !llfi_injectfault !15
  store double %fi5, double* %fi12, align 8, !llfi_index !784
  br label %53, !llfi_index !785

; <label>:53                                      ; preds = %18
  %54 = load i64* %i, align 8, !llfi_index !786
  %fi13 = call i64 @injectFault0(i64 785, i64 %54, i32 27, i32 0, i32 1, i32 0, i8* getelementptr inbounds ([5 x i8]* @load_namestr, i32 0, i32 0)), !llfi_injectfault !15
  %55 = add nsw i64 %fi13, 1, !llfi_index !787
  %fi14 = call i64 @injectFault0(i64 786, i64 %55, i32 8, i32 0, i32 1, i32 0, i8* getelementptr inbounds ([4 x i8]* @add_namestr, i32 0, i32 0)), !llfi_injectfault !15
  store i64 %fi14, i64* %i, align 8, !llfi_index !788
  br label %14, !llfi_index !789

; <label>:56                                      ; preds = %14
  br label %57, !llfi_index !790

; <label>:57                                      ; preds = %56
  %58 = load i64* %j, align 8, !llfi_index !791
  %fi15 = call i64 @injectFault0(i64 790, i64 %58, i32 27, i32 0, i32 1, i32 0, i8* getelementptr inbounds ([5 x i8]* @load_namestr, i32 0, i32 0)), !llfi_injectfault !15
  %59 = add nsw i64 %fi15, 1, !llfi_index !792
  %fi16 = call i64 @injectFault0(i64 791, i64 %59, i32 8, i32 0, i32 1, i32 0, i8* getelementptr inbounds ([4 x i8]* @add_namestr, i32 0, i32 0)), !llfi_injectfault !15
  store i64 %fi16, i64* %j, align 8, !llfi_index !793
  br label %4, !llfi_index !794

; <label>:60                                      ; preds = %4
  ret void, !llfi_index !795
}

; Function Attrs: uwtable
define void @_Z10SlaveStartv() #0 {
  %i = alloca i64, align 8, !llfi_index !796
  %MyNum = alloca i64, align 8, !llfi_index !797
  %upriv = alloca double*, align 8, !llfi_index !798
  %initdone = alloca i64, align 8, !llfi_index !799
  %finish = alloca i64, align 8, !llfi_index !800
  %l_transtime = alloca i64, align 8, !llfi_index !801
  %MyFirst = alloca i64, align 8, !llfi_index !802
  %MyLast = alloca i64, align 8, !llfi_index !803
  store i64 0, i64* %l_transtime, align 8, !llfi_index !804
  %1 = load %struct.GlobalMemory** @Global, align 8, !llfi_index !805
  %fi = call %struct.GlobalMemory* @injectFault6(i64 804, %struct.GlobalMemory* %1, i32 27, i32 0, i32 1, i32 0, i8* getelementptr inbounds ([5 x i8]* @load_namestr, i32 0, i32 0)), !llfi_injectfault !15
  %2 = getelementptr %struct.GlobalMemory* %fi, i32 0, i32 0, !llfi_index !806
  %fi1 = call i64* @injectFault8(i64 805, i64* %2, i32 29, i32 0, i32 1, i32 0, i8* getelementptr inbounds ([14 x i8]* @getelementptr_namestr, i32 0, i32 0)), !llfi_injectfault !15
  %3 = load i64* %fi1, align 8, !llfi_index !807
  %fi2 = call i64 @injectFault0(i64 806, i64 %3, i32 27, i32 0, i32 1, i32 0, i8* getelementptr inbounds ([5 x i8]* @load_namestr, i32 0, i32 0)), !llfi_injectfault !15
  store i64 %fi2, i64* %MyNum, align 8, !llfi_index !808
  %4 = load %struct.GlobalMemory** @Global, align 8, !llfi_index !809
  %fi3 = call %struct.GlobalMemory* @injectFault6(i64 808, %struct.GlobalMemory* %4, i32 27, i32 0, i32 1, i32 0, i8* getelementptr inbounds ([5 x i8]* @load_namestr, i32 0, i32 0)), !llfi_injectfault !15
  %5 = getelementptr %struct.GlobalMemory* %fi3, i32 0, i32 0, !llfi_index !810
  %fi4 = call i64* @injectFault8(i64 809, i64* %5, i32 29, i32 0, i32 1, i32 0, i8* getelementptr inbounds ([14 x i8]* @getelementptr_namestr, i32 0, i32 0)), !llfi_injectfault !15
  %6 = load i64* %fi4, align 8, !llfi_index !811
  %fi5 = call i64 @injectFault0(i64 810, i64 %6, i32 27, i32 0, i32 1, i32 0, i8* getelementptr inbounds ([5 x i8]* @load_namestr, i32 0, i32 0)), !llfi_injectfault !15
  %7 = add nsw i64 %fi5, 1, !llfi_index !812
  %fi6 = call i64 @injectFault0(i64 811, i64 %7, i32 8, i32 0, i32 1, i32 0, i8* getelementptr inbounds ([4 x i8]* @add_namestr, i32 0, i32 0)), !llfi_injectfault !15
  store i64 %fi6, i64* %fi4, align 8, !llfi_index !813
  %8 = load i64* @rootN, align 8, !llfi_index !814
  %fi7 = call i64 @injectFault0(i64 813, i64 %8, i32 27, i32 0, i32 1, i32 0, i8* getelementptr inbounds ([5 x i8]* @load_namestr, i32 0, i32 0)), !llfi_injectfault !15
  %9 = sub nsw i64 %fi7, 1, !llfi_index !815
  %fi9 = call i64 @injectFault0(i64 814, i64 %9, i32 10, i32 0, i32 1, i32 0, i8* getelementptr inbounds ([4 x i8]* @sub_namestr, i32 0, i32 0)), !llfi_injectfault !15
  %10 = mul nsw i64 2, %fi9, !llfi_index !816
  %fi10 = call i64 @injectFault0(i64 815, i64 %10, i32 12, i32 0, i32 1, i32 0, i8* getelementptr inbounds ([4 x i8]* @mul_namestr, i32 0, i32 0)), !llfi_injectfault !15
  %11 = mul i64 %fi10, 8, !llfi_index !817
  %fi11 = call i64 @injectFault0(i64 816, i64 %11, i32 12, i32 0, i32 1, i32 0, i8* getelementptr inbounds ([4 x i8]* @mul_namestr, i32 0, i32 0)), !llfi_injectfault !15
  %12 = call noalias i8* @malloc(i64 %fi11) #7, !llfi_index !818
  %13 = bitcast i8* %12 to double*, !llfi_index !819
  %fi12 = call double* @injectFault4(i64 818, double* %13, i32 44, i32 0, i32 1, i32 0, i8* getelementptr inbounds ([8 x i8]* @bitcast_namestr, i32 0, i32 0)), !llfi_injectfault !15
  store double* %fi12, double** %upriv, align 8, !llfi_index !820
  %14 = load double** %upriv, align 8, !llfi_index !821
  %fi13 = call double* @injectFault4(i64 820, double* %14, i32 27, i32 0, i32 1, i32 0, i8* getelementptr inbounds ([5 x i8]* @load_namestr, i32 0, i32 0)), !llfi_injectfault !15
  %15 = icmp eq double* %fi13, null, !llfi_index !822
  %fi14 = call i1 @injectFault1(i64 821, i1 %15, i32 46, i32 0, i32 1, i32 0, i8* getelementptr inbounds ([5 x i8]* @icmp_namestr, i32 0, i32 0)), !llfi_injectfault !15
  br i1 %fi14, label %16, label %20, !llfi_index !823

; <label>:16                                      ; preds = %0
  %17 = load %struct._IO_FILE** @stderr, align 8, !llfi_index !824
  %fi8 = call %struct._IO_FILE* @injectFault10(i64 823, %struct._IO_FILE* %17, i32 27, i32 0, i32 1, i32 0, i8* getelementptr inbounds ([5 x i8]* @load_namestr, i32 0, i32 0)), !llfi_injectfault !15
  %18 = load i64* %MyNum, align 8, !llfi_index !825
  %fi16 = call i64 @injectFault0(i64 824, i64 %18, i32 27, i32 0, i32 1, i32 0, i8* getelementptr inbounds ([5 x i8]* @load_namestr, i32 0, i32 0)), !llfi_injectfault !15
  %19 = call i32 (%struct._IO_FILE*, i8*, ...)* @fprintf(%struct._IO_FILE* %fi8, i8* getelementptr inbounds ([44 x i8]* @.str36, i32 0, i32 0), i64 %fi16), !llfi_index !826
  call void @postInjections()
  call void @exit(i32 -1) #9, !llfi_index !827
  unreachable, !llfi_index !828

; <label>:20                                      ; preds = %0
  store i64 0, i64* %i, align 8, !llfi_index !829
  br label %21, !llfi_index !830

; <label>:21                                      ; preds = %35, %20
  %22 = load i64* %i, align 8, !llfi_index !831
  %fi17 = call i64 @injectFault0(i64 830, i64 %22, i32 27, i32 0, i32 1, i32 0, i8* getelementptr inbounds ([5 x i8]* @load_namestr, i32 0, i32 0)), !llfi_injectfault !15
  %23 = load i64* @rootN, align 8, !llfi_index !832
  %fi18 = call i64 @injectFault0(i64 831, i64 %23, i32 27, i32 0, i32 1, i32 0, i8* getelementptr inbounds ([5 x i8]* @load_namestr, i32 0, i32 0)), !llfi_injectfault !15
  %24 = sub nsw i64 %fi18, 1, !llfi_index !833
  %fi19 = call i64 @injectFault0(i64 832, i64 %24, i32 10, i32 0, i32 1, i32 0, i8* getelementptr inbounds ([4 x i8]* @sub_namestr, i32 0, i32 0)), !llfi_injectfault !15
  %25 = mul nsw i64 2, %fi19, !llfi_index !834
  %fi20 = call i64 @injectFault0(i64 833, i64 %25, i32 12, i32 0, i32 1, i32 0, i8* getelementptr inbounds ([4 x i8]* @mul_namestr, i32 0, i32 0)), !llfi_injectfault !15
  %26 = icmp slt i64 %fi17, %fi20, !llfi_index !835
  %fi21 = call i1 @injectFault1(i64 834, i1 %26, i32 46, i32 0, i32 1, i32 0, i8* getelementptr inbounds ([5 x i8]* @icmp_namestr, i32 0, i32 0)), !llfi_injectfault !15
  br i1 %fi21, label %27, label %38, !llfi_index !836

; <label>:27                                      ; preds = %21
  %28 = load i64* %i, align 8, !llfi_index !837
  %fi22 = call i64 @injectFault0(i64 836, i64 %28, i32 27, i32 0, i32 1, i32 0, i8* getelementptr inbounds ([5 x i8]* @load_namestr, i32 0, i32 0)), !llfi_injectfault !15
  %29 = load double** @umain, align 8, !llfi_index !838
  %fi23 = call double* @injectFault4(i64 837, double* %29, i32 27, i32 0, i32 1, i32 0, i8* getelementptr inbounds ([5 x i8]* @load_namestr, i32 0, i32 0)), !llfi_injectfault !15
  %30 = getelementptr double* %fi23, i64 %fi22, !llfi_index !839
  %fi24 = call double* @injectFault4(i64 838, double* %30, i32 29, i32 0, i32 1, i32 0, i8* getelementptr inbounds ([14 x i8]* @getelementptr_namestr, i32 0, i32 0)), !llfi_injectfault !15
  %31 = load double* %fi24, align 8, !llfi_index !840
  %fi25 = call double @injectFault7(i64 839, double %31, i32 27, i32 0, i32 1, i32 0, i8* getelementptr inbounds ([5 x i8]* @load_namestr, i32 0, i32 0)), !llfi_injectfault !15
  %32 = load i64* %i, align 8, !llfi_index !841
  %fi26 = call i64 @injectFault0(i64 840, i64 %32, i32 27, i32 0, i32 1, i32 0, i8* getelementptr inbounds ([5 x i8]* @load_namestr, i32 0, i32 0)), !llfi_injectfault !15
  %33 = load double** %upriv, align 8, !llfi_index !842
  %fi15 = call double* @injectFault4(i64 841, double* %33, i32 27, i32 0, i32 1, i32 0, i8* getelementptr inbounds ([5 x i8]* @load_namestr, i32 0, i32 0)), !llfi_injectfault !15
  %34 = getelementptr double* %fi15, i64 %fi26, !llfi_index !843
  %fi30 = call double* @injectFault4(i64 842, double* %34, i32 29, i32 0, i32 1, i32 0, i8* getelementptr inbounds ([14 x i8]* @getelementptr_namestr, i32 0, i32 0)), !llfi_injectfault !15
  store double %fi25, double* %fi30, align 8, !llfi_index !844
  br label %35, !llfi_index !845

; <label>:35                                      ; preds = %27
  %36 = load i64* %i, align 8, !llfi_index !846
  %fi31 = call i64 @injectFault0(i64 845, i64 %36, i32 27, i32 0, i32 1, i32 0, i8* getelementptr inbounds ([5 x i8]* @load_namestr, i32 0, i32 0)), !llfi_injectfault !15
  %37 = add nsw i64 %fi31, 1, !llfi_index !847
  %fi32 = call i64 @injectFault0(i64 846, i64 %37, i32 8, i32 0, i32 1, i32 0, i8* getelementptr inbounds ([4 x i8]* @add_namestr, i32 0, i32 0)), !llfi_injectfault !15
  store i64 %fi32, i64* %i, align 8, !llfi_index !848
  br label %21, !llfi_index !849

; <label>:38                                      ; preds = %21
  %39 = load i64* @rootN, align 8, !llfi_index !850
  %fi33 = call i64 @injectFault0(i64 849, i64 %39, i32 27, i32 0, i32 1, i32 0, i8* getelementptr inbounds ([5 x i8]* @load_namestr, i32 0, i32 0)), !llfi_injectfault !15
  %40 = load i64* %MyNum, align 8, !llfi_index !851
  %fi34 = call i64 @injectFault0(i64 850, i64 %40, i32 27, i32 0, i32 1, i32 0, i8* getelementptr inbounds ([5 x i8]* @load_namestr, i32 0, i32 0)), !llfi_injectfault !15
  %41 = mul nsw i64 %fi33, %fi34, !llfi_index !852
  %fi35 = call i64 @injectFault0(i64 851, i64 %41, i32 12, i32 0, i32 1, i32 0, i8* getelementptr inbounds ([4 x i8]* @mul_namestr, i32 0, i32 0)), !llfi_injectfault !15
  %42 = load i64* @P, align 8, !llfi_index !853
  %fi36 = call i64 @injectFault0(i64 852, i64 %42, i32 27, i32 0, i32 1, i32 0, i8* getelementptr inbounds ([5 x i8]* @load_namestr, i32 0, i32 0)), !llfi_injectfault !15
  %43 = sdiv i64 %fi35, %fi36, !llfi_index !854
  %fi37 = call i64 @injectFault0(i64 853, i64 %43, i32 15, i32 0, i32 1, i32 0, i8* getelementptr inbounds ([5 x i8]* @sdiv_namestr, i32 0, i32 0)), !llfi_injectfault !15
  store i64 %fi37, i64* %MyFirst, align 8, !llfi_index !855
  %44 = load i64* @rootN, align 8, !llfi_index !856
  %fi38 = call i64 @injectFault0(i64 855, i64 %44, i32 27, i32 0, i32 1, i32 0, i8* getelementptr inbounds ([5 x i8]* @load_namestr, i32 0, i32 0)), !llfi_injectfault !15
  %45 = load i64* %MyNum, align 8, !llfi_index !857
  %fi39 = call i64 @injectFault0(i64 856, i64 %45, i32 27, i32 0, i32 1, i32 0, i8* getelementptr inbounds ([5 x i8]* @load_namestr, i32 0, i32 0)), !llfi_injectfault !15
  %46 = add nsw i64 %fi39, 1, !llfi_index !858
  %fi40 = call i64 @injectFault0(i64 857, i64 %46, i32 8, i32 0, i32 1, i32 0, i8* getelementptr inbounds ([4 x i8]* @add_namestr, i32 0, i32 0)), !llfi_injectfault !15
  %47 = mul nsw i64 %fi38, %fi40, !llfi_index !859
  %fi41 = call i64 @injectFault0(i64 858, i64 %47, i32 12, i32 0, i32 1, i32 0, i8* getelementptr inbounds ([4 x i8]* @mul_namestr, i32 0, i32 0)), !llfi_injectfault !15
  %48 = load i64* @P, align 8, !llfi_index !860
  %fi42 = call i64 @injectFault0(i64 859, i64 %48, i32 27, i32 0, i32 1, i32 0, i8* getelementptr inbounds ([5 x i8]* @load_namestr, i32 0, i32 0)), !llfi_injectfault !15
  %49 = sdiv i64 %fi41, %fi42, !llfi_index !861
  %fi43 = call i64 @injectFault0(i64 860, i64 %49, i32 15, i32 0, i32 1, i32 0, i8* getelementptr inbounds ([5 x i8]* @sdiv_namestr, i32 0, i32 0)), !llfi_injectfault !15
  store i64 %fi43, i64* %MyLast, align 8, !llfi_index !862
  %50 = load double** @x, align 8, !llfi_index !863
  %fi44 = call double* @injectFault4(i64 862, double* %50, i32 27, i32 0, i32 1, i32 0, i8* getelementptr inbounds ([5 x i8]* @load_namestr, i32 0, i32 0)), !llfi_injectfault !15
  %51 = load double** @trans, align 8, !llfi_index !864
  %fi45 = call double* @injectFault4(i64 863, double* %51, i32 27, i32 0, i32 1, i32 0, i8* getelementptr inbounds ([5 x i8]* @load_namestr, i32 0, i32 0)), !llfi_injectfault !15
  %52 = load double** @umain2, align 8, !llfi_index !865
  %fi46 = call double* @injectFault4(i64 864, double* %52, i32 27, i32 0, i32 1, i32 0, i8* getelementptr inbounds ([5 x i8]* @load_namestr, i32 0, i32 0)), !llfi_injectfault !15
  %53 = load double** %upriv, align 8, !llfi_index !866
  %fi47 = call double* @injectFault4(i64 865, double* %53, i32 27, i32 0, i32 1, i32 0, i8* getelementptr inbounds ([5 x i8]* @load_namestr, i32 0, i32 0)), !llfi_injectfault !15
  %54 = load i64* %MyFirst, align 8, !llfi_index !867
  %fi48 = call i64 @injectFault0(i64 866, i64 %54, i32 27, i32 0, i32 1, i32 0, i8* getelementptr inbounds ([5 x i8]* @load_namestr, i32 0, i32 0)), !llfi_injectfault !15
  %55 = load i64* %MyLast, align 8, !llfi_index !868
  %fi49 = call i64 @injectFault0(i64 867, i64 %55, i32 27, i32 0, i32 1, i32 0, i8* getelementptr inbounds ([5 x i8]* @load_namestr, i32 0, i32 0)), !llfi_injectfault !15
  %56 = call double @_Z10TouchArrayPdS_S_S_ll(double* %fi44, double* %fi45, double* %fi46, double* %fi47, i64 %fi48, i64 %fi49), !llfi_index !869
  %57 = load i64* @M, align 8, !llfi_index !870
  %fi50 = call i64 @injectFault0(i64 869, i64 %57, i32 27, i32 0, i32 1, i32 0, i8* getelementptr inbounds ([5 x i8]* @load_namestr, i32 0, i32 0)), !llfi_injectfault !15
  %58 = load i64* @N, align 8, !llfi_index !871
  %fi51 = call i64 @injectFault0(i64 870, i64 %58, i32 27, i32 0, i32 1, i32 0, i8* getelementptr inbounds ([5 x i8]* @load_namestr, i32 0, i32 0)), !llfi_injectfault !15
  %59 = load double** @x, align 8, !llfi_index !872
  %fi52 = call double* @injectFault4(i64 871, double* %59, i32 27, i32 0, i32 1, i32 0, i8* getelementptr inbounds ([5 x i8]* @load_namestr, i32 0, i32 0)), !llfi_injectfault !15
  %60 = load double** @trans, align 8, !llfi_index !873
  %fi53 = call double* @injectFault4(i64 872, double* %60, i32 27, i32 0, i32 1, i32 0, i8* getelementptr inbounds ([5 x i8]* @load_namestr, i32 0, i32 0)), !llfi_injectfault !15
  %61 = load double** %upriv, align 8, !llfi_index !874
  %fi54 = call double* @injectFault4(i64 873, double* %61, i32 27, i32 0, i32 1, i32 0, i8* getelementptr inbounds ([5 x i8]* @load_namestr, i32 0, i32 0)), !llfi_injectfault !15
  %62 = load double** @umain2, align 8, !llfi_index !875
  %fi55 = call double* @injectFault4(i64 874, double* %62, i32 27, i32 0, i32 1, i32 0, i8* getelementptr inbounds ([5 x i8]* @load_namestr, i32 0, i32 0)), !llfi_injectfault !15
  %63 = load i64* %MyNum, align 8, !llfi_index !876
  %fi56 = call i64 @injectFault0(i64 875, i64 %63, i32 27, i32 0, i32 1, i32 0, i8* getelementptr inbounds ([5 x i8]* @load_namestr, i32 0, i32 0)), !llfi_injectfault !15
  %64 = load i64* %MyFirst, align 8, !llfi_index !877
  %fi57 = call i64 @injectFault0(i64 876, i64 %64, i32 27, i32 0, i32 1, i32 0, i8* getelementptr inbounds ([5 x i8]* @load_namestr, i32 0, i32 0)), !llfi_injectfault !15
  %65 = load i64* %MyLast, align 8, !llfi_index !878
  %fi27 = call i64 @injectFault0(i64 877, i64 %65, i32 27, i32 0, i32 1, i32 0, i8* getelementptr inbounds ([5 x i8]* @load_namestr, i32 0, i32 0)), !llfi_injectfault !15
  %66 = load i64* @pad_length, align 8, !llfi_index !879
  %fi28 = call i64 @injectFault0(i64 878, i64 %66, i32 27, i32 0, i32 1, i32 0, i8* getelementptr inbounds ([5 x i8]* @load_namestr, i32 0, i32 0)), !llfi_injectfault !15
  %67 = load i64* @test_result, align 8, !llfi_index !880
  %fi29 = call i64 @injectFault0(i64 879, i64 %67, i32 27, i32 0, i32 1, i32 0, i8* getelementptr inbounds ([5 x i8]* @load_namestr, i32 0, i32 0)), !llfi_injectfault !15
  %68 = load i64* @dostats, align 8, !llfi_index !881
  %fi58 = call i64 @injectFault0(i64 880, i64 %68, i32 27, i32 0, i32 1, i32 0, i8* getelementptr inbounds ([5 x i8]* @load_namestr, i32 0, i32 0)), !llfi_injectfault !15
  call void @_Z5FFT1DlllPdS_S_S_lPllllll(i64 1, i64 %fi50, i64 %fi51, double* %fi52, double* %fi53, double* %fi54, double* %fi55, i64 %fi56, i64* %l_transtime, i64 %fi57, i64 %fi27, i64 %fi28, i64 %fi29, i64 %fi58), !llfi_index !882
  %69 = load i64* @test_result, align 8, !llfi_index !883
  %fi59 = call i64 @injectFault0(i64 882, i64 %69, i32 27, i32 0, i32 1, i32 0, i8* getelementptr inbounds ([5 x i8]* @load_namestr, i32 0, i32 0)), !llfi_injectfault !15
  %70 = icmp ne i64 %fi59, 0, !llfi_index !884
  %fi60 = call i1 @injectFault1(i64 883, i1 %70, i32 46, i32 0, i32 1, i32 0, i8* getelementptr inbounds ([5 x i8]* @icmp_namestr, i32 0, i32 0)), !llfi_injectfault !15
  br i1 %fi60, label %71, label %84, !llfi_index !885

; <label>:71                                      ; preds = %38
  %72 = load i64* @M, align 8, !llfi_index !886
  %fi61 = call i64 @injectFault0(i64 885, i64 %72, i32 27, i32 0, i32 1, i32 0, i8* getelementptr inbounds ([5 x i8]* @load_namestr, i32 0, i32 0)), !llfi_injectfault !15
  %73 = load i64* @N, align 8, !llfi_index !887
  %fi62 = call i64 @injectFault0(i64 886, i64 %73, i32 27, i32 0, i32 1, i32 0, i8* getelementptr inbounds ([5 x i8]* @load_namestr, i32 0, i32 0)), !llfi_injectfault !15
  %74 = load double** @x, align 8, !llfi_index !888
  %fi63 = call double* @injectFault4(i64 887, double* %74, i32 27, i32 0, i32 1, i32 0, i8* getelementptr inbounds ([5 x i8]* @load_namestr, i32 0, i32 0)), !llfi_injectfault !15
  %75 = load double** @trans, align 8, !llfi_index !889
  %fi64 = call double* @injectFault4(i64 888, double* %75, i32 27, i32 0, i32 1, i32 0, i8* getelementptr inbounds ([5 x i8]* @load_namestr, i32 0, i32 0)), !llfi_injectfault !15
  %76 = load double** %upriv, align 8, !llfi_index !890
  %fi65 = call double* @injectFault4(i64 889, double* %76, i32 27, i32 0, i32 1, i32 0, i8* getelementptr inbounds ([5 x i8]* @load_namestr, i32 0, i32 0)), !llfi_injectfault !15
  %77 = load double** @umain2, align 8, !llfi_index !891
  %fi66 = call double* @injectFault4(i64 890, double* %77, i32 27, i32 0, i32 1, i32 0, i8* getelementptr inbounds ([5 x i8]* @load_namestr, i32 0, i32 0)), !llfi_injectfault !15
  %78 = load i64* %MyNum, align 8, !llfi_index !892
  %fi67 = call i64 @injectFault0(i64 891, i64 %78, i32 27, i32 0, i32 1, i32 0, i8* getelementptr inbounds ([5 x i8]* @load_namestr, i32 0, i32 0)), !llfi_injectfault !15
  %79 = load i64* %MyFirst, align 8, !llfi_index !893
  %fi68 = call i64 @injectFault0(i64 892, i64 %79, i32 27, i32 0, i32 1, i32 0, i8* getelementptr inbounds ([5 x i8]* @load_namestr, i32 0, i32 0)), !llfi_injectfault !15
  %80 = load i64* %MyLast, align 8, !llfi_index !894
  %fi69 = call i64 @injectFault0(i64 893, i64 %80, i32 27, i32 0, i32 1, i32 0, i8* getelementptr inbounds ([5 x i8]* @load_namestr, i32 0, i32 0)), !llfi_injectfault !15
  %81 = load i64* @pad_length, align 8, !llfi_index !895
  %fi70 = call i64 @injectFault0(i64 894, i64 %81, i32 27, i32 0, i32 1, i32 0, i8* getelementptr inbounds ([5 x i8]* @load_namestr, i32 0, i32 0)), !llfi_injectfault !15
  %82 = load i64* @test_result, align 8, !llfi_index !896
  %fi71 = call i64 @injectFault0(i64 895, i64 %82, i32 27, i32 0, i32 1, i32 0, i8* getelementptr inbounds ([5 x i8]* @load_namestr, i32 0, i32 0)), !llfi_injectfault !15
  %83 = load i64* @dostats, align 8, !llfi_index !897
  %fi72 = call i64 @injectFault0(i64 896, i64 %83, i32 27, i32 0, i32 1, i32 0, i8* getelementptr inbounds ([5 x i8]* @load_namestr, i32 0, i32 0)), !llfi_injectfault !15
  call void @_Z5FFT1DlllPdS_S_S_lPllllll(i64 -1, i64 %fi61, i64 %fi62, double* %fi63, double* %fi64, double* %fi65, double* %fi66, i64 %fi67, i64* %l_transtime, i64 %fi68, i64 %fi69, i64 %fi70, i64 %fi71, i64 %fi72), !llfi_index !898
  br label %84, !llfi_index !899

; <label>:84                                      ; preds = %71, %38
  ret void, !llfi_index !900
}

; Function Attrs: nounwind readnone
declare double @fabs(double) #6

declare i32 @fprintf(%struct._IO_FILE*, i8*, ...) #5

; Function Attrs: nounwind uwtable
define double @_Z10TouchArrayPdS_S_S_ll(double* %x, double* %scratch, double* %u, double* %upriv, i64 %MyFirst, i64 %MyLast) #4 {
  %1 = alloca double*, align 8, !llfi_index !901
  %2 = alloca double*, align 8, !llfi_index !902
  %3 = alloca double*, align 8, !llfi_index !903
  %4 = alloca double*, align 8, !llfi_index !904
  %5 = alloca i64, align 8, !llfi_index !905
  %6 = alloca i64, align 8, !llfi_index !906
  %i = alloca i64, align 8, !llfi_index !907
  %j = alloca i64, align 8, !llfi_index !908
  %k = alloca i64, align 8, !llfi_index !909
  %tot = alloca double, align 8, !llfi_index !910
  store double* %x, double** %1, align 8, !llfi_index !911
  store double* %scratch, double** %2, align 8, !llfi_index !912
  store double* %u, double** %3, align 8, !llfi_index !913
  store double* %upriv, double** %4, align 8, !llfi_index !914
  store i64 %MyFirst, i64* %5, align 8, !llfi_index !915
  store i64 %MyLast, i64* %6, align 8, !llfi_index !916
  store double 0.000000e+00, double* %tot, align 8, !llfi_index !917
  store i64 0, i64* %j, align 8, !llfi_index !918
  br label %7, !llfi_index !919

; <label>:7                                       ; preds = %20, %0
  %8 = load i64* %j, align 8, !llfi_index !920
  %fi1 = call i64 @injectFault0(i64 919, i64 %8, i32 27, i32 0, i32 1, i32 0, i8* getelementptr inbounds ([5 x i8]* @load_namestr, i32 0, i32 0)), !llfi_injectfault !15
  %9 = load i64* @rootN, align 8, !llfi_index !921
  %fi3 = call i64 @injectFault0(i64 920, i64 %9, i32 27, i32 0, i32 1, i32 0, i8* getelementptr inbounds ([5 x i8]* @load_namestr, i32 0, i32 0)), !llfi_injectfault !15
  %10 = sub nsw i64 %fi3, 1, !llfi_index !922
  %fi4 = call i64 @injectFault0(i64 921, i64 %10, i32 10, i32 0, i32 1, i32 0, i8* getelementptr inbounds ([4 x i8]* @sub_namestr, i32 0, i32 0)), !llfi_injectfault !15
  %11 = mul nsw i64 2, %fi4, !llfi_index !923
  %fi5 = call i64 @injectFault0(i64 922, i64 %11, i32 12, i32 0, i32 1, i32 0, i8* getelementptr inbounds ([4 x i8]* @mul_namestr, i32 0, i32 0)), !llfi_injectfault !15
  %12 = icmp slt i64 %fi1, %fi5, !llfi_index !924
  %fi6 = call i1 @injectFault1(i64 923, i1 %12, i32 46, i32 0, i32 1, i32 0, i8* getelementptr inbounds ([5 x i8]* @icmp_namestr, i32 0, i32 0)), !llfi_injectfault !15
  br i1 %fi6, label %13, label %23, !llfi_index !925

; <label>:13                                      ; preds = %7
  %14 = load i64* %j, align 8, !llfi_index !926
  %fi7 = call i64 @injectFault0(i64 925, i64 %14, i32 27, i32 0, i32 1, i32 0, i8* getelementptr inbounds ([5 x i8]* @load_namestr, i32 0, i32 0)), !llfi_injectfault !15
  %15 = load double** %4, align 8, !llfi_index !927
  %fi8 = call double* @injectFault4(i64 926, double* %15, i32 27, i32 0, i32 1, i32 0, i8* getelementptr inbounds ([5 x i8]* @load_namestr, i32 0, i32 0)), !llfi_injectfault !15
  %16 = getelementptr double* %fi8, i64 %fi7, !llfi_index !928
  %fi9 = call double* @injectFault4(i64 927, double* %16, i32 29, i32 0, i32 1, i32 0, i8* getelementptr inbounds ([14 x i8]* @getelementptr_namestr, i32 0, i32 0)), !llfi_injectfault !15
  %17 = load double* %fi9, align 8, !llfi_index !929
  %fi2 = call double @injectFault7(i64 928, double %17, i32 27, i32 0, i32 1, i32 0, i8* getelementptr inbounds ([5 x i8]* @load_namestr, i32 0, i32 0)), !llfi_injectfault !15
  %18 = load double* %tot, align 8, !llfi_index !930
  %fi11 = call double @injectFault7(i64 929, double %18, i32 27, i32 0, i32 1, i32 0, i8* getelementptr inbounds ([5 x i8]* @load_namestr, i32 0, i32 0)), !llfi_injectfault !15
  %19 = fadd double %fi11, %fi2, !llfi_index !931
  %fi12 = call double @injectFault7(i64 930, double %19, i32 9, i32 0, i32 1, i32 0, i8* getelementptr inbounds ([5 x i8]* @fadd_namestr, i32 0, i32 0)), !llfi_injectfault !15
  store double %fi12, double* %tot, align 8, !llfi_index !932
  br label %20, !llfi_index !933

; <label>:20                                      ; preds = %13
  %21 = load i64* %j, align 8, !llfi_index !934
  %fi13 = call i64 @injectFault0(i64 933, i64 %21, i32 27, i32 0, i32 1, i32 0, i8* getelementptr inbounds ([5 x i8]* @load_namestr, i32 0, i32 0)), !llfi_injectfault !15
  %22 = add nsw i64 %fi13, 1, !llfi_index !935
  %fi14 = call i64 @injectFault0(i64 934, i64 %22, i32 8, i32 0, i32 1, i32 0, i8* getelementptr inbounds ([4 x i8]* @add_namestr, i32 0, i32 0)), !llfi_injectfault !15
  store i64 %fi14, i64* %j, align 8, !llfi_index !936
  br label %7, !llfi_index !937

; <label>:23                                      ; preds = %7
  %24 = load i64* %5, align 8, !llfi_index !938
  %fi15 = call i64 @injectFault0(i64 937, i64 %24, i32 27, i32 0, i32 1, i32 0, i8* getelementptr inbounds ([5 x i8]* @load_namestr, i32 0, i32 0)), !llfi_injectfault !15
  store i64 %fi15, i64* %j, align 8, !llfi_index !939
  br label %25, !llfi_index !940

; <label>:25                                      ; preds = %96, %23
  %26 = load i64* %j, align 8, !llfi_index !941
  %fi16 = call i64 @injectFault0(i64 940, i64 %26, i32 27, i32 0, i32 1, i32 0, i8* getelementptr inbounds ([5 x i8]* @load_namestr, i32 0, i32 0)), !llfi_injectfault !15
  %27 = load i64* %6, align 8, !llfi_index !942
  %fi17 = call i64 @injectFault0(i64 941, i64 %27, i32 27, i32 0, i32 1, i32 0, i8* getelementptr inbounds ([5 x i8]* @load_namestr, i32 0, i32 0)), !llfi_injectfault !15
  %28 = icmp slt i64 %fi16, %fi17, !llfi_index !943
  %fi18 = call i1 @injectFault1(i64 942, i1 %28, i32 46, i32 0, i32 1, i32 0, i8* getelementptr inbounds ([5 x i8]* @icmp_namestr, i32 0, i32 0)), !llfi_injectfault !15
  br i1 %fi18, label %29, label %99, !llfi_index !944

; <label>:29                                      ; preds = %25
  %30 = load i64* %j, align 8, !llfi_index !945
  %fi19 = call i64 @injectFault0(i64 944, i64 %30, i32 27, i32 0, i32 1, i32 0, i8* getelementptr inbounds ([5 x i8]* @load_namestr, i32 0, i32 0)), !llfi_injectfault !15
  %31 = load i64* @rootN, align 8, !llfi_index !946
  %fi20 = call i64 @injectFault0(i64 945, i64 %31, i32 27, i32 0, i32 1, i32 0, i8* getelementptr inbounds ([5 x i8]* @load_namestr, i32 0, i32 0)), !llfi_injectfault !15
  %32 = load i64* @pad_length, align 8, !llfi_index !947
  %fi21 = call i64 @injectFault0(i64 946, i64 %32, i32 27, i32 0, i32 1, i32 0, i8* getelementptr inbounds ([5 x i8]* @load_namestr, i32 0, i32 0)), !llfi_injectfault !15
  %33 = add nsw i64 %fi20, %fi21, !llfi_index !948
  %fi10 = call i64 @injectFault0(i64 947, i64 %33, i32 8, i32 0, i32 1, i32 0, i8* getelementptr inbounds ([4 x i8]* @add_namestr, i32 0, i32 0)), !llfi_injectfault !15
  %34 = mul nsw i64 %fi19, %fi10, !llfi_index !949
  %fi25 = call i64 @injectFault0(i64 948, i64 %34, i32 12, i32 0, i32 1, i32 0, i8* getelementptr inbounds ([4 x i8]* @mul_namestr, i32 0, i32 0)), !llfi_injectfault !15
  store i64 %fi25, i64* %k, align 8, !llfi_index !950
  store i64 0, i64* %i, align 8, !llfi_index !951
  br label %35, !llfi_index !952

; <label>:35                                      ; preds = %92, %29
  %36 = load i64* %i, align 8, !llfi_index !953
  %fi26 = call i64 @injectFault0(i64 952, i64 %36, i32 27, i32 0, i32 1, i32 0, i8* getelementptr inbounds ([5 x i8]* @load_namestr, i32 0, i32 0)), !llfi_injectfault !15
  %37 = load i64* @rootN, align 8, !llfi_index !954
  %fi27 = call i64 @injectFault0(i64 953, i64 %37, i32 27, i32 0, i32 1, i32 0, i8* getelementptr inbounds ([5 x i8]* @load_namestr, i32 0, i32 0)), !llfi_injectfault !15
  %38 = icmp slt i64 %fi26, %fi27, !llfi_index !955
  %fi28 = call i1 @injectFault1(i64 954, i1 %38, i32 46, i32 0, i32 1, i32 0, i8* getelementptr inbounds ([5 x i8]* @icmp_namestr, i32 0, i32 0)), !llfi_injectfault !15
  br i1 %fi28, label %39, label %95, !llfi_index !956

; <label>:39                                      ; preds = %35
  %40 = load i64* %k, align 8, !llfi_index !957
  %fi29 = call i64 @injectFault0(i64 956, i64 %40, i32 27, i32 0, i32 1, i32 0, i8* getelementptr inbounds ([5 x i8]* @load_namestr, i32 0, i32 0)), !llfi_injectfault !15
  %41 = load i64* %i, align 8, !llfi_index !958
  %fi30 = call i64 @injectFault0(i64 957, i64 %41, i32 27, i32 0, i32 1, i32 0, i8* getelementptr inbounds ([5 x i8]* @load_namestr, i32 0, i32 0)), !llfi_injectfault !15
  %42 = add nsw i64 %fi29, %fi30, !llfi_index !959
  %fi31 = call i64 @injectFault0(i64 958, i64 %42, i32 8, i32 0, i32 1, i32 0, i8* getelementptr inbounds ([4 x i8]* @add_namestr, i32 0, i32 0)), !llfi_injectfault !15
  %43 = mul nsw i64 2, %fi31, !llfi_index !960
  %fi32 = call i64 @injectFault0(i64 959, i64 %43, i32 12, i32 0, i32 1, i32 0, i8* getelementptr inbounds ([4 x i8]* @mul_namestr, i32 0, i32 0)), !llfi_injectfault !15
  %44 = load double** %1, align 8, !llfi_index !961
  %fi33 = call double* @injectFault4(i64 960, double* %44, i32 27, i32 0, i32 1, i32 0, i8* getelementptr inbounds ([5 x i8]* @load_namestr, i32 0, i32 0)), !llfi_injectfault !15
  %45 = getelementptr double* %fi33, i64 %fi32, !llfi_index !962
  %fi34 = call double* @injectFault4(i64 961, double* %45, i32 29, i32 0, i32 1, i32 0, i8* getelementptr inbounds ([14 x i8]* @getelementptr_namestr, i32 0, i32 0)), !llfi_injectfault !15
  %46 = load double* %fi34, align 8, !llfi_index !963
  %fi35 = call double @injectFault7(i64 962, double %46, i32 27, i32 0, i32 1, i32 0, i8* getelementptr inbounds ([5 x i8]* @load_namestr, i32 0, i32 0)), !llfi_injectfault !15
  %47 = load i64* %k, align 8, !llfi_index !964
  %fi36 = call i64 @injectFault0(i64 963, i64 %47, i32 27, i32 0, i32 1, i32 0, i8* getelementptr inbounds ([5 x i8]* @load_namestr, i32 0, i32 0)), !llfi_injectfault !15
  %48 = load i64* %i, align 8, !llfi_index !965
  %fi37 = call i64 @injectFault0(i64 964, i64 %48, i32 27, i32 0, i32 1, i32 0, i8* getelementptr inbounds ([5 x i8]* @load_namestr, i32 0, i32 0)), !llfi_injectfault !15
  %49 = add nsw i64 %fi36, %fi37, !llfi_index !966
  %fi38 = call i64 @injectFault0(i64 965, i64 %49, i32 8, i32 0, i32 1, i32 0, i8* getelementptr inbounds ([4 x i8]* @add_namestr, i32 0, i32 0)), !llfi_injectfault !15
  %50 = mul nsw i64 2, %fi38, !llfi_index !967
  %fi39 = call i64 @injectFault0(i64 966, i64 %50, i32 12, i32 0, i32 1, i32 0, i8* getelementptr inbounds ([4 x i8]* @mul_namestr, i32 0, i32 0)), !llfi_injectfault !15
  %51 = add nsw i64 %fi39, 1, !llfi_index !968
  %fi40 = call i64 @injectFault0(i64 967, i64 %51, i32 8, i32 0, i32 1, i32 0, i8* getelementptr inbounds ([4 x i8]* @add_namestr, i32 0, i32 0)), !llfi_injectfault !15
  %52 = load double** %1, align 8, !llfi_index !969
  %fi41 = call double* @injectFault4(i64 968, double* %52, i32 27, i32 0, i32 1, i32 0, i8* getelementptr inbounds ([5 x i8]* @load_namestr, i32 0, i32 0)), !llfi_injectfault !15
  %53 = getelementptr double* %fi41, i64 %fi40, !llfi_index !970
  %fi42 = call double* @injectFault4(i64 969, double* %53, i32 29, i32 0, i32 1, i32 0, i8* getelementptr inbounds ([14 x i8]* @getelementptr_namestr, i32 0, i32 0)), !llfi_injectfault !15
  %54 = load double* %fi42, align 8, !llfi_index !971
  %fi43 = call double @injectFault7(i64 970, double %54, i32 27, i32 0, i32 1, i32 0, i8* getelementptr inbounds ([5 x i8]* @load_namestr, i32 0, i32 0)), !llfi_injectfault !15
  %55 = fadd double %fi35, %fi43, !llfi_index !972
  %fi44 = call double @injectFault7(i64 971, double %55, i32 9, i32 0, i32 1, i32 0, i8* getelementptr inbounds ([5 x i8]* @fadd_namestr, i32 0, i32 0)), !llfi_injectfault !15
  %56 = load i64* %k, align 8, !llfi_index !973
  %fi45 = call i64 @injectFault0(i64 972, i64 %56, i32 27, i32 0, i32 1, i32 0, i8* getelementptr inbounds ([5 x i8]* @load_namestr, i32 0, i32 0)), !llfi_injectfault !15
  %57 = load i64* %i, align 8, !llfi_index !974
  %fi46 = call i64 @injectFault0(i64 973, i64 %57, i32 27, i32 0, i32 1, i32 0, i8* getelementptr inbounds ([5 x i8]* @load_namestr, i32 0, i32 0)), !llfi_injectfault !15
  %58 = add nsw i64 %fi45, %fi46, !llfi_index !975
  %fi47 = call i64 @injectFault0(i64 974, i64 %58, i32 8, i32 0, i32 1, i32 0, i8* getelementptr inbounds ([4 x i8]* @add_namestr, i32 0, i32 0)), !llfi_injectfault !15
  %59 = mul nsw i64 2, %fi47, !llfi_index !976
  %fi48 = call i64 @injectFault0(i64 975, i64 %59, i32 12, i32 0, i32 1, i32 0, i8* getelementptr inbounds ([4 x i8]* @mul_namestr, i32 0, i32 0)), !llfi_injectfault !15
  %60 = load double** %2, align 8, !llfi_index !977
  %fi49 = call double* @injectFault4(i64 976, double* %60, i32 27, i32 0, i32 1, i32 0, i8* getelementptr inbounds ([5 x i8]* @load_namestr, i32 0, i32 0)), !llfi_injectfault !15
  %61 = getelementptr double* %fi49, i64 %fi48, !llfi_index !978
  %fi50 = call double* @injectFault4(i64 977, double* %61, i32 29, i32 0, i32 1, i32 0, i8* getelementptr inbounds ([14 x i8]* @getelementptr_namestr, i32 0, i32 0)), !llfi_injectfault !15
  %62 = load double* %fi50, align 8, !llfi_index !979
  %fi51 = call double @injectFault7(i64 978, double %62, i32 27, i32 0, i32 1, i32 0, i8* getelementptr inbounds ([5 x i8]* @load_namestr, i32 0, i32 0)), !llfi_injectfault !15
  %63 = fadd double %fi44, %fi51, !llfi_index !980
  %fi52 = call double @injectFault7(i64 979, double %63, i32 9, i32 0, i32 1, i32 0, i8* getelementptr inbounds ([5 x i8]* @fadd_namestr, i32 0, i32 0)), !llfi_injectfault !15
  %64 = load i64* %k, align 8, !llfi_index !981
  %fi53 = call i64 @injectFault0(i64 980, i64 %64, i32 27, i32 0, i32 1, i32 0, i8* getelementptr inbounds ([5 x i8]* @load_namestr, i32 0, i32 0)), !llfi_injectfault !15
  %65 = load i64* %i, align 8, !llfi_index !982
  %fi = call i64 @injectFault0(i64 981, i64 %65, i32 27, i32 0, i32 1, i32 0, i8* getelementptr inbounds ([5 x i8]* @load_namestr, i32 0, i32 0)), !llfi_injectfault !15
  %66 = add nsw i64 %fi53, %fi, !llfi_index !983
  %fi22 = call i64 @injectFault0(i64 982, i64 %66, i32 8, i32 0, i32 1, i32 0, i8* getelementptr inbounds ([4 x i8]* @add_namestr, i32 0, i32 0)), !llfi_injectfault !15
  %67 = mul nsw i64 2, %fi22, !llfi_index !984
  %fi23 = call i64 @injectFault0(i64 983, i64 %67, i32 12, i32 0, i32 1, i32 0, i8* getelementptr inbounds ([4 x i8]* @mul_namestr, i32 0, i32 0)), !llfi_injectfault !15
  %68 = add nsw i64 %fi23, 1, !llfi_index !985
  %fi24 = call i64 @injectFault0(i64 984, i64 %68, i32 8, i32 0, i32 1, i32 0, i8* getelementptr inbounds ([4 x i8]* @add_namestr, i32 0, i32 0)), !llfi_injectfault !15
  %69 = load double** %2, align 8, !llfi_index !986
  %fi54 = call double* @injectFault4(i64 985, double* %69, i32 27, i32 0, i32 1, i32 0, i8* getelementptr inbounds ([5 x i8]* @load_namestr, i32 0, i32 0)), !llfi_injectfault !15
  %70 = getelementptr double* %fi54, i64 %fi24, !llfi_index !987
  %fi55 = call double* @injectFault4(i64 986, double* %70, i32 29, i32 0, i32 1, i32 0, i8* getelementptr inbounds ([14 x i8]* @getelementptr_namestr, i32 0, i32 0)), !llfi_injectfault !15
  %71 = load double* %fi55, align 8, !llfi_index !988
  %fi56 = call double @injectFault7(i64 987, double %71, i32 27, i32 0, i32 1, i32 0, i8* getelementptr inbounds ([5 x i8]* @load_namestr, i32 0, i32 0)), !llfi_injectfault !15
  %72 = fadd double %fi52, %fi56, !llfi_index !989
  %fi57 = call double @injectFault7(i64 988, double %72, i32 9, i32 0, i32 1, i32 0, i8* getelementptr inbounds ([5 x i8]* @fadd_namestr, i32 0, i32 0)), !llfi_injectfault !15
  %73 = load i64* %k, align 8, !llfi_index !990
  %fi58 = call i64 @injectFault0(i64 989, i64 %73, i32 27, i32 0, i32 1, i32 0, i8* getelementptr inbounds ([5 x i8]* @load_namestr, i32 0, i32 0)), !llfi_injectfault !15
  %74 = load i64* %i, align 8, !llfi_index !991
  %fi59 = call i64 @injectFault0(i64 990, i64 %74, i32 27, i32 0, i32 1, i32 0, i8* getelementptr inbounds ([5 x i8]* @load_namestr, i32 0, i32 0)), !llfi_injectfault !15
  %75 = add nsw i64 %fi58, %fi59, !llfi_index !992
  %fi60 = call i64 @injectFault0(i64 991, i64 %75, i32 8, i32 0, i32 1, i32 0, i8* getelementptr inbounds ([4 x i8]* @add_namestr, i32 0, i32 0)), !llfi_injectfault !15
  %76 = mul nsw i64 2, %fi60, !llfi_index !993
  %fi61 = call i64 @injectFault0(i64 992, i64 %76, i32 12, i32 0, i32 1, i32 0, i8* getelementptr inbounds ([4 x i8]* @mul_namestr, i32 0, i32 0)), !llfi_injectfault !15
  %77 = load double** %3, align 8, !llfi_index !994
  %fi62 = call double* @injectFault4(i64 993, double* %77, i32 27, i32 0, i32 1, i32 0, i8* getelementptr inbounds ([5 x i8]* @load_namestr, i32 0, i32 0)), !llfi_injectfault !15
  %78 = getelementptr double* %fi62, i64 %fi61, !llfi_index !995
  %fi63 = call double* @injectFault4(i64 994, double* %78, i32 29, i32 0, i32 1, i32 0, i8* getelementptr inbounds ([14 x i8]* @getelementptr_namestr, i32 0, i32 0)), !llfi_injectfault !15
  %79 = load double* %fi63, align 8, !llfi_index !996
  %fi64 = call double @injectFault7(i64 995, double %79, i32 27, i32 0, i32 1, i32 0, i8* getelementptr inbounds ([5 x i8]* @load_namestr, i32 0, i32 0)), !llfi_injectfault !15
  %80 = fadd double %fi57, %fi64, !llfi_index !997
  %fi65 = call double @injectFault7(i64 996, double %80, i32 9, i32 0, i32 1, i32 0, i8* getelementptr inbounds ([5 x i8]* @fadd_namestr, i32 0, i32 0)), !llfi_injectfault !15
  %81 = load i64* %k, align 8, !llfi_index !998
  %fi66 = call i64 @injectFault0(i64 997, i64 %81, i32 27, i32 0, i32 1, i32 0, i8* getelementptr inbounds ([5 x i8]* @load_namestr, i32 0, i32 0)), !llfi_injectfault !15
  %82 = load i64* %i, align 8, !llfi_index !999
  %fi67 = call i64 @injectFault0(i64 998, i64 %82, i32 27, i32 0, i32 1, i32 0, i8* getelementptr inbounds ([5 x i8]* @load_namestr, i32 0, i32 0)), !llfi_injectfault !15
  %83 = add nsw i64 %fi66, %fi67, !llfi_index !1000
  %fi68 = call i64 @injectFault0(i64 999, i64 %83, i32 8, i32 0, i32 1, i32 0, i8* getelementptr inbounds ([4 x i8]* @add_namestr, i32 0, i32 0)), !llfi_injectfault !15
  %84 = mul nsw i64 2, %fi68, !llfi_index !1001
  %fi69 = call i64 @injectFault0(i64 1000, i64 %84, i32 12, i32 0, i32 1, i32 0, i8* getelementptr inbounds ([4 x i8]* @mul_namestr, i32 0, i32 0)), !llfi_injectfault !15
  %85 = add nsw i64 %fi69, 1, !llfi_index !1002
  %fi70 = call i64 @injectFault0(i64 1001, i64 %85, i32 8, i32 0, i32 1, i32 0, i8* getelementptr inbounds ([4 x i8]* @add_namestr, i32 0, i32 0)), !llfi_injectfault !15
  %86 = load double** %3, align 8, !llfi_index !1003
  %fi71 = call double* @injectFault4(i64 1002, double* %86, i32 27, i32 0, i32 1, i32 0, i8* getelementptr inbounds ([5 x i8]* @load_namestr, i32 0, i32 0)), !llfi_injectfault !15
  %87 = getelementptr double* %fi71, i64 %fi70, !llfi_index !1004
  %fi72 = call double* @injectFault4(i64 1003, double* %87, i32 29, i32 0, i32 1, i32 0, i8* getelementptr inbounds ([14 x i8]* @getelementptr_namestr, i32 0, i32 0)), !llfi_injectfault !15
  %88 = load double* %fi72, align 8, !llfi_index !1005
  %fi73 = call double @injectFault7(i64 1004, double %88, i32 27, i32 0, i32 1, i32 0, i8* getelementptr inbounds ([5 x i8]* @load_namestr, i32 0, i32 0)), !llfi_injectfault !15
  %89 = fadd double %fi65, %fi73, !llfi_index !1006
  %fi74 = call double @injectFault7(i64 1005, double %89, i32 9, i32 0, i32 1, i32 0, i8* getelementptr inbounds ([5 x i8]* @fadd_namestr, i32 0, i32 0)), !llfi_injectfault !15
  %90 = load double* %tot, align 8, !llfi_index !1007
  %fi75 = call double @injectFault7(i64 1006, double %90, i32 27, i32 0, i32 1, i32 0, i8* getelementptr inbounds ([5 x i8]* @load_namestr, i32 0, i32 0)), !llfi_injectfault !15
  %91 = fadd double %fi75, %fi74, !llfi_index !1008
  %fi76 = call double @injectFault7(i64 1007, double %91, i32 9, i32 0, i32 1, i32 0, i8* getelementptr inbounds ([5 x i8]* @fadd_namestr, i32 0, i32 0)), !llfi_injectfault !15
  store double %fi76, double* %tot, align 8, !llfi_index !1009
  br label %92, !llfi_index !1010

; <label>:92                                      ; preds = %39
  %93 = load i64* %i, align 8, !llfi_index !1011
  %fi77 = call i64 @injectFault0(i64 1010, i64 %93, i32 27, i32 0, i32 1, i32 0, i8* getelementptr inbounds ([5 x i8]* @load_namestr, i32 0, i32 0)), !llfi_injectfault !15
  %94 = add nsw i64 %fi77, 1, !llfi_index !1012
  %fi78 = call i64 @injectFault0(i64 1011, i64 %94, i32 8, i32 0, i32 1, i32 0, i8* getelementptr inbounds ([4 x i8]* @add_namestr, i32 0, i32 0)), !llfi_injectfault !15
  store i64 %fi78, i64* %i, align 8, !llfi_index !1013
  br label %35, !llfi_index !1014

; <label>:95                                      ; preds = %35
  br label %96, !llfi_index !1015

; <label>:96                                      ; preds = %95
  %97 = load i64* %j, align 8, !llfi_index !1016
  %fi79 = call i64 @injectFault0(i64 1015, i64 %97, i32 27, i32 0, i32 1, i32 0, i8* getelementptr inbounds ([5 x i8]* @load_namestr, i32 0, i32 0)), !llfi_injectfault !15
  %98 = add nsw i64 %fi79, 1, !llfi_index !1017
  %fi80 = call i64 @injectFault0(i64 1016, i64 %98, i32 8, i32 0, i32 1, i32 0, i8* getelementptr inbounds ([4 x i8]* @add_namestr, i32 0, i32 0)), !llfi_injectfault !15
  store i64 %fi80, i64* %j, align 8, !llfi_index !1018
  br label %25, !llfi_index !1019

; <label>:99                                      ; preds = %25
  %100 = load double* %tot, align 8, !llfi_index !1020
  %fi81 = call double @injectFault7(i64 1019, double %100, i32 27, i32 0, i32 1, i32 0, i8* getelementptr inbounds ([5 x i8]* @load_namestr, i32 0, i32 0)), !llfi_injectfault !15
  ret double %fi81, !llfi_index !1021
}

; Function Attrs: uwtable
define void @_Z5FFT1DlllPdS_S_S_lPllllll(i64 %direction, i64 %M, i64 %N, double* %x, double* %scratch, double* %upriv, double* %umain2, i64 %MyNum, i64* %l_transtime, i64 %MyFirst, i64 %MyLast, i64 %pad_length, i64 %test_result, i64 %dostats) #0 {
  %1 = alloca i64, align 8, !llfi_index !1022
  %2 = alloca i64, align 8, !llfi_index !1023
  %3 = alloca i64, align 8, !llfi_index !1024
  %4 = alloca double*, align 8, !llfi_index !1025
  %5 = alloca double*, align 8, !llfi_index !1026
  %6 = alloca double*, align 8, !llfi_index !1027
  %7 = alloca double*, align 8, !llfi_index !1028
  %8 = alloca i64, align 8, !llfi_index !1029
  %9 = alloca i64*, align 8, !llfi_index !1030
  %10 = alloca i64, align 8, !llfi_index !1031
  %11 = alloca i64, align 8, !llfi_index !1032
  %12 = alloca i64, align 8, !llfi_index !1033
  %13 = alloca i64, align 8, !llfi_index !1034
  %14 = alloca i64, align 8, !llfi_index !1035
  %j = alloca i64, align 8, !llfi_index !1036
  %m1 = alloca i64, align 8, !llfi_index !1037
  %n1 = alloca i64, align 8, !llfi_index !1038
  %clocktime1 = alloca i64, align 8, !llfi_index !1039
  %clocktime2 = alloca i64, align 8, !llfi_index !1040
  store i64 %direction, i64* %1, align 8, !llfi_index !1041
  store i64 %M, i64* %2, align 8, !llfi_index !1042
  store i64 %N, i64* %3, align 8, !llfi_index !1043
  store double* %x, double** %4, align 8, !llfi_index !1044
  store double* %scratch, double** %5, align 8, !llfi_index !1045
  store double* %upriv, double** %6, align 8, !llfi_index !1046
  store double* %umain2, double** %7, align 8, !llfi_index !1047
  store i64 %MyNum, i64* %8, align 8, !llfi_index !1048
  store i64* %l_transtime, i64** %9, align 8, !llfi_index !1049
  store i64 %MyFirst, i64* %10, align 8, !llfi_index !1050
  store i64 %MyLast, i64* %11, align 8, !llfi_index !1051
  store i64 %pad_length, i64* %12, align 8, !llfi_index !1052
  store i64 %test_result, i64* %13, align 8, !llfi_index !1053
  store i64 %dostats, i64* %14, align 8, !llfi_index !1054
  %15 = load i64* %2, align 8, !llfi_index !1055
  %fi4 = call i64 @injectFault0(i64 1054, i64 %15, i32 27, i32 0, i32 1, i32 0, i8* getelementptr inbounds ([5 x i8]* @load_namestr, i32 0, i32 0)), !llfi_injectfault !15
  %16 = sdiv i64 %fi4, 2, !llfi_index !1056
  %fi5 = call i64 @injectFault0(i64 1055, i64 %16, i32 15, i32 0, i32 1, i32 0, i8* getelementptr inbounds ([5 x i8]* @sdiv_namestr, i32 0, i32 0)), !llfi_injectfault !15
  store i64 %fi5, i64* %m1, align 8, !llfi_index !1057
  %17 = load i64* %m1, align 8, !llfi_index !1058
  %fi7 = call i64 @injectFault0(i64 1057, i64 %17, i32 27, i32 0, i32 1, i32 0, i8* getelementptr inbounds ([5 x i8]* @load_namestr, i32 0, i32 0)), !llfi_injectfault !15
  %18 = trunc i64 %fi7 to i32, !llfi_index !1059
  %fi8 = call i32 @injectFault2(i64 1058, i32 %18, i32 33, i32 0, i32 1, i32 0, i8* getelementptr inbounds ([6 x i8]* @trunc_namestr, i32 0, i32 0)), !llfi_injectfault !15
  %19 = shl i32 1, %fi8, !llfi_index !1060
  %fi9 = call i32 @injectFault2(i64 1059, i32 %19, i32 20, i32 0, i32 1, i32 0, i8* getelementptr inbounds ([4 x i8]* @shl_namestr, i32 0, i32 0)), !llfi_injectfault !15
  %20 = sext i32 %fi9 to i64, !llfi_index !1061
  %fi10 = call i64 @injectFault0(i64 1060, i64 %20, i32 35, i32 0, i32 1, i32 0, i8* getelementptr inbounds ([5 x i8]* @sext_namestr, i32 0, i32 0)), !llfi_injectfault !15
  store i64 %fi10, i64* %n1, align 8, !llfi_index !1062
  %21 = load i64* %8, align 8, !llfi_index !1063
  %fi11 = call i64 @injectFault0(i64 1062, i64 %21, i32 27, i32 0, i32 1, i32 0, i8* getelementptr inbounds ([5 x i8]* @load_namestr, i32 0, i32 0)), !llfi_injectfault !15
  %22 = icmp eq i64 %fi11, 0, !llfi_index !1064
  %fi12 = call i1 @injectFault1(i64 1063, i1 %22, i32 46, i32 0, i32 1, i32 0, i8* getelementptr inbounds ([5 x i8]* @icmp_namestr, i32 0, i32 0)), !llfi_injectfault !15
  br i1 %fi12, label %26, label %23, !llfi_index !1065

; <label>:23                                      ; preds = %0
  %24 = load i64* %14, align 8, !llfi_index !1066
  %fi13 = call i64 @injectFault0(i64 1065, i64 %24, i32 27, i32 0, i32 1, i32 0, i8* getelementptr inbounds ([5 x i8]* @load_namestr, i32 0, i32 0)), !llfi_injectfault !15
  %25 = icmp ne i64 %fi13, 0, !llfi_index !1067
  %fi14 = call i1 @injectFault1(i64 1066, i1 %25, i32 46, i32 0, i32 1, i32 0, i8* getelementptr inbounds ([5 x i8]* @icmp_namestr, i32 0, i32 0)), !llfi_injectfault !15
  br i1 %fi14, label %26, label %27, !llfi_index !1068

; <label>:26                                      ; preds = %23, %0
  br label %27, !llfi_index !1069

; <label>:27                                      ; preds = %26, %23
  %28 = load i64* %n1, align 8, !llfi_index !1070
  %fi15 = call i64 @injectFault0(i64 1069, i64 %28, i32 27, i32 0, i32 1, i32 0, i8* getelementptr inbounds ([5 x i8]* @load_namestr, i32 0, i32 0)), !llfi_injectfault !15
  %29 = load double** %4, align 8, !llfi_index !1071
  %fi16 = call double* @injectFault4(i64 1070, double* %29, i32 27, i32 0, i32 1, i32 0, i8* getelementptr inbounds ([5 x i8]* @load_namestr, i32 0, i32 0)), !llfi_injectfault !15
  %30 = load double** %5, align 8, !llfi_index !1072
  %fi17 = call double* @injectFault4(i64 1071, double* %30, i32 27, i32 0, i32 1, i32 0, i8* getelementptr inbounds ([5 x i8]* @load_namestr, i32 0, i32 0)), !llfi_injectfault !15
  %31 = load i64* %8, align 8, !llfi_index !1073
  %fi18 = call i64 @injectFault0(i64 1072, i64 %31, i32 27, i32 0, i32 1, i32 0, i8* getelementptr inbounds ([5 x i8]* @load_namestr, i32 0, i32 0)), !llfi_injectfault !15
  %32 = load i64* %10, align 8, !llfi_index !1074
  %fi19 = call i64 @injectFault0(i64 1073, i64 %32, i32 27, i32 0, i32 1, i32 0, i8* getelementptr inbounds ([5 x i8]* @load_namestr, i32 0, i32 0)), !llfi_injectfault !15
  %33 = load i64* %11, align 8, !llfi_index !1075
  %fi6 = call i64 @injectFault0(i64 1074, i64 %33, i32 27, i32 0, i32 1, i32 0, i8* getelementptr inbounds ([5 x i8]* @load_namestr, i32 0, i32 0)), !llfi_injectfault !15
  %34 = load i64* %12, align 8, !llfi_index !1076
  %fi20 = call i64 @injectFault0(i64 1075, i64 %34, i32 27, i32 0, i32 1, i32 0, i8* getelementptr inbounds ([5 x i8]* @load_namestr, i32 0, i32 0)), !llfi_injectfault !15
  call void @_Z9TransposelPdS_llll(i64 %fi15, double* %fi16, double* %fi17, i64 %fi18, i64 %fi19, i64 %fi6, i64 %fi20), !llfi_index !1077
  %35 = load i64* %8, align 8, !llfi_index !1078
  %fi21 = call i64 @injectFault0(i64 1077, i64 %35, i32 27, i32 0, i32 1, i32 0, i8* getelementptr inbounds ([5 x i8]* @load_namestr, i32 0, i32 0)), !llfi_injectfault !15
  %36 = icmp eq i64 %fi21, 0, !llfi_index !1079
  %fi22 = call i1 @injectFault1(i64 1078, i1 %36, i32 46, i32 0, i32 1, i32 0, i8* getelementptr inbounds ([5 x i8]* @icmp_namestr, i32 0, i32 0)), !llfi_injectfault !15
  br i1 %fi22, label %40, label %37, !llfi_index !1080

; <label>:37                                      ; preds = %27
  %38 = load i64* %14, align 8, !llfi_index !1081
  %fi23 = call i64 @injectFault0(i64 1080, i64 %38, i32 27, i32 0, i32 1, i32 0, i8* getelementptr inbounds ([5 x i8]* @load_namestr, i32 0, i32 0)), !llfi_injectfault !15
  %39 = icmp ne i64 %fi23, 0, !llfi_index !1082
  %fi24 = call i1 @injectFault1(i64 1081, i1 %39, i32 46, i32 0, i32 1, i32 0, i8* getelementptr inbounds ([5 x i8]* @icmp_namestr, i32 0, i32 0)), !llfi_injectfault !15
  br i1 %fi24, label %40, label %47, !llfi_index !1083

; <label>:40                                      ; preds = %37, %27
  %41 = load i64* %clocktime2, align 8, !llfi_index !1084
  %fi25 = call i64 @injectFault0(i64 1083, i64 %41, i32 27, i32 0, i32 1, i32 0, i8* getelementptr inbounds ([5 x i8]* @load_namestr, i32 0, i32 0)), !llfi_injectfault !15
  %42 = load i64* %clocktime1, align 8, !llfi_index !1085
  %fi26 = call i64 @injectFault0(i64 1084, i64 %42, i32 27, i32 0, i32 1, i32 0, i8* getelementptr inbounds ([5 x i8]* @load_namestr, i32 0, i32 0)), !llfi_injectfault !15
  %43 = sub i64 %fi25, %fi26, !llfi_index !1086
  %fi27 = call i64 @injectFault0(i64 1085, i64 %43, i32 10, i32 0, i32 1, i32 0, i8* getelementptr inbounds ([4 x i8]* @sub_namestr, i32 0, i32 0)), !llfi_injectfault !15
  %44 = load i64** %9, align 8, !llfi_index !1087
  %fi28 = call i64* @injectFault8(i64 1086, i64* %44, i32 27, i32 0, i32 1, i32 0, i8* getelementptr inbounds ([5 x i8]* @load_namestr, i32 0, i32 0)), !llfi_injectfault !15
  %45 = load i64* %fi28, align 8, !llfi_index !1088
  %fi29 = call i64 @injectFault0(i64 1087, i64 %45, i32 27, i32 0, i32 1, i32 0, i8* getelementptr inbounds ([5 x i8]* @load_namestr, i32 0, i32 0)), !llfi_injectfault !15
  %46 = add i64 %fi29, %fi27, !llfi_index !1089
  %fi30 = call i64 @injectFault0(i64 1088, i64 %46, i32 8, i32 0, i32 1, i32 0, i8* getelementptr inbounds ([4 x i8]* @add_namestr, i32 0, i32 0)), !llfi_injectfault !15
  store i64 %fi30, i64* %fi28, align 8, !llfi_index !1090
  br label %47, !llfi_index !1091

; <label>:47                                      ; preds = %40, %37
  %48 = load i64* %10, align 8, !llfi_index !1092
  %fi31 = call i64 @injectFault0(i64 1091, i64 %48, i32 27, i32 0, i32 1, i32 0, i8* getelementptr inbounds ([5 x i8]* @load_namestr, i32 0, i32 0)), !llfi_injectfault !15
  store i64 %fi31, i64* %j, align 8, !llfi_index !1093
  br label %49, !llfi_index !1094

; <label>:49                                      ; preds = %79, %47
  %50 = load i64* %j, align 8, !llfi_index !1095
  %fi32 = call i64 @injectFault0(i64 1094, i64 %50, i32 27, i32 0, i32 1, i32 0, i8* getelementptr inbounds ([5 x i8]* @load_namestr, i32 0, i32 0)), !llfi_injectfault !15
  %51 = load i64* %11, align 8, !llfi_index !1096
  %fi33 = call i64 @injectFault0(i64 1095, i64 %51, i32 27, i32 0, i32 1, i32 0, i8* getelementptr inbounds ([5 x i8]* @load_namestr, i32 0, i32 0)), !llfi_injectfault !15
  %52 = icmp slt i64 %fi32, %fi33, !llfi_index !1097
  %fi34 = call i1 @injectFault1(i64 1096, i1 %52, i32 46, i32 0, i32 1, i32 0, i8* getelementptr inbounds ([5 x i8]* @icmp_namestr, i32 0, i32 0)), !llfi_injectfault !15
  br i1 %fi34, label %53, label %82, !llfi_index !1098

; <label>:53                                      ; preds = %49
  %54 = load i64* %1, align 8, !llfi_index !1099
  %fi35 = call i64 @injectFault0(i64 1098, i64 %54, i32 27, i32 0, i32 1, i32 0, i8* getelementptr inbounds ([5 x i8]* @load_namestr, i32 0, i32 0)), !llfi_injectfault !15
  %55 = load i64* %m1, align 8, !llfi_index !1100
  %fi36 = call i64 @injectFault0(i64 1099, i64 %55, i32 27, i32 0, i32 1, i32 0, i8* getelementptr inbounds ([5 x i8]* @load_namestr, i32 0, i32 0)), !llfi_injectfault !15
  %56 = load i64* %n1, align 8, !llfi_index !1101
  %fi37 = call i64 @injectFault0(i64 1100, i64 %56, i32 27, i32 0, i32 1, i32 0, i8* getelementptr inbounds ([5 x i8]* @load_namestr, i32 0, i32 0)), !llfi_injectfault !15
  %57 = load double** %6, align 8, !llfi_index !1102
  %fi38 = call double* @injectFault4(i64 1101, double* %57, i32 27, i32 0, i32 1, i32 0, i8* getelementptr inbounds ([5 x i8]* @load_namestr, i32 0, i32 0)), !llfi_injectfault !15
  %58 = load i64* %j, align 8, !llfi_index !1103
  %fi39 = call i64 @injectFault0(i64 1102, i64 %58, i32 27, i32 0, i32 1, i32 0, i8* getelementptr inbounds ([5 x i8]* @load_namestr, i32 0, i32 0)), !llfi_injectfault !15
  %59 = mul nsw i64 2, %fi39, !llfi_index !1104
  %fi40 = call i64 @injectFault0(i64 1103, i64 %59, i32 12, i32 0, i32 1, i32 0, i8* getelementptr inbounds ([4 x i8]* @mul_namestr, i32 0, i32 0)), !llfi_injectfault !15
  %60 = load i64* %n1, align 8, !llfi_index !1105
  %fi41 = call i64 @injectFault0(i64 1104, i64 %60, i32 27, i32 0, i32 1, i32 0, i8* getelementptr inbounds ([5 x i8]* @load_namestr, i32 0, i32 0)), !llfi_injectfault !15
  %61 = load i64* %12, align 8, !llfi_index !1106
  %fi42 = call i64 @injectFault0(i64 1105, i64 %61, i32 27, i32 0, i32 1, i32 0, i8* getelementptr inbounds ([5 x i8]* @load_namestr, i32 0, i32 0)), !llfi_injectfault !15
  %62 = add nsw i64 %fi41, %fi42, !llfi_index !1107
  %fi43 = call i64 @injectFault0(i64 1106, i64 %62, i32 8, i32 0, i32 1, i32 0, i8* getelementptr inbounds ([4 x i8]* @add_namestr, i32 0, i32 0)), !llfi_injectfault !15
  %63 = mul nsw i64 %fi40, %fi43, !llfi_index !1108
  %fi44 = call i64 @injectFault0(i64 1107, i64 %63, i32 12, i32 0, i32 1, i32 0, i8* getelementptr inbounds ([4 x i8]* @mul_namestr, i32 0, i32 0)), !llfi_injectfault !15
  %64 = load double** %5, align 8, !llfi_index !1109
  %fi45 = call double* @injectFault4(i64 1108, double* %64, i32 27, i32 0, i32 1, i32 0, i8* getelementptr inbounds ([5 x i8]* @load_namestr, i32 0, i32 0)), !llfi_injectfault !15
  %65 = getelementptr double* %fi45, i64 %fi44, !llfi_index !1110
  %fi3 = call double* @injectFault4(i64 1109, double* %65, i32 29, i32 0, i32 1, i32 0, i8* getelementptr inbounds ([14 x i8]* @getelementptr_namestr, i32 0, i32 0)), !llfi_injectfault !15
  call void @_Z9FFT1DOncelllPdS_(i64 %fi35, i64 %fi36, i64 %fi37, double* %fi38, double* %fi3), !llfi_index !1111
  %66 = load i64* %1, align 8, !llfi_index !1112
  %fi49 = call i64 @injectFault0(i64 1111, i64 %66, i32 27, i32 0, i32 1, i32 0, i8* getelementptr inbounds ([5 x i8]* @load_namestr, i32 0, i32 0)), !llfi_injectfault !15
  %67 = load i64* %n1, align 8, !llfi_index !1113
  %fi50 = call i64 @injectFault0(i64 1112, i64 %67, i32 27, i32 0, i32 1, i32 0, i8* getelementptr inbounds ([5 x i8]* @load_namestr, i32 0, i32 0)), !llfi_injectfault !15
  %68 = load i64* %j, align 8, !llfi_index !1114
  %fi51 = call i64 @injectFault0(i64 1113, i64 %68, i32 27, i32 0, i32 1, i32 0, i8* getelementptr inbounds ([5 x i8]* @load_namestr, i32 0, i32 0)), !llfi_injectfault !15
  %69 = load double** %7, align 8, !llfi_index !1115
  %fi52 = call double* @injectFault4(i64 1114, double* %69, i32 27, i32 0, i32 1, i32 0, i8* getelementptr inbounds ([5 x i8]* @load_namestr, i32 0, i32 0)), !llfi_injectfault !15
  %70 = load i64* %j, align 8, !llfi_index !1116
  %fi53 = call i64 @injectFault0(i64 1115, i64 %70, i32 27, i32 0, i32 1, i32 0, i8* getelementptr inbounds ([5 x i8]* @load_namestr, i32 0, i32 0)), !llfi_injectfault !15
  %71 = mul nsw i64 2, %fi53, !llfi_index !1117
  %fi54 = call i64 @injectFault0(i64 1116, i64 %71, i32 12, i32 0, i32 1, i32 0, i8* getelementptr inbounds ([4 x i8]* @mul_namestr, i32 0, i32 0)), !llfi_injectfault !15
  %72 = load i64* %n1, align 8, !llfi_index !1118
  %fi55 = call i64 @injectFault0(i64 1117, i64 %72, i32 27, i32 0, i32 1, i32 0, i8* getelementptr inbounds ([5 x i8]* @load_namestr, i32 0, i32 0)), !llfi_injectfault !15
  %73 = load i64* %12, align 8, !llfi_index !1119
  %fi56 = call i64 @injectFault0(i64 1118, i64 %73, i32 27, i32 0, i32 1, i32 0, i8* getelementptr inbounds ([5 x i8]* @load_namestr, i32 0, i32 0)), !llfi_injectfault !15
  %74 = add nsw i64 %fi55, %fi56, !llfi_index !1120
  %fi57 = call i64 @injectFault0(i64 1119, i64 %74, i32 8, i32 0, i32 1, i32 0, i8* getelementptr inbounds ([4 x i8]* @add_namestr, i32 0, i32 0)), !llfi_injectfault !15
  %75 = mul nsw i64 %fi54, %fi57, !llfi_index !1121
  %fi58 = call i64 @injectFault0(i64 1120, i64 %75, i32 12, i32 0, i32 1, i32 0, i8* getelementptr inbounds ([4 x i8]* @mul_namestr, i32 0, i32 0)), !llfi_injectfault !15
  %76 = load double** %5, align 8, !llfi_index !1122
  %fi59 = call double* @injectFault4(i64 1121, double* %76, i32 27, i32 0, i32 1, i32 0, i8* getelementptr inbounds ([5 x i8]* @load_namestr, i32 0, i32 0)), !llfi_injectfault !15
  %77 = getelementptr double* %fi59, i64 %fi58, !llfi_index !1123
  %fi60 = call double* @injectFault4(i64 1122, double* %77, i32 29, i32 0, i32 1, i32 0, i8* getelementptr inbounds ([14 x i8]* @getelementptr_namestr, i32 0, i32 0)), !llfi_injectfault !15
  %78 = load i64* %12, align 8, !llfi_index !1124
  %fi61 = call i64 @injectFault0(i64 1123, i64 %78, i32 27, i32 0, i32 1, i32 0, i8* getelementptr inbounds ([5 x i8]* @load_namestr, i32 0, i32 0)), !llfi_injectfault !15
  call void @_Z13TwiddleOneCollllPdS_l(i64 %fi49, i64 %fi50, i64 %fi51, double* %fi52, double* %fi60, i64 %fi61), !llfi_index !1125
  br label %79, !llfi_index !1126

; <label>:79                                      ; preds = %53
  %80 = load i64* %j, align 8, !llfi_index !1127
  %fi = call i64 @injectFault0(i64 1126, i64 %80, i32 27, i32 0, i32 1, i32 0, i8* getelementptr inbounds ([5 x i8]* @load_namestr, i32 0, i32 0)), !llfi_injectfault !15
  %81 = add nsw i64 %fi, 1, !llfi_index !1128
  %fi1 = call i64 @injectFault0(i64 1127, i64 %81, i32 8, i32 0, i32 1, i32 0, i8* getelementptr inbounds ([4 x i8]* @add_namestr, i32 0, i32 0)), !llfi_injectfault !15
  store i64 %fi1, i64* %j, align 8, !llfi_index !1129
  br label %49, !llfi_index !1130

; <label>:82                                      ; preds = %49
  %83 = load i64* %8, align 8, !llfi_index !1131
  %fi2 = call i64 @injectFault0(i64 1130, i64 %83, i32 27, i32 0, i32 1, i32 0, i8* getelementptr inbounds ([5 x i8]* @load_namestr, i32 0, i32 0)), !llfi_injectfault !15
  %84 = icmp eq i64 %fi2, 0, !llfi_index !1132
  %fi62 = call i1 @injectFault1(i64 1131, i1 %84, i32 46, i32 0, i32 1, i32 0, i8* getelementptr inbounds ([5 x i8]* @icmp_namestr, i32 0, i32 0)), !llfi_injectfault !15
  br i1 %fi62, label %88, label %85, !llfi_index !1133

; <label>:85                                      ; preds = %82
  %86 = load i64* %14, align 8, !llfi_index !1134
  %fi63 = call i64 @injectFault0(i64 1133, i64 %86, i32 27, i32 0, i32 1, i32 0, i8* getelementptr inbounds ([5 x i8]* @load_namestr, i32 0, i32 0)), !llfi_injectfault !15
  %87 = icmp ne i64 %fi63, 0, !llfi_index !1135
  %fi64 = call i1 @injectFault1(i64 1134, i1 %87, i32 46, i32 0, i32 1, i32 0, i8* getelementptr inbounds ([5 x i8]* @icmp_namestr, i32 0, i32 0)), !llfi_injectfault !15
  br i1 %fi64, label %88, label %89, !llfi_index !1136

; <label>:88                                      ; preds = %85, %82
  br label %89, !llfi_index !1137

; <label>:89                                      ; preds = %88, %85
  %90 = load i64* %n1, align 8, !llfi_index !1138
  %fi65 = call i64 @injectFault0(i64 1137, i64 %90, i32 27, i32 0, i32 1, i32 0, i8* getelementptr inbounds ([5 x i8]* @load_namestr, i32 0, i32 0)), !llfi_injectfault !15
  %91 = load double** %5, align 8, !llfi_index !1139
  %fi66 = call double* @injectFault4(i64 1138, double* %91, i32 27, i32 0, i32 1, i32 0, i8* getelementptr inbounds ([5 x i8]* @load_namestr, i32 0, i32 0)), !llfi_injectfault !15
  %92 = load double** %4, align 8, !llfi_index !1140
  %fi67 = call double* @injectFault4(i64 1139, double* %92, i32 27, i32 0, i32 1, i32 0, i8* getelementptr inbounds ([5 x i8]* @load_namestr, i32 0, i32 0)), !llfi_injectfault !15
  %93 = load i64* %8, align 8, !llfi_index !1141
  %fi68 = call i64 @injectFault0(i64 1140, i64 %93, i32 27, i32 0, i32 1, i32 0, i8* getelementptr inbounds ([5 x i8]* @load_namestr, i32 0, i32 0)), !llfi_injectfault !15
  %94 = load i64* %10, align 8, !llfi_index !1142
  %fi69 = call i64 @injectFault0(i64 1141, i64 %94, i32 27, i32 0, i32 1, i32 0, i8* getelementptr inbounds ([5 x i8]* @load_namestr, i32 0, i32 0)), !llfi_injectfault !15
  %95 = load i64* %11, align 8, !llfi_index !1143
  %fi70 = call i64 @injectFault0(i64 1142, i64 %95, i32 27, i32 0, i32 1, i32 0, i8* getelementptr inbounds ([5 x i8]* @load_namestr, i32 0, i32 0)), !llfi_injectfault !15
  %96 = load i64* %12, align 8, !llfi_index !1144
  %fi71 = call i64 @injectFault0(i64 1143, i64 %96, i32 27, i32 0, i32 1, i32 0, i8* getelementptr inbounds ([5 x i8]* @load_namestr, i32 0, i32 0)), !llfi_injectfault !15
  call void @_Z9TransposelPdS_llll(i64 %fi65, double* %fi66, double* %fi67, i64 %fi68, i64 %fi69, i64 %fi70, i64 %fi71), !llfi_index !1145
  %97 = load i64* %8, align 8, !llfi_index !1146
  %fi72 = call i64 @injectFault0(i64 1145, i64 %97, i32 27, i32 0, i32 1, i32 0, i8* getelementptr inbounds ([5 x i8]* @load_namestr, i32 0, i32 0)), !llfi_injectfault !15
  %98 = icmp eq i64 %fi72, 0, !llfi_index !1147
  %fi73 = call i1 @injectFault1(i64 1146, i1 %98, i32 46, i32 0, i32 1, i32 0, i8* getelementptr inbounds ([5 x i8]* @icmp_namestr, i32 0, i32 0)), !llfi_injectfault !15
  br i1 %fi73, label %102, label %99, !llfi_index !1148

; <label>:99                                      ; preds = %89
  %100 = load i64* %14, align 8, !llfi_index !1149
  %fi74 = call i64 @injectFault0(i64 1148, i64 %100, i32 27, i32 0, i32 1, i32 0, i8* getelementptr inbounds ([5 x i8]* @load_namestr, i32 0, i32 0)), !llfi_injectfault !15
  %101 = icmp ne i64 %fi74, 0, !llfi_index !1150
  %fi75 = call i1 @injectFault1(i64 1149, i1 %101, i32 46, i32 0, i32 1, i32 0, i8* getelementptr inbounds ([5 x i8]* @icmp_namestr, i32 0, i32 0)), !llfi_injectfault !15
  br i1 %fi75, label %102, label %109, !llfi_index !1151

; <label>:102                                     ; preds = %99, %89
  %103 = load i64* %clocktime2, align 8, !llfi_index !1152
  %fi76 = call i64 @injectFault0(i64 1151, i64 %103, i32 27, i32 0, i32 1, i32 0, i8* getelementptr inbounds ([5 x i8]* @load_namestr, i32 0, i32 0)), !llfi_injectfault !15
  %104 = load i64* %clocktime1, align 8, !llfi_index !1153
  %fi77 = call i64 @injectFault0(i64 1152, i64 %104, i32 27, i32 0, i32 1, i32 0, i8* getelementptr inbounds ([5 x i8]* @load_namestr, i32 0, i32 0)), !llfi_injectfault !15
  %105 = sub i64 %fi76, %fi77, !llfi_index !1154
  %fi78 = call i64 @injectFault0(i64 1153, i64 %105, i32 10, i32 0, i32 1, i32 0, i8* getelementptr inbounds ([4 x i8]* @sub_namestr, i32 0, i32 0)), !llfi_injectfault !15
  %106 = load i64** %9, align 8, !llfi_index !1155
  %fi79 = call i64* @injectFault8(i64 1154, i64* %106, i32 27, i32 0, i32 1, i32 0, i8* getelementptr inbounds ([5 x i8]* @load_namestr, i32 0, i32 0)), !llfi_injectfault !15
  %107 = load i64* %fi79, align 8, !llfi_index !1156
  %fi80 = call i64 @injectFault0(i64 1155, i64 %107, i32 27, i32 0, i32 1, i32 0, i8* getelementptr inbounds ([5 x i8]* @load_namestr, i32 0, i32 0)), !llfi_injectfault !15
  %108 = add i64 %fi80, %fi78, !llfi_index !1157
  %fi81 = call i64 @injectFault0(i64 1156, i64 %108, i32 8, i32 0, i32 1, i32 0, i8* getelementptr inbounds ([4 x i8]* @add_namestr, i32 0, i32 0)), !llfi_injectfault !15
  store i64 %fi81, i64* %fi79, align 8, !llfi_index !1158
  br label %109, !llfi_index !1159

; <label>:109                                     ; preds = %102, %99
  %110 = load i64* %10, align 8, !llfi_index !1160
  %fi82 = call i64 @injectFault0(i64 1159, i64 %110, i32 27, i32 0, i32 1, i32 0, i8* getelementptr inbounds ([5 x i8]* @load_namestr, i32 0, i32 0)), !llfi_injectfault !15
  store i64 %fi82, i64* %j, align 8, !llfi_index !1161
  br label %111, !llfi_index !1162

; <label>:111                                     ; preds = %142, %109
  %112 = load i64* %j, align 8, !llfi_index !1163
  %fi83 = call i64 @injectFault0(i64 1162, i64 %112, i32 27, i32 0, i32 1, i32 0, i8* getelementptr inbounds ([5 x i8]* @load_namestr, i32 0, i32 0)), !llfi_injectfault !15
  %113 = load i64* %11, align 8, !llfi_index !1164
  %fi84 = call i64 @injectFault0(i64 1163, i64 %113, i32 27, i32 0, i32 1, i32 0, i8* getelementptr inbounds ([5 x i8]* @load_namestr, i32 0, i32 0)), !llfi_injectfault !15
  %114 = icmp slt i64 %fi83, %fi84, !llfi_index !1165
  %fi85 = call i1 @injectFault1(i64 1164, i1 %114, i32 46, i32 0, i32 1, i32 0, i8* getelementptr inbounds ([5 x i8]* @icmp_namestr, i32 0, i32 0)), !llfi_injectfault !15
  br i1 %fi85, label %115, label %145, !llfi_index !1166

; <label>:115                                     ; preds = %111
  %116 = load i64* %1, align 8, !llfi_index !1167
  %fi86 = call i64 @injectFault0(i64 1166, i64 %116, i32 27, i32 0, i32 1, i32 0, i8* getelementptr inbounds ([5 x i8]* @load_namestr, i32 0, i32 0)), !llfi_injectfault !15
  %117 = load i64* %m1, align 8, !llfi_index !1168
  %fi87 = call i64 @injectFault0(i64 1167, i64 %117, i32 27, i32 0, i32 1, i32 0, i8* getelementptr inbounds ([5 x i8]* @load_namestr, i32 0, i32 0)), !llfi_injectfault !15
  %118 = load i64* %n1, align 8, !llfi_index !1169
  %fi88 = call i64 @injectFault0(i64 1168, i64 %118, i32 27, i32 0, i32 1, i32 0, i8* getelementptr inbounds ([5 x i8]* @load_namestr, i32 0, i32 0)), !llfi_injectfault !15
  %119 = load double** %6, align 8, !llfi_index !1170
  %fi89 = call double* @injectFault4(i64 1169, double* %119, i32 27, i32 0, i32 1, i32 0, i8* getelementptr inbounds ([5 x i8]* @load_namestr, i32 0, i32 0)), !llfi_injectfault !15
  %120 = load i64* %j, align 8, !llfi_index !1171
  %fi90 = call i64 @injectFault0(i64 1170, i64 %120, i32 27, i32 0, i32 1, i32 0, i8* getelementptr inbounds ([5 x i8]* @load_namestr, i32 0, i32 0)), !llfi_injectfault !15
  %121 = mul nsw i64 2, %fi90, !llfi_index !1172
  %fi91 = call i64 @injectFault0(i64 1171, i64 %121, i32 12, i32 0, i32 1, i32 0, i8* getelementptr inbounds ([4 x i8]* @mul_namestr, i32 0, i32 0)), !llfi_injectfault !15
  %122 = load i64* %n1, align 8, !llfi_index !1173
  %fi92 = call i64 @injectFault0(i64 1172, i64 %122, i32 27, i32 0, i32 1, i32 0, i8* getelementptr inbounds ([5 x i8]* @load_namestr, i32 0, i32 0)), !llfi_injectfault !15
  %123 = load i64* %12, align 8, !llfi_index !1174
  %fi93 = call i64 @injectFault0(i64 1173, i64 %123, i32 27, i32 0, i32 1, i32 0, i8* getelementptr inbounds ([5 x i8]* @load_namestr, i32 0, i32 0)), !llfi_injectfault !15
  %124 = add nsw i64 %fi92, %fi93, !llfi_index !1175
  %fi94 = call i64 @injectFault0(i64 1174, i64 %124, i32 8, i32 0, i32 1, i32 0, i8* getelementptr inbounds ([4 x i8]* @add_namestr, i32 0, i32 0)), !llfi_injectfault !15
  %125 = mul nsw i64 %fi91, %fi94, !llfi_index !1176
  %fi95 = call i64 @injectFault0(i64 1175, i64 %125, i32 12, i32 0, i32 1, i32 0, i8* getelementptr inbounds ([4 x i8]* @mul_namestr, i32 0, i32 0)), !llfi_injectfault !15
  %126 = load double** %4, align 8, !llfi_index !1177
  %fi96 = call double* @injectFault4(i64 1176, double* %126, i32 27, i32 0, i32 1, i32 0, i8* getelementptr inbounds ([5 x i8]* @load_namestr, i32 0, i32 0)), !llfi_injectfault !15
  %127 = getelementptr double* %fi96, i64 %fi95, !llfi_index !1178
  %fi97 = call double* @injectFault4(i64 1177, double* %127, i32 29, i32 0, i32 1, i32 0, i8* getelementptr inbounds ([14 x i8]* @getelementptr_namestr, i32 0, i32 0)), !llfi_injectfault !15
  call void @_Z9FFT1DOncelllPdS_(i64 %fi86, i64 %fi87, i64 %fi88, double* %fi89, double* %fi97), !llfi_index !1179
  %128 = load i64* %1, align 8, !llfi_index !1180
  %fi98 = call i64 @injectFault0(i64 1179, i64 %128, i32 27, i32 0, i32 1, i32 0, i8* getelementptr inbounds ([5 x i8]* @load_namestr, i32 0, i32 0)), !llfi_injectfault !15
  %129 = icmp eq i64 %fi98, -1, !llfi_index !1181
  %fi46 = call i1 @injectFault1(i64 1180, i1 %129, i32 46, i32 0, i32 1, i32 0, i8* getelementptr inbounds ([5 x i8]* @icmp_namestr, i32 0, i32 0)), !llfi_injectfault !15
  br i1 %fi46, label %130, label %141, !llfi_index !1182

; <label>:130                                     ; preds = %115
  %131 = load i64* %n1, align 8, !llfi_index !1183
  %fi47 = call i64 @injectFault0(i64 1182, i64 %131, i32 27, i32 0, i32 1, i32 0, i8* getelementptr inbounds ([5 x i8]* @load_namestr, i32 0, i32 0)), !llfi_injectfault !15
  %132 = load i64* %3, align 8, !llfi_index !1184
  %fi48 = call i64 @injectFault0(i64 1183, i64 %132, i32 27, i32 0, i32 1, i32 0, i8* getelementptr inbounds ([5 x i8]* @load_namestr, i32 0, i32 0)), !llfi_injectfault !15
  %133 = load i64* %j, align 8, !llfi_index !1185
  %fi99 = call i64 @injectFault0(i64 1184, i64 %133, i32 27, i32 0, i32 1, i32 0, i8* getelementptr inbounds ([5 x i8]* @load_namestr, i32 0, i32 0)), !llfi_injectfault !15
  %134 = mul nsw i64 2, %fi99, !llfi_index !1186
  %fi100 = call i64 @injectFault0(i64 1185, i64 %134, i32 12, i32 0, i32 1, i32 0, i8* getelementptr inbounds ([4 x i8]* @mul_namestr, i32 0, i32 0)), !llfi_injectfault !15
  %135 = load i64* %n1, align 8, !llfi_index !1187
  %fi101 = call i64 @injectFault0(i64 1186, i64 %135, i32 27, i32 0, i32 1, i32 0, i8* getelementptr inbounds ([5 x i8]* @load_namestr, i32 0, i32 0)), !llfi_injectfault !15
  %136 = load i64* %12, align 8, !llfi_index !1188
  %fi102 = call i64 @injectFault0(i64 1187, i64 %136, i32 27, i32 0, i32 1, i32 0, i8* getelementptr inbounds ([5 x i8]* @load_namestr, i32 0, i32 0)), !llfi_injectfault !15
  %137 = add nsw i64 %fi101, %fi102, !llfi_index !1189
  %fi103 = call i64 @injectFault0(i64 1188, i64 %137, i32 8, i32 0, i32 1, i32 0, i8* getelementptr inbounds ([4 x i8]* @add_namestr, i32 0, i32 0)), !llfi_injectfault !15
  %138 = mul nsw i64 %fi100, %fi103, !llfi_index !1190
  %fi104 = call i64 @injectFault0(i64 1189, i64 %138, i32 12, i32 0, i32 1, i32 0, i8* getelementptr inbounds ([4 x i8]* @mul_namestr, i32 0, i32 0)), !llfi_injectfault !15
  %139 = load double** %4, align 8, !llfi_index !1191
  %fi105 = call double* @injectFault4(i64 1190, double* %139, i32 27, i32 0, i32 1, i32 0, i8* getelementptr inbounds ([5 x i8]* @load_namestr, i32 0, i32 0)), !llfi_injectfault !15
  %140 = getelementptr double* %fi105, i64 %fi104, !llfi_index !1192
  %fi106 = call double* @injectFault4(i64 1191, double* %140, i32 29, i32 0, i32 1, i32 0, i8* getelementptr inbounds ([14 x i8]* @getelementptr_namestr, i32 0, i32 0)), !llfi_injectfault !15
  call void @_Z5ScalellPd(i64 %fi47, i64 %fi48, double* %fi106), !llfi_index !1193
  br label %141, !llfi_index !1194

; <label>:141                                     ; preds = %130, %115
  br label %142, !llfi_index !1195

; <label>:142                                     ; preds = %141
  %143 = load i64* %j, align 8, !llfi_index !1196
  %fi107 = call i64 @injectFault0(i64 1195, i64 %143, i32 27, i32 0, i32 1, i32 0, i8* getelementptr inbounds ([5 x i8]* @load_namestr, i32 0, i32 0)), !llfi_injectfault !15
  %144 = add nsw i64 %fi107, 1, !llfi_index !1197
  %fi108 = call i64 @injectFault0(i64 1196, i64 %144, i32 8, i32 0, i32 1, i32 0, i8* getelementptr inbounds ([4 x i8]* @add_namestr, i32 0, i32 0)), !llfi_injectfault !15
  store i64 %fi108, i64* %j, align 8, !llfi_index !1198
  br label %111, !llfi_index !1199

; <label>:145                                     ; preds = %111
  %146 = load i64* %8, align 8, !llfi_index !1200
  %fi109 = call i64 @injectFault0(i64 1199, i64 %146, i32 27, i32 0, i32 1, i32 0, i8* getelementptr inbounds ([5 x i8]* @load_namestr, i32 0, i32 0)), !llfi_injectfault !15
  %147 = icmp eq i64 %fi109, 0, !llfi_index !1201
  %fi110 = call i1 @injectFault1(i64 1200, i1 %147, i32 46, i32 0, i32 1, i32 0, i8* getelementptr inbounds ([5 x i8]* @icmp_namestr, i32 0, i32 0)), !llfi_injectfault !15
  br i1 %fi110, label %151, label %148, !llfi_index !1202

; <label>:148                                     ; preds = %145
  %149 = load i64* %14, align 8, !llfi_index !1203
  %fi111 = call i64 @injectFault0(i64 1202, i64 %149, i32 27, i32 0, i32 1, i32 0, i8* getelementptr inbounds ([5 x i8]* @load_namestr, i32 0, i32 0)), !llfi_injectfault !15
  %150 = icmp ne i64 %fi111, 0, !llfi_index !1204
  %fi112 = call i1 @injectFault1(i64 1203, i1 %150, i32 46, i32 0, i32 1, i32 0, i8* getelementptr inbounds ([5 x i8]* @icmp_namestr, i32 0, i32 0)), !llfi_injectfault !15
  br i1 %fi112, label %151, label %152, !llfi_index !1205

; <label>:151                                     ; preds = %148, %145
  br label %152, !llfi_index !1206

; <label>:152                                     ; preds = %151, %148
  %153 = load i64* %n1, align 8, !llfi_index !1207
  %fi113 = call i64 @injectFault0(i64 1206, i64 %153, i32 27, i32 0, i32 1, i32 0, i8* getelementptr inbounds ([5 x i8]* @load_namestr, i32 0, i32 0)), !llfi_injectfault !15
  %154 = load double** %4, align 8, !llfi_index !1208
  %fi114 = call double* @injectFault4(i64 1207, double* %154, i32 27, i32 0, i32 1, i32 0, i8* getelementptr inbounds ([5 x i8]* @load_namestr, i32 0, i32 0)), !llfi_injectfault !15
  %155 = load double** %5, align 8, !llfi_index !1209
  %fi115 = call double* @injectFault4(i64 1208, double* %155, i32 27, i32 0, i32 1, i32 0, i8* getelementptr inbounds ([5 x i8]* @load_namestr, i32 0, i32 0)), !llfi_injectfault !15
  %156 = load i64* %8, align 8, !llfi_index !1210
  %fi116 = call i64 @injectFault0(i64 1209, i64 %156, i32 27, i32 0, i32 1, i32 0, i8* getelementptr inbounds ([5 x i8]* @load_namestr, i32 0, i32 0)), !llfi_injectfault !15
  %157 = load i64* %10, align 8, !llfi_index !1211
  %fi117 = call i64 @injectFault0(i64 1210, i64 %157, i32 27, i32 0, i32 1, i32 0, i8* getelementptr inbounds ([5 x i8]* @load_namestr, i32 0, i32 0)), !llfi_injectfault !15
  %158 = load i64* %11, align 8, !llfi_index !1212
  %fi118 = call i64 @injectFault0(i64 1211, i64 %158, i32 27, i32 0, i32 1, i32 0, i8* getelementptr inbounds ([5 x i8]* @load_namestr, i32 0, i32 0)), !llfi_injectfault !15
  %159 = load i64* %12, align 8, !llfi_index !1213
  %fi119 = call i64 @injectFault0(i64 1212, i64 %159, i32 27, i32 0, i32 1, i32 0, i8* getelementptr inbounds ([5 x i8]* @load_namestr, i32 0, i32 0)), !llfi_injectfault !15
  call void @_Z9TransposelPdS_llll(i64 %fi113, double* %fi114, double* %fi115, i64 %fi116, i64 %fi117, i64 %fi118, i64 %fi119), !llfi_index !1214
  %160 = load i64* %8, align 8, !llfi_index !1215
  %fi120 = call i64 @injectFault0(i64 1214, i64 %160, i32 27, i32 0, i32 1, i32 0, i8* getelementptr inbounds ([5 x i8]* @load_namestr, i32 0, i32 0)), !llfi_injectfault !15
  %161 = icmp eq i64 %fi120, 0, !llfi_index !1216
  %fi121 = call i1 @injectFault1(i64 1215, i1 %161, i32 46, i32 0, i32 1, i32 0, i8* getelementptr inbounds ([5 x i8]* @icmp_namestr, i32 0, i32 0)), !llfi_injectfault !15
  br i1 %fi121, label %165, label %162, !llfi_index !1217

; <label>:162                                     ; preds = %152
  %163 = load i64* %14, align 8, !llfi_index !1218
  %fi122 = call i64 @injectFault0(i64 1217, i64 %163, i32 27, i32 0, i32 1, i32 0, i8* getelementptr inbounds ([5 x i8]* @load_namestr, i32 0, i32 0)), !llfi_injectfault !15
  %164 = icmp ne i64 %fi122, 0, !llfi_index !1219
  %fi123 = call i1 @injectFault1(i64 1218, i1 %164, i32 46, i32 0, i32 1, i32 0, i8* getelementptr inbounds ([5 x i8]* @icmp_namestr, i32 0, i32 0)), !llfi_injectfault !15
  br i1 %fi123, label %165, label %172, !llfi_index !1220

; <label>:165                                     ; preds = %162, %152
  %166 = load i64* %clocktime2, align 8, !llfi_index !1221
  %fi124 = call i64 @injectFault0(i64 1220, i64 %166, i32 27, i32 0, i32 1, i32 0, i8* getelementptr inbounds ([5 x i8]* @load_namestr, i32 0, i32 0)), !llfi_injectfault !15
  %167 = load i64* %clocktime1, align 8, !llfi_index !1222
  %fi125 = call i64 @injectFault0(i64 1221, i64 %167, i32 27, i32 0, i32 1, i32 0, i8* getelementptr inbounds ([5 x i8]* @load_namestr, i32 0, i32 0)), !llfi_injectfault !15
  %168 = sub i64 %fi124, %fi125, !llfi_index !1223
  %fi126 = call i64 @injectFault0(i64 1222, i64 %168, i32 10, i32 0, i32 1, i32 0, i8* getelementptr inbounds ([4 x i8]* @sub_namestr, i32 0, i32 0)), !llfi_injectfault !15
  %169 = load i64** %9, align 8, !llfi_index !1224
  %fi127 = call i64* @injectFault8(i64 1223, i64* %169, i32 27, i32 0, i32 1, i32 0, i8* getelementptr inbounds ([5 x i8]* @load_namestr, i32 0, i32 0)), !llfi_injectfault !15
  %170 = load i64* %fi127, align 8, !llfi_index !1225
  %fi128 = call i64 @injectFault0(i64 1224, i64 %170, i32 27, i32 0, i32 1, i32 0, i8* getelementptr inbounds ([5 x i8]* @load_namestr, i32 0, i32 0)), !llfi_injectfault !15
  %171 = add i64 %fi128, %fi126, !llfi_index !1226
  %fi129 = call i64 @injectFault0(i64 1225, i64 %171, i32 8, i32 0, i32 1, i32 0, i8* getelementptr inbounds ([4 x i8]* @add_namestr, i32 0, i32 0)), !llfi_injectfault !15
  store i64 %fi129, i64* %fi127, align 8, !llfi_index !1227
  br label %172, !llfi_index !1228

; <label>:172                                     ; preds = %165, %162
  %173 = load i64* %13, align 8, !llfi_index !1229
  %fi130 = call i64 @injectFault0(i64 1228, i64 %173, i32 27, i32 0, i32 1, i32 0, i8* getelementptr inbounds ([5 x i8]* @load_namestr, i32 0, i32 0)), !llfi_injectfault !15
  %174 = icmp ne i64 %fi130, 0, !llfi_index !1230
  %fi131 = call i1 @injectFault1(i64 1229, i1 %174, i32 46, i32 0, i32 1, i32 0, i8* getelementptr inbounds ([5 x i8]* @icmp_namestr, i32 0, i32 0)), !llfi_injectfault !15
  br i1 %fi131, label %178, label %175, !llfi_index !1231

; <label>:175                                     ; preds = %172
  %176 = load i64* @doprint, align 8, !llfi_index !1232
  %fi132 = call i64 @injectFault0(i64 1231, i64 %176, i32 27, i32 0, i32 1, i32 0, i8* getelementptr inbounds ([5 x i8]* @load_namestr, i32 0, i32 0)), !llfi_injectfault !15
  %177 = icmp ne i64 %fi132, 0, !llfi_index !1233
  %fi133 = call i1 @injectFault1(i64 1232, i1 %177, i32 46, i32 0, i32 1, i32 0, i8* getelementptr inbounds ([5 x i8]* @icmp_namestr, i32 0, i32 0)), !llfi_injectfault !15
  br i1 %fi133, label %178, label %206, !llfi_index !1234

; <label>:178                                     ; preds = %175, %172
  %179 = load i64* %10, align 8, !llfi_index !1235
  %fi134 = call i64 @injectFault0(i64 1234, i64 %179, i32 27, i32 0, i32 1, i32 0, i8* getelementptr inbounds ([5 x i8]* @load_namestr, i32 0, i32 0)), !llfi_injectfault !15
  store i64 %fi134, i64* %j, align 8, !llfi_index !1236
  br label %180, !llfi_index !1237

; <label>:180                                     ; preds = %202, %178
  %181 = load i64* %j, align 8, !llfi_index !1238
  %fi135 = call i64 @injectFault0(i64 1237, i64 %181, i32 27, i32 0, i32 1, i32 0, i8* getelementptr inbounds ([5 x i8]* @load_namestr, i32 0, i32 0)), !llfi_injectfault !15
  %182 = load i64* %11, align 8, !llfi_index !1239
  %fi136 = call i64 @injectFault0(i64 1238, i64 %182, i32 27, i32 0, i32 1, i32 0, i8* getelementptr inbounds ([5 x i8]* @load_namestr, i32 0, i32 0)), !llfi_injectfault !15
  %183 = icmp slt i64 %fi135, %fi136, !llfi_index !1240
  %fi137 = call i1 @injectFault1(i64 1239, i1 %183, i32 46, i32 0, i32 1, i32 0, i8* getelementptr inbounds ([5 x i8]* @icmp_namestr, i32 0, i32 0)), !llfi_injectfault !15
  br i1 %fi137, label %184, label %205, !llfi_index !1241

; <label>:184                                     ; preds = %180
  %185 = load i64* %n1, align 8, !llfi_index !1242
  %fi138 = call i64 @injectFault0(i64 1241, i64 %185, i32 27, i32 0, i32 1, i32 0, i8* getelementptr inbounds ([5 x i8]* @load_namestr, i32 0, i32 0)), !llfi_injectfault !15
  %186 = load i64* %j, align 8, !llfi_index !1243
  %fi139 = call i64 @injectFault0(i64 1242, i64 %186, i32 27, i32 0, i32 1, i32 0, i8* getelementptr inbounds ([5 x i8]* @load_namestr, i32 0, i32 0)), !llfi_injectfault !15
  %187 = mul nsw i64 2, %fi139, !llfi_index !1244
  %fi140 = call i64 @injectFault0(i64 1243, i64 %187, i32 12, i32 0, i32 1, i32 0, i8* getelementptr inbounds ([4 x i8]* @mul_namestr, i32 0, i32 0)), !llfi_injectfault !15
  %188 = load i64* %n1, align 8, !llfi_index !1245
  %fi141 = call i64 @injectFault0(i64 1244, i64 %188, i32 27, i32 0, i32 1, i32 0, i8* getelementptr inbounds ([5 x i8]* @load_namestr, i32 0, i32 0)), !llfi_injectfault !15
  %189 = load i64* %12, align 8, !llfi_index !1246
  %fi142 = call i64 @injectFault0(i64 1245, i64 %189, i32 27, i32 0, i32 1, i32 0, i8* getelementptr inbounds ([5 x i8]* @load_namestr, i32 0, i32 0)), !llfi_injectfault !15
  %190 = add nsw i64 %fi141, %fi142, !llfi_index !1247
  %fi143 = call i64 @injectFault0(i64 1246, i64 %190, i32 8, i32 0, i32 1, i32 0, i8* getelementptr inbounds ([4 x i8]* @add_namestr, i32 0, i32 0)), !llfi_injectfault !15
  %191 = mul nsw i64 %fi140, %fi143, !llfi_index !1248
  %fi144 = call i64 @injectFault0(i64 1247, i64 %191, i32 12, i32 0, i32 1, i32 0, i8* getelementptr inbounds ([4 x i8]* @mul_namestr, i32 0, i32 0)), !llfi_injectfault !15
  %192 = load double** %5, align 8, !llfi_index !1249
  %fi145 = call double* @injectFault4(i64 1248, double* %192, i32 27, i32 0, i32 1, i32 0, i8* getelementptr inbounds ([5 x i8]* @load_namestr, i32 0, i32 0)), !llfi_injectfault !15
  %193 = getelementptr double* %fi145, i64 %fi144, !llfi_index !1250
  %fi146 = call double* @injectFault4(i64 1249, double* %193, i32 29, i32 0, i32 1, i32 0, i8* getelementptr inbounds ([14 x i8]* @getelementptr_namestr, i32 0, i32 0)), !llfi_injectfault !15
  %194 = load i64* %j, align 8, !llfi_index !1251
  %fi147 = call i64 @injectFault0(i64 1250, i64 %194, i32 27, i32 0, i32 1, i32 0, i8* getelementptr inbounds ([5 x i8]* @load_namestr, i32 0, i32 0)), !llfi_injectfault !15
  %195 = mul nsw i64 2, %fi147, !llfi_index !1252
  %fi148 = call i64 @injectFault0(i64 1251, i64 %195, i32 12, i32 0, i32 1, i32 0, i8* getelementptr inbounds ([4 x i8]* @mul_namestr, i32 0, i32 0)), !llfi_injectfault !15
  %196 = load i64* %n1, align 8, !llfi_index !1253
  %fi149 = call i64 @injectFault0(i64 1252, i64 %196, i32 27, i32 0, i32 1, i32 0, i8* getelementptr inbounds ([5 x i8]* @load_namestr, i32 0, i32 0)), !llfi_injectfault !15
  %197 = load i64* %12, align 8, !llfi_index !1254
  %fi150 = call i64 @injectFault0(i64 1253, i64 %197, i32 27, i32 0, i32 1, i32 0, i8* getelementptr inbounds ([5 x i8]* @load_namestr, i32 0, i32 0)), !llfi_injectfault !15
  %198 = add nsw i64 %fi149, %fi150, !llfi_index !1255
  %fi151 = call i64 @injectFault0(i64 1254, i64 %198, i32 8, i32 0, i32 1, i32 0, i8* getelementptr inbounds ([4 x i8]* @add_namestr, i32 0, i32 0)), !llfi_injectfault !15
  %199 = mul nsw i64 %fi148, %fi151, !llfi_index !1256
  %fi152 = call i64 @injectFault0(i64 1255, i64 %199, i32 12, i32 0, i32 1, i32 0, i8* getelementptr inbounds ([4 x i8]* @mul_namestr, i32 0, i32 0)), !llfi_injectfault !15
  %200 = load double** %4, align 8, !llfi_index !1257
  %fi153 = call double* @injectFault4(i64 1256, double* %200, i32 27, i32 0, i32 1, i32 0, i8* getelementptr inbounds ([5 x i8]* @load_namestr, i32 0, i32 0)), !llfi_injectfault !15
  %201 = getelementptr double* %fi153, i64 %fi152, !llfi_index !1258
  %fi154 = call double* @injectFault4(i64 1257, double* %201, i32 29, i32 0, i32 1, i32 0, i8* getelementptr inbounds ([14 x i8]* @getelementptr_namestr, i32 0, i32 0)), !llfi_injectfault !15
  call void @_Z10CopyColumnlPdS_(i64 %fi138, double* %fi146, double* %fi154), !llfi_index !1259
  br label %202, !llfi_index !1260

; <label>:202                                     ; preds = %184
  %203 = load i64* %j, align 8, !llfi_index !1261
  %fi155 = call i64 @injectFault0(i64 1260, i64 %203, i32 27, i32 0, i32 1, i32 0, i8* getelementptr inbounds ([5 x i8]* @load_namestr, i32 0, i32 0)), !llfi_injectfault !15
  %204 = add nsw i64 %fi155, 1, !llfi_index !1262
  %fi156 = call i64 @injectFault0(i64 1261, i64 %204, i32 8, i32 0, i32 1, i32 0, i8* getelementptr inbounds ([4 x i8]* @add_namestr, i32 0, i32 0)), !llfi_injectfault !15
  store i64 %fi156, i64* %j, align 8, !llfi_index !1263
  br label %180, !llfi_index !1264

; <label>:205                                     ; preds = %180
  br label %206, !llfi_index !1265

; <label>:206                                     ; preds = %205, %175
  ret void, !llfi_index !1266
}

; Function Attrs: nounwind
declare double @cos(double) #1

; Function Attrs: nounwind
declare double @sin(double) #1

; Function Attrs: nounwind uwtable
define i64 @_Z10BitReversell(i64 %M, i64 %k) #4 {
  %1 = alloca i64, align 8, !llfi_index !1267
  %2 = alloca i64, align 8, !llfi_index !1268
  %i = alloca i64, align 8, !llfi_index !1269
  %j = alloca i64, align 8, !llfi_index !1270
  %tmp = alloca i64, align 8, !llfi_index !1271
  store i64 %M, i64* %1, align 8, !llfi_index !1272
  store i64 %k, i64* %2, align 8, !llfi_index !1273
  store i64 0, i64* %j, align 8, !llfi_index !1274
  %3 = load i64* %2, align 8, !llfi_index !1275
  %fi = call i64 @injectFault0(i64 1274, i64 %3, i32 27, i32 0, i32 1, i32 0, i8* getelementptr inbounds ([5 x i8]* @load_namestr, i32 0, i32 0)), !llfi_injectfault !15
  store i64 %fi, i64* %tmp, align 8, !llfi_index !1276
  store i64 0, i64* %i, align 8, !llfi_index !1277
  br label %4, !llfi_index !1278

; <label>:4                                       ; preds = %16, %0
  %5 = load i64* %i, align 8, !llfi_index !1279
  %fi1 = call i64 @injectFault0(i64 1278, i64 %5, i32 27, i32 0, i32 1, i32 0, i8* getelementptr inbounds ([5 x i8]* @load_namestr, i32 0, i32 0)), !llfi_injectfault !15
  %6 = load i64* %1, align 8, !llfi_index !1280
  %fi2 = call i64 @injectFault0(i64 1279, i64 %6, i32 27, i32 0, i32 1, i32 0, i8* getelementptr inbounds ([5 x i8]* @load_namestr, i32 0, i32 0)), !llfi_injectfault !15
  %7 = icmp slt i64 %fi1, %fi2, !llfi_index !1281
  %fi3 = call i1 @injectFault1(i64 1280, i1 %7, i32 46, i32 0, i32 1, i32 0, i8* getelementptr inbounds ([5 x i8]* @icmp_namestr, i32 0, i32 0)), !llfi_injectfault !15
  br i1 %fi3, label %8, label %19, !llfi_index !1282

; <label>:8                                       ; preds = %4
  %9 = load i64* %j, align 8, !llfi_index !1283
  %fi5 = call i64 @injectFault0(i64 1282, i64 %9, i32 27, i32 0, i32 1, i32 0, i8* getelementptr inbounds ([5 x i8]* @load_namestr, i32 0, i32 0)), !llfi_injectfault !15
  %10 = mul nsw i64 2, %fi5, !llfi_index !1284
  %fi6 = call i64 @injectFault0(i64 1283, i64 %10, i32 12, i32 0, i32 1, i32 0, i8* getelementptr inbounds ([4 x i8]* @mul_namestr, i32 0, i32 0)), !llfi_injectfault !15
  %11 = load i64* %tmp, align 8, !llfi_index !1285
  %fi7 = call i64 @injectFault0(i64 1284, i64 %11, i32 27, i32 0, i32 1, i32 0, i8* getelementptr inbounds ([5 x i8]* @load_namestr, i32 0, i32 0)), !llfi_injectfault !15
  %12 = and i64 %fi7, 1, !llfi_index !1286
  %fi8 = call i64 @injectFault0(i64 1285, i64 %12, i32 23, i32 0, i32 1, i32 0, i8* getelementptr inbounds ([4 x i8]* @and_namestr, i32 0, i32 0)), !llfi_injectfault !15
  %13 = add nsw i64 %fi6, %fi8, !llfi_index !1287
  %fi9 = call i64 @injectFault0(i64 1286, i64 %13, i32 8, i32 0, i32 1, i32 0, i8* getelementptr inbounds ([4 x i8]* @add_namestr, i32 0, i32 0)), !llfi_injectfault !15
  store i64 %fi9, i64* %j, align 8, !llfi_index !1288
  %14 = load i64* %tmp, align 8, !llfi_index !1289
  %fi10 = call i64 @injectFault0(i64 1288, i64 %14, i32 27, i32 0, i32 1, i32 0, i8* getelementptr inbounds ([5 x i8]* @load_namestr, i32 0, i32 0)), !llfi_injectfault !15
  %15 = ashr i64 %fi10, 1, !llfi_index !1290
  %fi11 = call i64 @injectFault0(i64 1289, i64 %15, i32 22, i32 0, i32 1, i32 0, i8* getelementptr inbounds ([5 x i8]* @ashr_namestr, i32 0, i32 0)), !llfi_injectfault !15
  store i64 %fi11, i64* %tmp, align 8, !llfi_index !1291
  br label %16, !llfi_index !1292

; <label>:16                                      ; preds = %8
  %17 = load i64* %i, align 8, !llfi_index !1293
  %fi4 = call i64 @injectFault0(i64 1292, i64 %17, i32 27, i32 0, i32 1, i32 0, i8* getelementptr inbounds ([5 x i8]* @load_namestr, i32 0, i32 0)), !llfi_injectfault !15
  %18 = add nsw i64 %fi4, 1, !llfi_index !1294
  %fi12 = call i64 @injectFault0(i64 1293, i64 %18, i32 8, i32 0, i32 1, i32 0, i8* getelementptr inbounds ([4 x i8]* @add_namestr, i32 0, i32 0)), !llfi_injectfault !15
  store i64 %fi12, i64* %i, align 8, !llfi_index !1295
  br label %4, !llfi_index !1296

; <label>:19                                      ; preds = %4
  %20 = load i64* %j, align 8, !llfi_index !1297
  %fi13 = call i64 @injectFault0(i64 1296, i64 %20, i32 27, i32 0, i32 1, i32 0, i8* getelementptr inbounds ([5 x i8]* @load_namestr, i32 0, i32 0)), !llfi_injectfault !15
  ret i64 %fi13, !llfi_index !1298
}

; Function Attrs: nounwind uwtable
define void @_Z9TransposelPdS_llll(i64 %n1, double* %src, double* %dest, i64 %MyNum, i64 %MyFirst, i64 %MyLast, i64 %pad_length) #4 {
  %1 = alloca i64, align 8, !llfi_index !1299
  %2 = alloca double*, align 8, !llfi_index !1300
  %3 = alloca double*, align 8, !llfi_index !1301
  %4 = alloca i64, align 8, !llfi_index !1302
  %5 = alloca i64, align 8, !llfi_index !1303
  %6 = alloca i64, align 8, !llfi_index !1304
  %7 = alloca i64, align 8, !llfi_index !1305
  %i = alloca i64, align 8, !llfi_index !1306
  %j = alloca i64, align 8, !llfi_index !1307
  %k = alloca i64, align 8, !llfi_index !1308
  %l = alloca i64, align 8, !llfi_index !1309
  %m = alloca i64, align 8, !llfi_index !1310
  %blksize = alloca i64, align 8, !llfi_index !1311
  %numblks = alloca i64, align 8, !llfi_index !1312
  %firstfirst = alloca i64, align 8, !llfi_index !1313
  %h_off = alloca i64, align 8, !llfi_index !1314
  %v_off = alloca i64, align 8, !llfi_index !1315
  %v = alloca i64, align 8, !llfi_index !1316
  %h = alloca i64, align 8, !llfi_index !1317
  %n1p = alloca i64, align 8, !llfi_index !1318
  %row_count = alloca i64, align 8, !llfi_index !1319
  store i64 %n1, i64* %1, align 8, !llfi_index !1320
  store double* %src, double** %2, align 8, !llfi_index !1321
  store double* %dest, double** %3, align 8, !llfi_index !1322
  store i64 %MyNum, i64* %4, align 8, !llfi_index !1323
  store i64 %MyFirst, i64* %5, align 8, !llfi_index !1324
  store i64 %MyLast, i64* %6, align 8, !llfi_index !1325
  store i64 %pad_length, i64* %7, align 8, !llfi_index !1326
  %8 = load i64* %6, align 8, !llfi_index !1327
  %fi100 = call i64 @injectFault0(i64 1326, i64 %8, i32 27, i32 0, i32 1, i32 0, i8* getelementptr inbounds ([5 x i8]* @load_namestr, i32 0, i32 0)), !llfi_injectfault !15
  %9 = load i64* %5, align 8, !llfi_index !1328
  %fi102 = call i64 @injectFault0(i64 1327, i64 %9, i32 27, i32 0, i32 1, i32 0, i8* getelementptr inbounds ([5 x i8]* @load_namestr, i32 0, i32 0)), !llfi_injectfault !15
  %10 = sub nsw i64 %fi100, %fi102, !llfi_index !1329
  %fi103 = call i64 @injectFault0(i64 1328, i64 %10, i32 10, i32 0, i32 1, i32 0, i8* getelementptr inbounds ([4 x i8]* @sub_namestr, i32 0, i32 0)), !llfi_injectfault !15
  store i64 %fi103, i64* %blksize, align 8, !llfi_index !1330
  %11 = load i64* %blksize, align 8, !llfi_index !1331
  %fi104 = call i64 @injectFault0(i64 1330, i64 %11, i32 27, i32 0, i32 1, i32 0, i8* getelementptr inbounds ([5 x i8]* @load_namestr, i32 0, i32 0)), !llfi_injectfault !15
  %12 = mul nsw i64 2, %fi104, !llfi_index !1332
  %fi105 = call i64 @injectFault0(i64 1331, i64 %12, i32 12, i32 0, i32 1, i32 0, i8* getelementptr inbounds ([4 x i8]* @mul_namestr, i32 0, i32 0)), !llfi_injectfault !15
  %13 = load i64* @num_cache_lines, align 8, !llfi_index !1333
  %fi106 = call i64 @injectFault0(i64 1332, i64 %13, i32 27, i32 0, i32 1, i32 0, i8* getelementptr inbounds ([5 x i8]* @load_namestr, i32 0, i32 0)), !llfi_injectfault !15
  %14 = sdiv i64 %fi105, %fi106, !llfi_index !1334
  %fi107 = call i64 @injectFault0(i64 1333, i64 %14, i32 15, i32 0, i32 1, i32 0, i8* getelementptr inbounds ([5 x i8]* @sdiv_namestr, i32 0, i32 0)), !llfi_injectfault !15
  store i64 %fi107, i64* %numblks, align 8, !llfi_index !1335
  %15 = load i64* %numblks, align 8, !llfi_index !1336
  %fi108 = call i64 @injectFault0(i64 1335, i64 %15, i32 27, i32 0, i32 1, i32 0, i8* getelementptr inbounds ([5 x i8]* @load_namestr, i32 0, i32 0)), !llfi_injectfault !15
  %16 = load i64* @num_cache_lines, align 8, !llfi_index !1337
  %fi109 = call i64 @injectFault0(i64 1336, i64 %16, i32 27, i32 0, i32 1, i32 0, i8* getelementptr inbounds ([5 x i8]* @load_namestr, i32 0, i32 0)), !llfi_injectfault !15
  %17 = mul nsw i64 %fi108, %fi109, !llfi_index !1338
  %fi101 = call i64 @injectFault0(i64 1337, i64 %17, i32 12, i32 0, i32 1, i32 0, i8* getelementptr inbounds ([4 x i8]* @mul_namestr, i32 0, i32 0)), !llfi_injectfault !15
  %18 = load i64* %blksize, align 8, !llfi_index !1339
  %fi111 = call i64 @injectFault0(i64 1338, i64 %18, i32 27, i32 0, i32 1, i32 0, i8* getelementptr inbounds ([5 x i8]* @load_namestr, i32 0, i32 0)), !llfi_injectfault !15
  %19 = mul nsw i64 2, %fi111, !llfi_index !1340
  %fi112 = call i64 @injectFault0(i64 1339, i64 %19, i32 12, i32 0, i32 1, i32 0, i8* getelementptr inbounds ([4 x i8]* @mul_namestr, i32 0, i32 0)), !llfi_injectfault !15
  %20 = icmp ne i64 %fi101, %fi112, !llfi_index !1341
  %fi113 = call i1 @injectFault1(i64 1340, i1 %20, i32 46, i32 0, i32 1, i32 0, i8* getelementptr inbounds ([5 x i8]* @icmp_namestr, i32 0, i32 0)), !llfi_injectfault !15
  br i1 %fi113, label %21, label %24, !llfi_index !1342

; <label>:21                                      ; preds = %0
  %22 = load i64* %numblks, align 8, !llfi_index !1343
  %fi114 = call i64 @injectFault0(i64 1342, i64 %22, i32 27, i32 0, i32 1, i32 0, i8* getelementptr inbounds ([5 x i8]* @load_namestr, i32 0, i32 0)), !llfi_injectfault !15
  %23 = add nsw i64 %fi114, 1, !llfi_index !1344
  %fi115 = call i64 @injectFault0(i64 1343, i64 %23, i32 8, i32 0, i32 1, i32 0, i8* getelementptr inbounds ([4 x i8]* @add_namestr, i32 0, i32 0)), !llfi_injectfault !15
  store i64 %fi115, i64* %numblks, align 8, !llfi_index !1345
  br label %24, !llfi_index !1346

; <label>:24                                      ; preds = %21, %0
  %25 = load i64* %blksize, align 8, !llfi_index !1347
  %fi116 = call i64 @injectFault0(i64 1346, i64 %25, i32 27, i32 0, i32 1, i32 0, i8* getelementptr inbounds ([5 x i8]* @load_namestr, i32 0, i32 0)), !llfi_injectfault !15
  %26 = load i64* %numblks, align 8, !llfi_index !1348
  %fi117 = call i64 @injectFault0(i64 1347, i64 %26, i32 27, i32 0, i32 1, i32 0, i8* getelementptr inbounds ([5 x i8]* @load_namestr, i32 0, i32 0)), !llfi_injectfault !15
  %27 = sdiv i64 %fi116, %fi117, !llfi_index !1349
  %fi118 = call i64 @injectFault0(i64 1348, i64 %27, i32 15, i32 0, i32 1, i32 0, i8* getelementptr inbounds ([5 x i8]* @sdiv_namestr, i32 0, i32 0)), !llfi_injectfault !15
  store i64 %fi118, i64* %blksize, align 8, !llfi_index !1350
  %28 = load i64* %5, align 8, !llfi_index !1351
  %fi119 = call i64 @injectFault0(i64 1350, i64 %28, i32 27, i32 0, i32 1, i32 0, i8* getelementptr inbounds ([5 x i8]* @load_namestr, i32 0, i32 0)), !llfi_injectfault !15
  store i64 %fi119, i64* %firstfirst, align 8, !llfi_index !1352
  %29 = load i64* %1, align 8, !llfi_index !1353
  %fi120 = call i64 @injectFault0(i64 1352, i64 %29, i32 27, i32 0, i32 1, i32 0, i8* getelementptr inbounds ([5 x i8]* @load_namestr, i32 0, i32 0)), !llfi_injectfault !15
  %30 = load i64* @P, align 8, !llfi_index !1354
  %fi121 = call i64 @injectFault0(i64 1353, i64 %30, i32 27, i32 0, i32 1, i32 0, i8* getelementptr inbounds ([5 x i8]* @load_namestr, i32 0, i32 0)), !llfi_injectfault !15
  %31 = sdiv i64 %fi120, %fi121, !llfi_index !1355
  %fi122 = call i64 @injectFault0(i64 1354, i64 %31, i32 15, i32 0, i32 1, i32 0, i8* getelementptr inbounds ([5 x i8]* @sdiv_namestr, i32 0, i32 0)), !llfi_injectfault !15
  store i64 %fi122, i64* %row_count, align 8, !llfi_index !1356
  %32 = load i64* %1, align 8, !llfi_index !1357
  %fi123 = call i64 @injectFault0(i64 1356, i64 %32, i32 27, i32 0, i32 1, i32 0, i8* getelementptr inbounds ([5 x i8]* @load_namestr, i32 0, i32 0)), !llfi_injectfault !15
  %33 = load i64* %7, align 8, !llfi_index !1358
  %fi110 = call i64 @injectFault0(i64 1357, i64 %33, i32 27, i32 0, i32 1, i32 0, i8* getelementptr inbounds ([5 x i8]* @load_namestr, i32 0, i32 0)), !llfi_injectfault !15
  %34 = add nsw i64 %fi123, %fi110, !llfi_index !1359
  %fi126 = call i64 @injectFault0(i64 1358, i64 %34, i32 8, i32 0, i32 1, i32 0, i8* getelementptr inbounds ([4 x i8]* @add_namestr, i32 0, i32 0)), !llfi_injectfault !15
  store i64 %fi126, i64* %n1p, align 8, !llfi_index !1360
  %35 = load i64* %4, align 8, !llfi_index !1361
  %fi127 = call i64 @injectFault0(i64 1360, i64 %35, i32 27, i32 0, i32 1, i32 0, i8* getelementptr inbounds ([5 x i8]* @load_namestr, i32 0, i32 0)), !llfi_injectfault !15
  %36 = add nsw i64 %fi127, 1, !llfi_index !1362
  %fi128 = call i64 @injectFault0(i64 1361, i64 %36, i32 8, i32 0, i32 1, i32 0, i8* getelementptr inbounds ([4 x i8]* @add_namestr, i32 0, i32 0)), !llfi_injectfault !15
  store i64 %fi128, i64* %l, align 8, !llfi_index !1363
  br label %37, !llfi_index !1364

; <label>:37                                      ; preds = %130, %24
  %38 = load i64* %l, align 8, !llfi_index !1365
  %fi129 = call i64 @injectFault0(i64 1364, i64 %38, i32 27, i32 0, i32 1, i32 0, i8* getelementptr inbounds ([5 x i8]* @load_namestr, i32 0, i32 0)), !llfi_injectfault !15
  %39 = load i64* @P, align 8, !llfi_index !1366
  %fi130 = call i64 @injectFault0(i64 1365, i64 %39, i32 27, i32 0, i32 1, i32 0, i8* getelementptr inbounds ([5 x i8]* @load_namestr, i32 0, i32 0)), !llfi_injectfault !15
  %40 = icmp slt i64 %fi129, %fi130, !llfi_index !1367
  %fi131 = call i1 @injectFault1(i64 1366, i1 %40, i32 46, i32 0, i32 1, i32 0, i8* getelementptr inbounds ([5 x i8]* @icmp_namestr, i32 0, i32 0)), !llfi_injectfault !15
  br i1 %fi131, label %41, label %133, !llfi_index !1368

; <label>:41                                      ; preds = %37
  %42 = load i64* %l, align 8, !llfi_index !1369
  %fi132 = call i64 @injectFault0(i64 1368, i64 %42, i32 27, i32 0, i32 1, i32 0, i8* getelementptr inbounds ([5 x i8]* @load_namestr, i32 0, i32 0)), !llfi_injectfault !15
  %43 = load i64* %row_count, align 8, !llfi_index !1370
  %fi133 = call i64 @injectFault0(i64 1369, i64 %43, i32 27, i32 0, i32 1, i32 0, i8* getelementptr inbounds ([5 x i8]* @load_namestr, i32 0, i32 0)), !llfi_injectfault !15
  %44 = mul nsw i64 %fi132, %fi133, !llfi_index !1371
  %fi134 = call i64 @injectFault0(i64 1370, i64 %44, i32 12, i32 0, i32 1, i32 0, i8* getelementptr inbounds ([4 x i8]* @mul_namestr, i32 0, i32 0)), !llfi_injectfault !15
  store i64 %fi134, i64* %v_off, align 8, !llfi_index !1372
  store i64 0, i64* %k, align 8, !llfi_index !1373
  br label %45, !llfi_index !1374

; <label>:45                                      ; preds = %126, %41
  %46 = load i64* %k, align 8, !llfi_index !1375
  %fi135 = call i64 @injectFault0(i64 1374, i64 %46, i32 27, i32 0, i32 1, i32 0, i8* getelementptr inbounds ([5 x i8]* @load_namestr, i32 0, i32 0)), !llfi_injectfault !15
  %47 = load i64* %numblks, align 8, !llfi_index !1376
  %fi136 = call i64 @injectFault0(i64 1375, i64 %47, i32 27, i32 0, i32 1, i32 0, i8* getelementptr inbounds ([5 x i8]* @load_namestr, i32 0, i32 0)), !llfi_injectfault !15
  %48 = icmp slt i64 %fi135, %fi136, !llfi_index !1377
  %fi137 = call i1 @injectFault1(i64 1376, i1 %48, i32 46, i32 0, i32 1, i32 0, i8* getelementptr inbounds ([5 x i8]* @icmp_namestr, i32 0, i32 0)), !llfi_injectfault !15
  br i1 %fi137, label %49, label %129, !llfi_index !1378

; <label>:49                                      ; preds = %45
  %50 = load i64* %firstfirst, align 8, !llfi_index !1379
  %fi138 = call i64 @injectFault0(i64 1378, i64 %50, i32 27, i32 0, i32 1, i32 0, i8* getelementptr inbounds ([5 x i8]* @load_namestr, i32 0, i32 0)), !llfi_injectfault !15
  store i64 %fi138, i64* %h_off, align 8, !llfi_index !1380
  store i64 0, i64* %m, align 8, !llfi_index !1381
  br label %51, !llfi_index !1382

; <label>:51                                      ; preds = %119, %49
  %52 = load i64* %m, align 8, !llfi_index !1383
  %fi139 = call i64 @injectFault0(i64 1382, i64 %52, i32 27, i32 0, i32 1, i32 0, i8* getelementptr inbounds ([5 x i8]* @load_namestr, i32 0, i32 0)), !llfi_injectfault !15
  %53 = load i64* %numblks, align 8, !llfi_index !1384
  %fi140 = call i64 @injectFault0(i64 1383, i64 %53, i32 27, i32 0, i32 1, i32 0, i8* getelementptr inbounds ([5 x i8]* @load_namestr, i32 0, i32 0)), !llfi_injectfault !15
  %54 = icmp slt i64 %fi139, %fi140, !llfi_index !1385
  %fi141 = call i1 @injectFault1(i64 1384, i1 %54, i32 46, i32 0, i32 1, i32 0, i8* getelementptr inbounds ([5 x i8]* @icmp_namestr, i32 0, i32 0)), !llfi_injectfault !15
  br i1 %fi141, label %55, label %122, !llfi_index !1386

; <label>:55                                      ; preds = %51
  store i64 0, i64* %i, align 8, !llfi_index !1387
  br label %56, !llfi_index !1388

; <label>:56                                      ; preds = %112, %55
  %57 = load i64* %i, align 8, !llfi_index !1389
  %fi142 = call i64 @injectFault0(i64 1388, i64 %57, i32 27, i32 0, i32 1, i32 0, i8* getelementptr inbounds ([5 x i8]* @load_namestr, i32 0, i32 0)), !llfi_injectfault !15
  %58 = load i64* %blksize, align 8, !llfi_index !1390
  %fi143 = call i64 @injectFault0(i64 1389, i64 %58, i32 27, i32 0, i32 1, i32 0, i8* getelementptr inbounds ([5 x i8]* @load_namestr, i32 0, i32 0)), !llfi_injectfault !15
  %59 = icmp slt i64 %fi142, %fi143, !llfi_index !1391
  %fi144 = call i1 @injectFault1(i64 1390, i1 %59, i32 46, i32 0, i32 1, i32 0, i8* getelementptr inbounds ([5 x i8]* @icmp_namestr, i32 0, i32 0)), !llfi_injectfault !15
  br i1 %fi144, label %60, label %115, !llfi_index !1392

; <label>:60                                      ; preds = %56
  %61 = load i64* %v_off, align 8, !llfi_index !1393
  %fi145 = call i64 @injectFault0(i64 1392, i64 %61, i32 27, i32 0, i32 1, i32 0, i8* getelementptr inbounds ([5 x i8]* @load_namestr, i32 0, i32 0)), !llfi_injectfault !15
  %62 = load i64* %i, align 8, !llfi_index !1394
  %fi146 = call i64 @injectFault0(i64 1393, i64 %62, i32 27, i32 0, i32 1, i32 0, i8* getelementptr inbounds ([5 x i8]* @load_namestr, i32 0, i32 0)), !llfi_injectfault !15
  %63 = add nsw i64 %fi145, %fi146, !llfi_index !1395
  %fi147 = call i64 @injectFault0(i64 1394, i64 %63, i32 8, i32 0, i32 1, i32 0, i8* getelementptr inbounds ([4 x i8]* @add_namestr, i32 0, i32 0)), !llfi_injectfault !15
  store i64 %fi147, i64* %v, align 8, !llfi_index !1396
  store i64 0, i64* %j, align 8, !llfi_index !1397
  br label %64, !llfi_index !1398

; <label>:64                                      ; preds = %108, %60
  %65 = load i64* %j, align 8, !llfi_index !1399
  %fi99 = call i64 @injectFault0(i64 1398, i64 %65, i32 27, i32 0, i32 1, i32 0, i8* getelementptr inbounds ([5 x i8]* @load_namestr, i32 0, i32 0)), !llfi_injectfault !15
  %66 = load i64* %blksize, align 8, !llfi_index !1400
  %fi124 = call i64 @injectFault0(i64 1399, i64 %66, i32 27, i32 0, i32 1, i32 0, i8* getelementptr inbounds ([5 x i8]* @load_namestr, i32 0, i32 0)), !llfi_injectfault !15
  %67 = icmp slt i64 %fi99, %fi124, !llfi_index !1401
  %fi125 = call i1 @injectFault1(i64 1400, i1 %67, i32 46, i32 0, i32 1, i32 0, i8* getelementptr inbounds ([5 x i8]* @icmp_namestr, i32 0, i32 0)), !llfi_injectfault !15
  br i1 %fi125, label %68, label %111, !llfi_index !1402

; <label>:68                                      ; preds = %64
  %69 = load i64* %h_off, align 8, !llfi_index !1403
  %fi150 = call i64 @injectFault0(i64 1402, i64 %69, i32 27, i32 0, i32 1, i32 0, i8* getelementptr inbounds ([5 x i8]* @load_namestr, i32 0, i32 0)), !llfi_injectfault !15
  %70 = load i64* %j, align 8, !llfi_index !1404
  %fi151 = call i64 @injectFault0(i64 1403, i64 %70, i32 27, i32 0, i32 1, i32 0, i8* getelementptr inbounds ([5 x i8]* @load_namestr, i32 0, i32 0)), !llfi_injectfault !15
  %71 = add nsw i64 %fi150, %fi151, !llfi_index !1405
  %fi152 = call i64 @injectFault0(i64 1404, i64 %71, i32 8, i32 0, i32 1, i32 0, i8* getelementptr inbounds ([4 x i8]* @add_namestr, i32 0, i32 0)), !llfi_injectfault !15
  store i64 %fi152, i64* %h, align 8, !llfi_index !1406
  %72 = load i64* %v, align 8, !llfi_index !1407
  %fi153 = call i64 @injectFault0(i64 1406, i64 %72, i32 27, i32 0, i32 1, i32 0, i8* getelementptr inbounds ([5 x i8]* @load_namestr, i32 0, i32 0)), !llfi_injectfault !15
  %73 = load i64* %n1p, align 8, !llfi_index !1408
  %fi154 = call i64 @injectFault0(i64 1407, i64 %73, i32 27, i32 0, i32 1, i32 0, i8* getelementptr inbounds ([5 x i8]* @load_namestr, i32 0, i32 0)), !llfi_injectfault !15
  %74 = mul nsw i64 %fi153, %fi154, !llfi_index !1409
  %fi155 = call i64 @injectFault0(i64 1408, i64 %74, i32 12, i32 0, i32 1, i32 0, i8* getelementptr inbounds ([4 x i8]* @mul_namestr, i32 0, i32 0)), !llfi_injectfault !15
  %75 = load i64* %h, align 8, !llfi_index !1410
  %fi156 = call i64 @injectFault0(i64 1409, i64 %75, i32 27, i32 0, i32 1, i32 0, i8* getelementptr inbounds ([5 x i8]* @load_namestr, i32 0, i32 0)), !llfi_injectfault !15
  %76 = add nsw i64 %fi155, %fi156, !llfi_index !1411
  %fi157 = call i64 @injectFault0(i64 1410, i64 %76, i32 8, i32 0, i32 1, i32 0, i8* getelementptr inbounds ([4 x i8]* @add_namestr, i32 0, i32 0)), !llfi_injectfault !15
  %77 = mul nsw i64 2, %fi157, !llfi_index !1412
  %fi158 = call i64 @injectFault0(i64 1411, i64 %77, i32 12, i32 0, i32 1, i32 0, i8* getelementptr inbounds ([4 x i8]* @mul_namestr, i32 0, i32 0)), !llfi_injectfault !15
  %78 = load double** %2, align 8, !llfi_index !1413
  %fi159 = call double* @injectFault4(i64 1412, double* %78, i32 27, i32 0, i32 1, i32 0, i8* getelementptr inbounds ([5 x i8]* @load_namestr, i32 0, i32 0)), !llfi_injectfault !15
  %79 = getelementptr double* %fi159, i64 %fi158, !llfi_index !1414
  %fi160 = call double* @injectFault4(i64 1413, double* %79, i32 29, i32 0, i32 1, i32 0, i8* getelementptr inbounds ([14 x i8]* @getelementptr_namestr, i32 0, i32 0)), !llfi_injectfault !15
  %80 = load double* %fi160, align 8, !llfi_index !1415
  %fi161 = call double @injectFault7(i64 1414, double %80, i32 27, i32 0, i32 1, i32 0, i8* getelementptr inbounds ([5 x i8]* @load_namestr, i32 0, i32 0)), !llfi_injectfault !15
  %81 = load i64* %h, align 8, !llfi_index !1416
  %fi162 = call i64 @injectFault0(i64 1415, i64 %81, i32 27, i32 0, i32 1, i32 0, i8* getelementptr inbounds ([5 x i8]* @load_namestr, i32 0, i32 0)), !llfi_injectfault !15
  %82 = load i64* %n1p, align 8, !llfi_index !1417
  %fi163 = call i64 @injectFault0(i64 1416, i64 %82, i32 27, i32 0, i32 1, i32 0, i8* getelementptr inbounds ([5 x i8]* @load_namestr, i32 0, i32 0)), !llfi_injectfault !15
  %83 = mul nsw i64 %fi162, %fi163, !llfi_index !1418
  %fi164 = call i64 @injectFault0(i64 1417, i64 %83, i32 12, i32 0, i32 1, i32 0, i8* getelementptr inbounds ([4 x i8]* @mul_namestr, i32 0, i32 0)), !llfi_injectfault !15
  %84 = load i64* %v, align 8, !llfi_index !1419
  %fi165 = call i64 @injectFault0(i64 1418, i64 %84, i32 27, i32 0, i32 1, i32 0, i8* getelementptr inbounds ([5 x i8]* @load_namestr, i32 0, i32 0)), !llfi_injectfault !15
  %85 = add nsw i64 %fi164, %fi165, !llfi_index !1420
  %fi166 = call i64 @injectFault0(i64 1419, i64 %85, i32 8, i32 0, i32 1, i32 0, i8* getelementptr inbounds ([4 x i8]* @add_namestr, i32 0, i32 0)), !llfi_injectfault !15
  %86 = mul nsw i64 2, %fi166, !llfi_index !1421
  %fi167 = call i64 @injectFault0(i64 1420, i64 %86, i32 12, i32 0, i32 1, i32 0, i8* getelementptr inbounds ([4 x i8]* @mul_namestr, i32 0, i32 0)), !llfi_injectfault !15
  %87 = load double** %3, align 8, !llfi_index !1422
  %fi168 = call double* @injectFault4(i64 1421, double* %87, i32 27, i32 0, i32 1, i32 0, i8* getelementptr inbounds ([5 x i8]* @load_namestr, i32 0, i32 0)), !llfi_injectfault !15
  %88 = getelementptr double* %fi168, i64 %fi167, !llfi_index !1423
  %fi169 = call double* @injectFault4(i64 1422, double* %88, i32 29, i32 0, i32 1, i32 0, i8* getelementptr inbounds ([14 x i8]* @getelementptr_namestr, i32 0, i32 0)), !llfi_injectfault !15
  store double %fi161, double* %fi169, align 8, !llfi_index !1424
  %89 = load i64* %v, align 8, !llfi_index !1425
  %fi170 = call i64 @injectFault0(i64 1424, i64 %89, i32 27, i32 0, i32 1, i32 0, i8* getelementptr inbounds ([5 x i8]* @load_namestr, i32 0, i32 0)), !llfi_injectfault !15
  %90 = load i64* %n1p, align 8, !llfi_index !1426
  %fi171 = call i64 @injectFault0(i64 1425, i64 %90, i32 27, i32 0, i32 1, i32 0, i8* getelementptr inbounds ([5 x i8]* @load_namestr, i32 0, i32 0)), !llfi_injectfault !15
  %91 = mul nsw i64 %fi170, %fi171, !llfi_index !1427
  %fi172 = call i64 @injectFault0(i64 1426, i64 %91, i32 12, i32 0, i32 1, i32 0, i8* getelementptr inbounds ([4 x i8]* @mul_namestr, i32 0, i32 0)), !llfi_injectfault !15
  %92 = load i64* %h, align 8, !llfi_index !1428
  %fi173 = call i64 @injectFault0(i64 1427, i64 %92, i32 27, i32 0, i32 1, i32 0, i8* getelementptr inbounds ([5 x i8]* @load_namestr, i32 0, i32 0)), !llfi_injectfault !15
  %93 = add nsw i64 %fi172, %fi173, !llfi_index !1429
  %fi174 = call i64 @injectFault0(i64 1428, i64 %93, i32 8, i32 0, i32 1, i32 0, i8* getelementptr inbounds ([4 x i8]* @add_namestr, i32 0, i32 0)), !llfi_injectfault !15
  %94 = mul nsw i64 2, %fi174, !llfi_index !1430
  %fi175 = call i64 @injectFault0(i64 1429, i64 %94, i32 12, i32 0, i32 1, i32 0, i8* getelementptr inbounds ([4 x i8]* @mul_namestr, i32 0, i32 0)), !llfi_injectfault !15
  %95 = add nsw i64 %fi175, 1, !llfi_index !1431
  %fi176 = call i64 @injectFault0(i64 1430, i64 %95, i32 8, i32 0, i32 1, i32 0, i8* getelementptr inbounds ([4 x i8]* @add_namestr, i32 0, i32 0)), !llfi_injectfault !15
  %96 = load double** %2, align 8, !llfi_index !1432
  %fi177 = call double* @injectFault4(i64 1431, double* %96, i32 27, i32 0, i32 1, i32 0, i8* getelementptr inbounds ([5 x i8]* @load_namestr, i32 0, i32 0)), !llfi_injectfault !15
  %97 = getelementptr double* %fi177, i64 %fi176, !llfi_index !1433
  %fi178 = call double* @injectFault4(i64 1432, double* %97, i32 29, i32 0, i32 1, i32 0, i8* getelementptr inbounds ([14 x i8]* @getelementptr_namestr, i32 0, i32 0)), !llfi_injectfault !15
  %98 = load double* %fi178, align 8, !llfi_index !1434
  %fi179 = call double @injectFault7(i64 1433, double %98, i32 27, i32 0, i32 1, i32 0, i8* getelementptr inbounds ([5 x i8]* @load_namestr, i32 0, i32 0)), !llfi_injectfault !15
  %99 = load i64* %h, align 8, !llfi_index !1435
  %fi180 = call i64 @injectFault0(i64 1434, i64 %99, i32 27, i32 0, i32 1, i32 0, i8* getelementptr inbounds ([5 x i8]* @load_namestr, i32 0, i32 0)), !llfi_injectfault !15
  %100 = load i64* %n1p, align 8, !llfi_index !1436
  %fi181 = call i64 @injectFault0(i64 1435, i64 %100, i32 27, i32 0, i32 1, i32 0, i8* getelementptr inbounds ([5 x i8]* @load_namestr, i32 0, i32 0)), !llfi_injectfault !15
  %101 = mul nsw i64 %fi180, %fi181, !llfi_index !1437
  %fi182 = call i64 @injectFault0(i64 1436, i64 %101, i32 12, i32 0, i32 1, i32 0, i8* getelementptr inbounds ([4 x i8]* @mul_namestr, i32 0, i32 0)), !llfi_injectfault !15
  %102 = load i64* %v, align 8, !llfi_index !1438
  %fi183 = call i64 @injectFault0(i64 1437, i64 %102, i32 27, i32 0, i32 1, i32 0, i8* getelementptr inbounds ([5 x i8]* @load_namestr, i32 0, i32 0)), !llfi_injectfault !15
  %103 = add nsw i64 %fi182, %fi183, !llfi_index !1439
  %fi184 = call i64 @injectFault0(i64 1438, i64 %103, i32 8, i32 0, i32 1, i32 0, i8* getelementptr inbounds ([4 x i8]* @add_namestr, i32 0, i32 0)), !llfi_injectfault !15
  %104 = mul nsw i64 2, %fi184, !llfi_index !1440
  %fi185 = call i64 @injectFault0(i64 1439, i64 %104, i32 12, i32 0, i32 1, i32 0, i8* getelementptr inbounds ([4 x i8]* @mul_namestr, i32 0, i32 0)), !llfi_injectfault !15
  %105 = add nsw i64 %fi185, 1, !llfi_index !1441
  %fi186 = call i64 @injectFault0(i64 1440, i64 %105, i32 8, i32 0, i32 1, i32 0, i8* getelementptr inbounds ([4 x i8]* @add_namestr, i32 0, i32 0)), !llfi_injectfault !15
  %106 = load double** %3, align 8, !llfi_index !1442
