; ModuleID = '/data_ssd/backed_up/mrahman12/Peppa-X/input-resilience/Benchmarks/compiled-benchmarks/needle/needle-ga-bound-1/needle-16-180-1/llfi/needle-llfi_index.ll'
target datalayout = "e-p:64:64:64-i1:8:8-i8:8:8-i16:16:16-i32:32:32-i64:64:64-f32:32:32-f64:64:64-v64:64:64-v128:128:128-a0:0:64-s0:64:64-f80:128:128-n8:16:32:64-S128"
target triple = "x86_64-unknown-linux-gnu"

%struct._IO_FILE = type { i32, i8*, i8*, i8*, i8*, i8*, i8*, i8*, i8*, i8*, i8*, i8*, %struct._IO_marker*, %struct._IO_FILE*, i32, i32, i64, i16, i8, [1 x i8], i8*, i64, i8*, i8*, i8*, i8*, i64, i32, [20 x i8] }
%struct._IO_marker = type { %struct._IO_marker*, %struct._IO_FILE*, i32 }
%struct.timeval = type { i64, i64 }
%struct.timezone = type { i32, i32 }

@blosum62 = global [24 x [24 x i32]] [[24 x i32] [i32 4, i32 -1, i32 -2, i32 -2, i32 0, i32 -1, i32 -1, i32 0, i32 -2, i32 -1, i32 -1, i32 -1, i32 -1, i32 -2, i32 -1, i32 1, i32 0, i32 -3, i32 -2, i32 0, i32 -2, i32 -1, i32 0, i32 -4], [24 x i32] [i32 -1, i32 5, i32 0, i32 -2, i32 -3, i32 1, i32 0, i32 -2, i32 0, i32 -3, i32 -2, i32 2, i32 -1, i32 -3, i32 -2, i32 -1, i32 -1, i32 -3, i32 -2, i32 -3, i32 -1, i32 0, i32 -1, i32 -4], [24 x i32] [i32 -2, i32 0, i32 6, i32 1, i32 -3, i32 0, i32 0, i32 0, i32 1, i32 -3, i32 -3, i32 0, i32 -2, i32 -3, i32 -2, i32 1, i32 0, i32 -4, i32 -2, i32 -3, i32 3, i32 0, i32 -1, i32 -4], [24 x i32] [i32 -2, i32 -2, i32 1, i32 6, i32 -3, i32 0, i32 2, i32 -1, i32 -1, i32 -3, i32 -4, i32 -1, i32 -3, i32 -3, i32 -1, i32 0, i32 -1, i32 -4, i32 -3, i32 -3, i32 4, i32 1, i32 -1, i32 -4], [24 x i32] [i32 0, i32 -3, i32 -3, i32 -3, i32 9, i32 -3, i32 -4, i32 -3, i32 -3, i32 -1, i32 -1, i32 -3, i32 -1, i32 -2, i32 -3, i32 -1, i32 -1, i32 -2, i32 -2, i32 -1, i32 -3, i32 -3, i32 -2, i32 -4], [24 x i32] [i32 -1, i32 1, i32 0, i32 0, i32 -3, i32 5, i32 2, i32 -2, i32 0, i32 -3, i32 -2, i32 1, i32 0, i32 -3, i32 -1, i32 0, i32 -1, i32 -2, i32 -1, i32 -2, i32 0, i32 3, i32 -1, i32 -4], [24 x i32] [i32 -1, i32 0, i32 0, i32 2, i32 -4, i32 2, i32 5, i32 -2, i32 0, i32 -3, i32 -3, i32 1, i32 -2, i32 -3, i32 -1, i32 0, i32 -1, i32 -3, i32 -2, i32 -2, i32 1, i32 4, i32 -1, i32 -4], [24 x i32] [i32 0, i32 -2, i32 0, i32 -1, i32 -3, i32 -2, i32 -2, i32 6, i32 -2, i32 -4, i32 -4, i32 -2, i32 -3, i32 -3, i32 -2, i32 0, i32 -2, i32 -2, i32 -3, i32 -3, i32 -1, i32 -2, i32 -1, i32 -4], [24 x i32] [i32 -2, i32 0, i32 1, i32 -1, i32 -3, i32 0, i32 0, i32 -2, i32 8, i32 -3, i32 -3, i32 -1, i32 -2, i32 -1, i32 -2, i32 -1, i32 -2, i32 -2, i32 2, i32 -3, i32 0, i32 0, i32 -1, i32 -4], [24 x i32] [i32 -1, i32 -3, i32 -3, i32 -3, i32 -1, i32 -3, i32 -3, i32 -4, i32 -3, i32 4, i32 2, i32 -3, i32 1, i32 0, i32 -3, i32 -2, i32 -1, i32 -3, i32 -1, i32 3, i32 -3, i32 -3, i32 -1, i32 -4], [24 x i32] [i32 -1, i32 -2, i32 -3, i32 -4, i32 -1, i32 -2, i32 -3, i32 -4, i32 -3, i32 2, i32 4, i32 -2, i32 2, i32 0, i32 -3, i32 -2, i32 -1, i32 -2, i32 -1, i32 1, i32 -4, i32 -3, i32 -1, i32 -4], [24 x i32] [i32 -1, i32 2, i32 0, i32 -1, i32 -3, i32 1, i32 1, i32 -2, i32 -1, i32 -3, i32 -2, i32 5, i32 -1, i32 -3, i32 -1, i32 0, i32 -1, i32 -3, i32 -2, i32 -2, i32 0, i32 1, i32 -1, i32 -4], [24 x i32] [i32 -1, i32 -1, i32 -2, i32 -3, i32 -1, i32 0, i32 -2, i32 -3, i32 -2, i32 1, i32 2, i32 -1, i32 5, i32 0, i32 -2, i32 -1, i32 -1, i32 -1, i32 -1, i32 1, i32 -3, i32 -1, i32 -1, i32 -4], [24 x i32] [i32 -2, i32 -3, i32 -3, i32 -3, i32 -2, i32 -3, i32 -3, i32 -3, i32 -1, i32 0, i32 0, i32 -3, i32 0, i32 6, i32 -4, i32 -2, i32 -2, i32 1, i32 3, i32 -1, i32 -3, i32 -3, i32 -1, i32 -4], [24 x i32] [i32 -1, i32 -2, i32 -2, i32 -1, i32 -3, i32 -1, i32 -1, i32 -2, i32 -2, i32 -3, i32 -3, i32 -1, i32 -2, i32 -4, i32 7, i32 -1, i32 -1, i32 -4, i32 -3, i32 -2, i32 -2, i32 -1, i32 -2, i32 -4], [24 x i32] [i32 1, i32 -1, i32 1, i32 0, i32 -1, i32 0, i32 0, i32 0, i32 -1, i32 -2, i32 -2, i32 0, i32 -1, i32 -2, i32 -1, i32 4, i32 1, i32 -3, i32 -2, i32 -2, i32 0, i32 0, i32 0, i32 -4], [24 x i32] [i32 0, i32 -1, i32 0, i32 -1, i32 -1, i32 -1, i32 -1, i32 -2, i32 -2, i32 -1, i32 -1, i32 -1, i32 -1, i32 -2, i32 -1, i32 1, i32 5, i32 -2, i32 -2, i32 0, i32 -1, i32 -1, i32 0, i32 -4], [24 x i32] [i32 -3, i32 -3, i32 -4, i32 -4, i32 -2, i32 -2, i32 -3, i32 -2, i32 -2, i32 -3, i32 -2, i32 -3, i32 -1, i32 1, i32 -4, i32 -3, i32 -2, i32 11, i32 2, i32 -3, i32 -4, i32 -3, i32 -2, i32 -4], [24 x i32] [i32 -2, i32 -2, i32 -2, i32 -3, i32 -2, i32 -1, i32 -2, i32 -3, i32 2, i32 -1, i32 -1, i32 -2, i32 -1, i32 3, i32 -3, i32 -2, i32 -2, i32 2, i32 7, i32 -1, i32 -3, i32 -2, i32 -1, i32 -4], [24 x i32] [i32 0, i32 -3, i32 -3, i32 -3, i32 -1, i32 -2, i32 -2, i32 -3, i32 -3, i32 3, i32 1, i32 -2, i32 1, i32 -1, i32 -2, i32 -2, i32 0, i32 -3, i32 -1, i32 4, i32 -3, i32 -2, i32 -1, i32 -4], [24 x i32] [i32 -2, i32 -1, i32 3, i32 4, i32 -3, i32 0, i32 1, i32 -1, i32 0, i32 -3, i32 -4, i32 0, i32 -3, i32 -3, i32 -2, i32 0, i32 -1, i32 -4, i32 -3, i32 -3, i32 4, i32 1, i32 -1, i32 -4], [24 x i32] [i32 -1, i32 0, i32 0, i32 1, i32 -3, i32 3, i32 4, i32 -2, i32 0, i32 -3, i32 -3, i32 1, i32 -1, i32 -3, i32 -1, i32 0, i32 -1, i32 -3, i32 -2, i32 -2, i32 1, i32 4, i32 -1, i32 -4], [24 x i32] [i32 0, i32 -1, i32 -1, i32 -1, i32 -2, i32 -1, i32 -1, i32 -1, i32 -1, i32 -1, i32 -1, i32 -1, i32 -1, i32 -1, i32 -2, i32 0, i32 0, i32 -2, i32 -1, i32 -1, i32 -1, i32 -1, i32 -1, i32 -4], [24 x i32] [i32 -4, i32 -4, i32 -4, i32 -4, i32 -4, i32 -4, i32 -4, i32 -4, i32 -4, i32 -4, i32 -4, i32 -4, i32 -4, i32 -4, i32 -4, i32 -4, i32 -4, i32 -4, i32 -4, i32 -4, i32 -4, i32 -4, i32 -4, i32 1]], align 16
@stderr = external global %struct._IO_FILE*
@.str = private unnamed_addr constant [55 x i8] c"Usage: %s <max_rows/max_cols> <penalty> <num_threads>\0A\00", align 1
@.str1 = private unnamed_addr constant [40 x i8] c"\09<dimension>      - x and y dimensions\0A\00", align 1
@.str2 = private unnamed_addr constant [47 x i8] c"\09<penalty>        - penalty(positive integer)\0A\00", align 1
@.str3 = private unnamed_addr constant [36 x i8] c"\09<num_threads>    - no. of threads\0A\00", align 1
@.str4 = private unnamed_addr constant [32 x i8] c"Processing bottom-right matrix\0A\00", align 1
@.str5 = private unnamed_addr constant [31 x i8] c"error: can not allocate memory\00", align 1
@.str6 = private unnamed_addr constant [24 x i8] c"Start Needleman-Wunsch\0A\00", align 1
@.str7 = private unnamed_addr constant [20 x i8] c"Num of threads: %d\0A\00", align 1
@.str8 = private unnamed_addr constant [28 x i8] c"Processing top-left matrix\0A\00", align 1
@.str9 = private unnamed_addr constant [26 x i8] c"Total time: %.3f seconds\0A\00", align 1
@.str10 = private unnamed_addr constant [11 x i8] c"result.txt\00", align 1
@.str11 = private unnamed_addr constant [2 x i8] c"w\00", align 1
@.str12 = private unnamed_addr constant [28 x i8] c"print traceback value GPU:\0A\00", align 1
@.str13 = private unnamed_addr constant [4 x i8] c"%d \00", align 1
@fadd_namestr = internal constant [5 x i8] c"fadd\00"
@load_namestr = internal constant [5 x i8] c"load\00"
@getelementptr_namestr = internal constant [14 x i8] c"getelementptr\00"
@mul_namestr = internal constant [4 x i8] c"mul\00"
@add_namestr = internal constant [4 x i8] c"add\00"
@icmp_namestr = internal constant [5 x i8] c"icmp\00"
@sitofp_namestr = internal constant [7 x i8] c"sitofp\00"
@fmul_namestr = internal constant [5 x i8] c"fmul\00"
@sext_namestr = internal constant [5 x i8] c"sext\00"
@bitcast_namestr = internal constant [8 x i8] c"bitcast\00"
@sub_namestr = internal constant [4 x i8] c"sub\00"
@fdiv_namestr = internal constant [5 x i8] c"fdiv\00"
@fpext_namestr = internal constant [6 x i8] c"fpext\00"
@sdiv_namestr = internal constant [5 x i8] c"sdiv\00"

; Function Attrs: nounwind uwtable
define i64 @_Z8get_timev() #0 {
  %tv = alloca %struct.timeval, align 8, !llfi_index !1
  %1 = call i32 @gettimeofday(%struct.timeval* %tv, %struct.timezone* null) #6, !llfi_index !2
  %2 = getelementptr %struct.timeval* %tv, i32 0, i32 0, !llfi_index !3
  %fi1 = call i64* @injectFault3(i64 3, i64* %2, i32 29, i32 0, i32 1, i32 0, i8* getelementptr inbounds ([14 x i8]* @getelementptr_namestr, i32 0, i32 0)), !llfi_injectfault !4
  %3 = load i64* %fi1, align 8, !llfi_index !5
  %fi = call i64 @injectFault2(i64 4, i64 %3, i32 27, i32 0, i32 1, i32 0, i8* getelementptr inbounds ([5 x i8]* @load_namestr, i32 0, i32 0)), !llfi_injectfault !4
  %4 = mul nsw i64 %fi, 1000000, !llfi_index !6
  %fi2 = call i64 @injectFault2(i64 5, i64 %4, i32 12, i32 0, i32 1, i32 0, i8* getelementptr inbounds ([4 x i8]* @mul_namestr, i32 0, i32 0)), !llfi_injectfault !4
  %5 = getelementptr %struct.timeval* %tv, i32 0, i32 1, !llfi_index !7
  %fi3 = call i64* @injectFault3(i64 6, i64* %5, i32 29, i32 0, i32 1, i32 0, i8* getelementptr inbounds ([14 x i8]* @getelementptr_namestr, i32 0, i32 0)), !llfi_injectfault !4
  %6 = load i64* %fi3, align 8, !llfi_index !8
  %fi4 = call i64 @injectFault2(i64 7, i64 %6, i32 27, i32 0, i32 1, i32 0, i8* getelementptr inbounds ([5 x i8]* @load_namestr, i32 0, i32 0)), !llfi_injectfault !4
  %7 = add nsw i64 %fi2, %fi4, !llfi_index !9
  %fi5 = call i64 @injectFault2(i64 8, i64 %7, i32 8, i32 0, i32 1, i32 0, i8* getelementptr inbounds ([4 x i8]* @add_namestr, i32 0, i32 0)), !llfi_injectfault !4
  ret i64 %fi5, !llfi_index !10
}

; Function Attrs: nounwind
declare i32 @gettimeofday(%struct.timeval*, %struct.timezone*) #1

; Function Attrs: nounwind uwtable
define i32 @_Z7maximumiii(i32 %a, i32 %b, i32 %c) #0 {
  %1 = alloca i32, align 4, !llfi_index !11
  %2 = alloca i32, align 4, !llfi_index !12
  %3 = alloca i32, align 4, !llfi_index !13
  %4 = alloca i32, align 4, !llfi_index !14
  %k = alloca i32, align 4, !llfi_index !15
  store i32 %a, i32* %2, align 4, !llfi_index !16
  store i32 %b, i32* %3, align 4, !llfi_index !17
  store i32 %c, i32* %4, align 4, !llfi_index !18
  %5 = load i32* %2, align 4, !llfi_index !19
  %fi = call i32 @injectFault1(i64 18, i32 %5, i32 27, i32 0, i32 1, i32 0, i8* getelementptr inbounds ([5 x i8]* @load_namestr, i32 0, i32 0)), !llfi_injectfault !4
  %6 = load i32* %3, align 4, !llfi_index !20
  %fi1 = call i32 @injectFault1(i64 19, i32 %6, i32 27, i32 0, i32 1, i32 0, i8* getelementptr inbounds ([5 x i8]* @load_namestr, i32 0, i32 0)), !llfi_injectfault !4
  %7 = icmp sle i32 %fi, %fi1, !llfi_index !21
  %fi2 = call i1 @injectFault4(i64 20, i1 %7, i32 46, i32 0, i32 1, i32 0, i8* getelementptr inbounds ([5 x i8]* @icmp_namestr, i32 0, i32 0)), !llfi_injectfault !4
  br i1 %fi2, label %8, label %10, !llfi_index !22

; <label>:8                                       ; preds = %0
  %9 = load i32* %3, align 4, !llfi_index !23
  %fi4 = call i32 @injectFault1(i64 22, i32 %9, i32 27, i32 0, i32 1, i32 0, i8* getelementptr inbounds ([5 x i8]* @load_namestr, i32 0, i32 0)), !llfi_injectfault !4
  store i32 %fi4, i32* %k, align 4, !llfi_index !24
  br label %12, !llfi_index !25

; <label>:10                                      ; preds = %0
  %11 = load i32* %2, align 4, !llfi_index !26
  %fi5 = call i32 @injectFault1(i64 25, i32 %11, i32 27, i32 0, i32 1, i32 0, i8* getelementptr inbounds ([5 x i8]* @load_namestr, i32 0, i32 0)), !llfi_injectfault !4
  store i32 %fi5, i32* %k, align 4, !llfi_index !27
  br label %12, !llfi_index !28

; <label>:12                                      ; preds = %10, %8
  %13 = load i32* %k, align 4, !llfi_index !29
  %fi6 = call i32 @injectFault1(i64 28, i32 %13, i32 27, i32 0, i32 1, i32 0, i8* getelementptr inbounds ([5 x i8]* @load_namestr, i32 0, i32 0)), !llfi_injectfault !4
  %14 = load i32* %4, align 4, !llfi_index !30
  %fi7 = call i32 @injectFault1(i64 29, i32 %14, i32 27, i32 0, i32 1, i32 0, i8* getelementptr inbounds ([5 x i8]* @load_namestr, i32 0, i32 0)), !llfi_injectfault !4
  %15 = icmp sle i32 %fi6, %fi7, !llfi_index !31
  %fi8 = call i1 @injectFault4(i64 30, i1 %15, i32 46, i32 0, i32 1, i32 0, i8* getelementptr inbounds ([5 x i8]* @icmp_namestr, i32 0, i32 0)), !llfi_injectfault !4
  br i1 %fi8, label %16, label %18, !llfi_index !32

; <label>:16                                      ; preds = %12
  %17 = load i32* %4, align 4, !llfi_index !33
  %fi3 = call i32 @injectFault1(i64 32, i32 %17, i32 27, i32 0, i32 1, i32 0, i8* getelementptr inbounds ([5 x i8]* @load_namestr, i32 0, i32 0)), !llfi_injectfault !4
  store i32 %fi3, i32* %1, !llfi_index !34
  br label %20, !llfi_index !35

; <label>:18                                      ; preds = %12
  %19 = load i32* %k, align 4, !llfi_index !36
  %fi9 = call i32 @injectFault1(i64 35, i32 %19, i32 27, i32 0, i32 1, i32 0, i8* getelementptr inbounds ([5 x i8]* @load_namestr, i32 0, i32 0)), !llfi_injectfault !4
  store i32 %fi9, i32* %1, !llfi_index !37
  br label %20, !llfi_index !38

; <label>:20                                      ; preds = %18, %16
  %21 = load i32* %1, !llfi_index !39
  %fi10 = call i32 @injectFault1(i64 38, i32 %21, i32 27, i32 0, i32 1, i32 0, i8* getelementptr inbounds ([5 x i8]* @load_namestr, i32 0, i32 0)), !llfi_injectfault !4
  ret i32 %fi10, !llfi_index !40
}

; Function Attrs: nounwind uwtable
define double @_Z7gettimev() #0 {
  %t = alloca %struct.timeval, align 8, !llfi_index !41
  %1 = call i32 @gettimeofday(%struct.timeval* %t, %struct.timezone* null) #6, !llfi_index !42
  %2 = getelementptr %struct.timeval* %t, i32 0, i32 0, !llfi_index !43
  %fi1 = call i64* @injectFault3(i64 42, i64* %2, i32 29, i32 0, i32 1, i32 0, i8* getelementptr inbounds ([14 x i8]* @getelementptr_namestr, i32 0, i32 0)), !llfi_injectfault !4
  %3 = load i64* %fi1, align 8, !llfi_index !44
  %fi2 = call i64 @injectFault2(i64 43, i64 %3, i32 27, i32 0, i32 1, i32 0, i8* getelementptr inbounds ([5 x i8]* @load_namestr, i32 0, i32 0)), !llfi_injectfault !4
  %4 = sitofp i64 %fi2 to double, !llfi_index !45
  %fi3 = call double @injectFault0(i64 44, double %4, i32 39, i32 0, i32 1, i32 0, i8* getelementptr inbounds ([7 x i8]* @sitofp_namestr, i32 0, i32 0)), !llfi_injectfault !4
  %5 = getelementptr %struct.timeval* %t, i32 0, i32 1, !llfi_index !46
  %fi4 = call i64* @injectFault3(i64 45, i64* %5, i32 29, i32 0, i32 1, i32 0, i8* getelementptr inbounds ([14 x i8]* @getelementptr_namestr, i32 0, i32 0)), !llfi_injectfault !4
  %6 = load i64* %fi4, align 8, !llfi_index !47
  %fi5 = call i64 @injectFault2(i64 46, i64 %6, i32 27, i32 0, i32 1, i32 0, i8* getelementptr inbounds ([5 x i8]* @load_namestr, i32 0, i32 0)), !llfi_injectfault !4
  %7 = sitofp i64 %fi5 to double, !llfi_index !48
  %fi6 = call double @injectFault0(i64 47, double %7, i32 39, i32 0, i32 1, i32 0, i8* getelementptr inbounds ([7 x i8]* @sitofp_namestr, i32 0, i32 0)), !llfi_injectfault !4
  %8 = fmul double %fi6, 1.000000e-06, !llfi_index !49
  %fi7 = call double @injectFault0(i64 48, double %8, i32 13, i32 0, i32 1, i32 0, i8* getelementptr inbounds ([5 x i8]* @fmul_namestr, i32 0, i32 0)), !llfi_injectfault !4
  %9 = fadd double %fi3, %fi7, !llfi_index !50
  %fi = call double @injectFault0(i64 49, double %9, i32 9, i32 0, i32 1, i32 0, i8* getelementptr inbounds ([5 x i8]* @fadd_namestr, i32 0, i32 0)), !llfi_injectfault !4
  ret double %fi, !llfi_index !51
}

; Function Attrs: uwtable
define i32 @main(i32 %argc, i8** %argv) #2 {
  call void @initInjections()
  %1 = alloca i32, align 4, !llfi_index !52
  %2 = alloca i32, align 4, !llfi_index !53
  %3 = alloca i8**, align 8, !llfi_index !54
  store i32 0, i32* %1, !llfi_index !55
  store i32 %argc, i32* %2, align 4, !llfi_index !56
  store i8** %argv, i8*** %3, align 8, !llfi_index !57
  %4 = load i32* %2, align 4, !llfi_index !58
  %fi = call i32 @injectFault1(i64 57, i32 %4, i32 27, i32 0, i32 1, i32 0, i8* getelementptr inbounds ([5 x i8]* @load_namestr, i32 0, i32 0)), !llfi_injectfault !4
  %5 = load i8*** %3, align 8, !llfi_index !59
  %fi1 = call i8** @injectFault6(i64 58, i8** %5, i32 27, i32 0, i32 1, i32 0, i8* getelementptr inbounds ([5 x i8]* @load_namestr, i32 0, i32 0)), !llfi_injectfault !4
  call void @_Z7runTestiPPc(i32 %fi, i8** %fi1), !llfi_index !60
  call void @postInjections()
  ret i32 0, !llfi_index !61
}

; Function Attrs: uwtable
define void @_Z7runTestiPPc(i32 %argc, i8** %argv) #2 {
  %1 = alloca i32, align 4, !llfi_index !62
  %2 = alloca i8**, align 8, !llfi_index !63
  %max_rows = alloca i32, align 4, !llfi_index !64
  %max_cols = alloca i32, align 4, !llfi_index !65
  %penalty = alloca i32, align 4, !llfi_index !66
  %input_itemsets = alloca i32*, align 8, !llfi_index !67
  %output_itemsets = alloca i32*, align 8, !llfi_index !68
  %referrence = alloca i32*, align 8, !llfi_index !69
  %omp_num_threads = alloca i32, align 4, !llfi_index !70
  %i = alloca i32, align 4, !llfi_index !71
  %j = alloca i32, align 4, !llfi_index !72
  %i1 = alloca i32, align 4, !llfi_index !73
  %j2 = alloca i32, align 4, !llfi_index !74
  %i3 = alloca i32, align 4, !llfi_index !75
  %j4 = alloca i32, align 4, !llfi_index !76
  %i5 = alloca i32, align 4, !llfi_index !77
  %j6 = alloca i32, align 4, !llfi_index !78
  %start_time = alloca i64, align 8, !llfi_index !79
  %end_time = alloca i64, align 8, !llfi_index !80
  %fpo = alloca %struct._IO_FILE*, align 8, !llfi_index !81
  %i7 = alloca i32, align 4, !llfi_index !82
  %j8 = alloca i32, align 4, !llfi_index !83
  %nw = alloca i32, align 4, !llfi_index !84
  %n = alloca i32, align 4, !llfi_index !85
  %w = alloca i32, align 4, !llfi_index !86
  %traceback = alloca i32, align 4, !llfi_index !87
  %new_nw = alloca i32, align 4, !llfi_index !88
  %new_w = alloca i32, align 4, !llfi_index !89
  %new_n = alloca i32, align 4, !llfi_index !90
  store i32 %argc, i32* %1, align 4, !llfi_index !91
  store i8** %argv, i8*** %2, align 8, !llfi_index !92
  %3 = load i32* %1, align 4, !llfi_index !93
  %fi11 = call i32 @injectFault1(i64 92, i32 %3, i32 27, i32 0, i32 1, i32 0, i8* getelementptr inbounds ([5 x i8]* @load_namestr, i32 0, i32 0)), !llfi_injectfault !4
  %4 = icmp eq i32 %fi11, 4, !llfi_index !94
  %fi12 = call i1 @injectFault4(i64 93, i1 %4, i32 46, i32 0, i32 1, i32 0, i8* getelementptr inbounds ([5 x i8]* @icmp_namestr, i32 0, i32 0)), !llfi_injectfault !4
  br i1 %fi12, label %5, label %22, !llfi_index !95

; <label>:5                                       ; preds = %0
  %6 = load i8*** %2, align 8, !llfi_index !96
  %fi13 = call i8** @injectFault6(i64 95, i8** %6, i32 27, i32 0, i32 1, i32 0, i8* getelementptr inbounds ([5 x i8]* @load_namestr, i32 0, i32 0)), !llfi_injectfault !4
  %7 = getelementptr i8** %fi13, i64 1, !llfi_index !97
  %fi14 = call i8** @injectFault6(i64 96, i8** %7, i32 29, i32 0, i32 1, i32 0, i8* getelementptr inbounds ([14 x i8]* @getelementptr_namestr, i32 0, i32 0)), !llfi_injectfault !4
  %8 = load i8** %fi14, align 8, !llfi_index !98
  %fi = call i8* @injectFault5(i64 97, i8* %8, i32 27, i32 0, i32 1, i32 0, i8* getelementptr inbounds ([5 x i8]* @load_namestr, i32 0, i32 0)), !llfi_injectfault !4
  %9 = call i32 @atoi(i8* %fi) #7, !llfi_index !99
  store i32 %9, i32* %max_rows, align 4, !llfi_index !100
  %10 = load i8*** %2, align 8, !llfi_index !101
  %fi1 = call i8** @injectFault6(i64 100, i8** %10, i32 27, i32 0, i32 1, i32 0, i8* getelementptr inbounds ([5 x i8]* @load_namestr, i32 0, i32 0)), !llfi_injectfault !4
  %11 = getelementptr i8** %fi1, i64 1, !llfi_index !102
  %fi2 = call i8** @injectFault6(i64 101, i8** %11, i32 29, i32 0, i32 1, i32 0, i8* getelementptr inbounds ([14 x i8]* @getelementptr_namestr, i32 0, i32 0)), !llfi_injectfault !4
  %12 = load i8** %fi2, align 8, !llfi_index !103
  %fi3 = call i8* @injectFault5(i64 102, i8* %12, i32 27, i32 0, i32 1, i32 0, i8* getelementptr inbounds ([5 x i8]* @load_namestr, i32 0, i32 0)), !llfi_injectfault !4
  %13 = call i32 @atoi(i8* %fi3) #7, !llfi_index !104
  store i32 %13, i32* %max_cols, align 4, !llfi_index !105
  %14 = load i8*** %2, align 8, !llfi_index !106
  %fi4 = call i8** @injectFault6(i64 105, i8** %14, i32 27, i32 0, i32 1, i32 0, i8* getelementptr inbounds ([5 x i8]* @load_namestr, i32 0, i32 0)), !llfi_injectfault !4
  %15 = getelementptr i8** %fi4, i64 2, !llfi_index !107
  %fi5 = call i8** @injectFault6(i64 106, i8** %15, i32 29, i32 0, i32 1, i32 0, i8* getelementptr inbounds ([14 x i8]* @getelementptr_namestr, i32 0, i32 0)), !llfi_injectfault !4
  %16 = load i8** %fi5, align 8, !llfi_index !108
  %fi6 = call i8* @injectFault5(i64 107, i8* %16, i32 27, i32 0, i32 1, i32 0, i8* getelementptr inbounds ([5 x i8]* @load_namestr, i32 0, i32 0)), !llfi_injectfault !4
  %17 = call i32 @atoi(i8* %fi6) #7, !llfi_index !109
  store i32 %17, i32* %penalty, align 4, !llfi_index !110
  %18 = load i8*** %2, align 8, !llfi_index !111
  %fi8 = call i8** @injectFault6(i64 110, i8** %18, i32 27, i32 0, i32 1, i32 0, i8* getelementptr inbounds ([5 x i8]* @load_namestr, i32 0, i32 0)), !llfi_injectfault !4
  %19 = getelementptr i8** %fi8, i64 3, !llfi_index !112
  %fi9 = call i8** @injectFault6(i64 111, i8** %19, i32 29, i32 0, i32 1, i32 0, i8* getelementptr inbounds ([14 x i8]* @getelementptr_namestr, i32 0, i32 0)), !llfi_injectfault !4
  %20 = load i8** %fi9, align 8, !llfi_index !113
  %fi10 = call i8* @injectFault5(i64 112, i8* %20, i32 27, i32 0, i32 1, i32 0, i8* getelementptr inbounds ([5 x i8]* @load_namestr, i32 0, i32 0)), !llfi_injectfault !4
  %21 = call i32 @atoi(i8* %fi10) #7, !llfi_index !114
  store i32 %21, i32* %omp_num_threads, align 4, !llfi_index !115
  br label %25, !llfi_index !116

; <label>:22                                      ; preds = %0
  %23 = load i32* %1, align 4, !llfi_index !117
  %fi38 = call i32 @injectFault1(i64 116, i32 %23, i32 27, i32 0, i32 1, i32 0, i8* getelementptr inbounds ([5 x i8]* @load_namestr, i32 0, i32 0)), !llfi_injectfault !4
  %24 = load i8*** %2, align 8, !llfi_index !118
  %fi39 = call i8** @injectFault6(i64 117, i8** %24, i32 27, i32 0, i32 1, i32 0, i8* getelementptr inbounds ([5 x i8]* @load_namestr, i32 0, i32 0)), !llfi_injectfault !4
  call void @_Z5usageiPPc(i32 %fi38, i8** %fi39), !llfi_index !119
  br label %25, !llfi_index !120

; <label>:25                                      ; preds = %22, %5
  %26 = load i32* %max_rows, align 4, !llfi_index !121
  %fi40 = call i32 @injectFault1(i64 120, i32 %26, i32 27, i32 0, i32 1, i32 0, i8* getelementptr inbounds ([5 x i8]* @load_namestr, i32 0, i32 0)), !llfi_injectfault !4
  %27 = add nsw i32 %fi40, 1, !llfi_index !122
  %fi41 = call i32 @injectFault1(i64 121, i32 %27, i32 8, i32 0, i32 1, i32 0, i8* getelementptr inbounds ([4 x i8]* @add_namestr, i32 0, i32 0)), !llfi_injectfault !4
  store i32 %fi41, i32* %max_rows, align 4, !llfi_index !123
  %28 = load i32* %max_cols, align 4, !llfi_index !124
  %fi42 = call i32 @injectFault1(i64 123, i32 %28, i32 27, i32 0, i32 1, i32 0, i8* getelementptr inbounds ([5 x i8]* @load_namestr, i32 0, i32 0)), !llfi_injectfault !4
  %29 = add nsw i32 %fi42, 1, !llfi_index !125
  %fi43 = call i32 @injectFault1(i64 124, i32 %29, i32 8, i32 0, i32 1, i32 0, i8* getelementptr inbounds ([4 x i8]* @add_namestr, i32 0, i32 0)), !llfi_injectfault !4
  store i32 %fi43, i32* %max_cols, align 4, !llfi_index !126
  %30 = load i32* %max_rows, align 4, !llfi_index !127
  %fi44 = call i32 @injectFault1(i64 126, i32 %30, i32 27, i32 0, i32 1, i32 0, i8* getelementptr inbounds ([5 x i8]* @load_namestr, i32 0, i32 0)), !llfi_injectfault !4
  %31 = load i32* %max_cols, align 4, !llfi_index !128
  %fi45 = call i32 @injectFault1(i64 127, i32 %31, i32 27, i32 0, i32 1, i32 0, i8* getelementptr inbounds ([5 x i8]* @load_namestr, i32 0, i32 0)), !llfi_injectfault !4
  %32 = mul nsw i32 %fi44, %fi45, !llfi_index !129
  %fi46 = call i32 @injectFault1(i64 128, i32 %32, i32 12, i32 0, i32 1, i32 0, i8* getelementptr inbounds ([4 x i8]* @mul_namestr, i32 0, i32 0)), !llfi_injectfault !4
  %33 = sext i32 %fi46 to i64, !llfi_index !130
  %fi7 = call i64 @injectFault2(i64 129, i64 %33, i32 35, i32 0, i32 1, i32 0, i8* getelementptr inbounds ([5 x i8]* @sext_namestr, i32 0, i32 0)), !llfi_injectfault !4
  %34 = mul i64 %fi7, 4, !llfi_index !131
  %fi48 = call i64 @injectFault2(i64 130, i64 %34, i32 12, i32 0, i32 1, i32 0, i8* getelementptr inbounds ([4 x i8]* @mul_namestr, i32 0, i32 0)), !llfi_injectfault !4
  %35 = call noalias i8* @malloc(i64 %fi48) #6, !llfi_index !132
  %36 = bitcast i8* %35 to i32*, !llfi_index !133
  %fi49 = call i32* @injectFault7(i64 132, i32* %36, i32 44, i32 0, i32 1, i32 0, i8* getelementptr inbounds ([8 x i8]* @bitcast_namestr, i32 0, i32 0)), !llfi_injectfault !4
  store i32* %fi49, i32** %referrence, align 8, !llfi_index !134
  %37 = load i32* %max_rows, align 4, !llfi_index !135
  %fi50 = call i32 @injectFault1(i64 134, i32 %37, i32 27, i32 0, i32 1, i32 0, i8* getelementptr inbounds ([5 x i8]* @load_namestr, i32 0, i32 0)), !llfi_injectfault !4
  %38 = load i32* %max_cols, align 4, !llfi_index !136
  %fi51 = call i32 @injectFault1(i64 135, i32 %38, i32 27, i32 0, i32 1, i32 0, i8* getelementptr inbounds ([5 x i8]* @load_namestr, i32 0, i32 0)), !llfi_injectfault !4
  %39 = mul nsw i32 %fi50, %fi51, !llfi_index !137
  %fi52 = call i32 @injectFault1(i64 136, i32 %39, i32 12, i32 0, i32 1, i32 0, i8* getelementptr inbounds ([4 x i8]* @mul_namestr, i32 0, i32 0)), !llfi_injectfault !4
  %40 = sext i32 %fi52 to i64, !llfi_index !138
  %fi53 = call i64 @injectFault2(i64 137, i64 %40, i32 35, i32 0, i32 1, i32 0, i8* getelementptr inbounds ([5 x i8]* @sext_namestr, i32 0, i32 0)), !llfi_injectfault !4
  %41 = mul i64 %fi53, 4, !llfi_index !139
  %fi54 = call i64 @injectFault2(i64 138, i64 %41, i32 12, i32 0, i32 1, i32 0, i8* getelementptr inbounds ([4 x i8]* @mul_namestr, i32 0, i32 0)), !llfi_injectfault !4
  %42 = call noalias i8* @malloc(i64 %fi54) #6, !llfi_index !140
  %43 = bitcast i8* %42 to i32*, !llfi_index !141
  %fi55 = call i32* @injectFault7(i64 140, i32* %43, i32 44, i32 0, i32 1, i32 0, i8* getelementptr inbounds ([8 x i8]* @bitcast_namestr, i32 0, i32 0)), !llfi_injectfault !4
  store i32* %fi55, i32** %input_itemsets, align 8, !llfi_index !142
  %44 = load i32* %max_rows, align 4, !llfi_index !143
  %fi56 = call i32 @injectFault1(i64 142, i32 %44, i32 27, i32 0, i32 1, i32 0, i8* getelementptr inbounds ([5 x i8]* @load_namestr, i32 0, i32 0)), !llfi_injectfault !4
  %45 = load i32* %max_cols, align 4, !llfi_index !144
  %fi57 = call i32 @injectFault1(i64 143, i32 %45, i32 27, i32 0, i32 1, i32 0, i8* getelementptr inbounds ([5 x i8]* @load_namestr, i32 0, i32 0)), !llfi_injectfault !4
  %46 = mul nsw i32 %fi56, %fi57, !llfi_index !145
  %fi58 = call i32 @injectFault1(i64 144, i32 %46, i32 12, i32 0, i32 1, i32 0, i8* getelementptr inbounds ([4 x i8]* @mul_namestr, i32 0, i32 0)), !llfi_injectfault !4
  %47 = sext i32 %fi58 to i64, !llfi_index !146
  %fi59 = call i64 @injectFault2(i64 145, i64 %47, i32 35, i32 0, i32 1, i32 0, i8* getelementptr inbounds ([5 x i8]* @sext_namestr, i32 0, i32 0)), !llfi_injectfault !4
  %48 = mul i64 %fi59, 4, !llfi_index !147
  %fi60 = call i64 @injectFault2(i64 146, i64 %48, i32 12, i32 0, i32 1, i32 0, i8* getelementptr inbounds ([4 x i8]* @mul_namestr, i32 0, i32 0)), !llfi_injectfault !4
  %49 = call noalias i8* @malloc(i64 %fi60) #6, !llfi_index !148
  %50 = bitcast i8* %49 to i32*, !llfi_index !149
  %fi61 = call i32* @injectFault7(i64 148, i32* %50, i32 44, i32 0, i32 1, i32 0, i8* getelementptr inbounds ([8 x i8]* @bitcast_namestr, i32 0, i32 0)), !llfi_injectfault !4
  store i32* %fi61, i32** %output_itemsets, align 8, !llfi_index !150
  %51 = load i32** %input_itemsets, align 8, !llfi_index !151
  %fi62 = call i32* @injectFault7(i64 150, i32* %51, i32 27, i32 0, i32 1, i32 0, i8* getelementptr inbounds ([5 x i8]* @load_namestr, i32 0, i32 0)), !llfi_injectfault !4
  %52 = icmp ne i32* %fi62, null, !llfi_index !152
  %fi63 = call i1 @injectFault4(i64 151, i1 %52, i32 46, i32 0, i32 1, i32 0, i8* getelementptr inbounds ([5 x i8]* @icmp_namestr, i32 0, i32 0)), !llfi_injectfault !4
  br i1 %fi63, label %56, label %53, !llfi_index !153

; <label>:53                                      ; preds = %25
  %54 = load %struct._IO_FILE** @stderr, align 8, !llfi_index !154
  %fi64 = call %struct._IO_FILE* @injectFault8(i64 153, %struct._IO_FILE* %54, i32 27, i32 0, i32 1, i32 0, i8* getelementptr inbounds ([5 x i8]* @load_namestr, i32 0, i32 0)), !llfi_injectfault !4
  %55 = call i32 (%struct._IO_FILE*, i8*, ...)* @fprintf(%struct._IO_FILE* %fi64, i8* getelementptr inbounds ([31 x i8]* @.str5, i32 0, i32 0)), !llfi_index !155
  br label %56, !llfi_index !156

; <label>:56                                      ; preds = %53, %25
  store i32 0, i32* %i, align 4, !llfi_index !157
  br label %57, !llfi_index !158

; <label>:57                                      ; preds = %79, %56
  %58 = load i32* %i, align 4, !llfi_index !159
  %fi65 = call i32 @injectFault1(i64 158, i32 %58, i32 27, i32 0, i32 1, i32 0, i8* getelementptr inbounds ([5 x i8]* @load_namestr, i32 0, i32 0)), !llfi_injectfault !4
  %59 = load i32* %max_cols, align 4, !llfi_index !160
  %fi66 = call i32 @injectFault1(i64 159, i32 %59, i32 27, i32 0, i32 1, i32 0, i8* getelementptr inbounds ([5 x i8]* @load_namestr, i32 0, i32 0)), !llfi_injectfault !4
  %60 = icmp slt i32 %fi65, %fi66, !llfi_index !161
  %fi67 = call i1 @injectFault4(i64 160, i1 %60, i32 46, i32 0, i32 1, i32 0, i8* getelementptr inbounds ([5 x i8]* @icmp_namestr, i32 0, i32 0)), !llfi_injectfault !4
  br i1 %fi67, label %61, label %82, !llfi_index !162

; <label>:61                                      ; preds = %57
  store i32 0, i32* %j, align 4, !llfi_index !163
  br label %62, !llfi_index !164

; <label>:62                                      ; preds = %75, %61
  %63 = load i32* %j, align 4, !llfi_index !165
  %fi68 = call i32 @injectFault1(i64 164, i32 %63, i32 27, i32 0, i32 1, i32 0, i8* getelementptr inbounds ([5 x i8]* @load_namestr, i32 0, i32 0)), !llfi_injectfault !4
  %64 = load i32* %max_rows, align 4, !llfi_index !166
  %fi69 = call i32 @injectFault1(i64 165, i32 %64, i32 27, i32 0, i32 1, i32 0, i8* getelementptr inbounds ([5 x i8]* @load_namestr, i32 0, i32 0)), !llfi_injectfault !4
  %65 = icmp slt i32 %fi68, %fi69, !llfi_index !167
  %fi47 = call i1 @injectFault4(i64 166, i1 %65, i32 46, i32 0, i32 1, i32 0, i8* getelementptr inbounds ([5 x i8]* @icmp_namestr, i32 0, i32 0)), !llfi_injectfault !4
  br i1 %fi47, label %66, label %78, !llfi_index !168

; <label>:66                                      ; preds = %62
  %67 = load i32* %i, align 4, !llfi_index !169
  %fi76 = call i32 @injectFault1(i64 168, i32 %67, i32 27, i32 0, i32 1, i32 0, i8* getelementptr inbounds ([5 x i8]* @load_namestr, i32 0, i32 0)), !llfi_injectfault !4
  %68 = load i32* %max_cols, align 4, !llfi_index !170
  %fi77 = call i32 @injectFault1(i64 169, i32 %68, i32 27, i32 0, i32 1, i32 0, i8* getelementptr inbounds ([5 x i8]* @load_namestr, i32 0, i32 0)), !llfi_injectfault !4
  %69 = mul nsw i32 %fi76, %fi77, !llfi_index !171
  %fi78 = call i32 @injectFault1(i64 170, i32 %69, i32 12, i32 0, i32 1, i32 0, i8* getelementptr inbounds ([4 x i8]* @mul_namestr, i32 0, i32 0)), !llfi_injectfault !4
  %70 = load i32* %j, align 4, !llfi_index !172
  %fi79 = call i32 @injectFault1(i64 171, i32 %70, i32 27, i32 0, i32 1, i32 0, i8* getelementptr inbounds ([5 x i8]* @load_namestr, i32 0, i32 0)), !llfi_injectfault !4
  %71 = add nsw i32 %fi78, %fi79, !llfi_index !173
  %fi80 = call i32 @injectFault1(i64 172, i32 %71, i32 8, i32 0, i32 1, i32 0, i8* getelementptr inbounds ([4 x i8]* @add_namestr, i32 0, i32 0)), !llfi_injectfault !4
  %72 = sext i32 %fi80 to i64, !llfi_index !174
  %fi81 = call i64 @injectFault2(i64 173, i64 %72, i32 35, i32 0, i32 1, i32 0, i8* getelementptr inbounds ([5 x i8]* @sext_namestr, i32 0, i32 0)), !llfi_injectfault !4
  %73 = load i32** %input_itemsets, align 8, !llfi_index !175
  %fi82 = call i32* @injectFault7(i64 174, i32* %73, i32 27, i32 0, i32 1, i32 0, i8* getelementptr inbounds ([5 x i8]* @load_namestr, i32 0, i32 0)), !llfi_injectfault !4
  %74 = getelementptr i32* %fi82, i64 %fi81, !llfi_index !176
  %fi83 = call i32* @injectFault7(i64 175, i32* %74, i32 29, i32 0, i32 1, i32 0, i8* getelementptr inbounds ([14 x i8]* @getelementptr_namestr, i32 0, i32 0)), !llfi_injectfault !4
  store i32 0, i32* %fi83, align 4, !llfi_index !177
  br label %75, !llfi_index !178

; <label>:75                                      ; preds = %66
  %76 = load i32* %j, align 4, !llfi_index !179
  %fi84 = call i32 @injectFault1(i64 178, i32 %76, i32 27, i32 0, i32 1, i32 0, i8* getelementptr inbounds ([5 x i8]* @load_namestr, i32 0, i32 0)), !llfi_injectfault !4
  %77 = add nsw i32 %fi84, 1, !llfi_index !180
  %fi85 = call i32 @injectFault1(i64 179, i32 %77, i32 8, i32 0, i32 1, i32 0, i8* getelementptr inbounds ([4 x i8]* @add_namestr, i32 0, i32 0)), !llfi_injectfault !4
  store i32 %fi85, i32* %j, align 4, !llfi_index !181
  br label %62, !llfi_index !182

; <label>:78                                      ; preds = %62
  br label %79, !llfi_index !183

; <label>:79                                      ; preds = %78
  %80 = load i32* %i, align 4, !llfi_index !184
  %fi86 = call i32 @injectFault1(i64 183, i32 %80, i32 27, i32 0, i32 1, i32 0, i8* getelementptr inbounds ([5 x i8]* @load_namestr, i32 0, i32 0)), !llfi_injectfault !4
  %81 = add nsw i32 %fi86, 1, !llfi_index !185
  %fi87 = call i32 @injectFault1(i64 184, i32 %81, i32 8, i32 0, i32 1, i32 0, i8* getelementptr inbounds ([4 x i8]* @add_namestr, i32 0, i32 0)), !llfi_injectfault !4
  store i32 %fi87, i32* %i, align 4, !llfi_index !186
  br label %57, !llfi_index !187

; <label>:82                                      ; preds = %57
  %83 = call i32 (i8*, ...)* @printf(i8* getelementptr inbounds ([24 x i8]* @.str6, i32 0, i32 0)), !llfi_index !188
  store i32 1, i32* %i1, align 4, !llfi_index !189
  br label %84, !llfi_index !190

; <label>:84                                      ; preds = %95, %82
  %85 = load i32* %i1, align 4, !llfi_index !191
  %fi88 = call i32 @injectFault1(i64 190, i32 %85, i32 27, i32 0, i32 1, i32 0, i8* getelementptr inbounds ([5 x i8]* @load_namestr, i32 0, i32 0)), !llfi_injectfault !4
  %86 = load i32* %max_rows, align 4, !llfi_index !192
  %fi89 = call i32 @injectFault1(i64 191, i32 %86, i32 27, i32 0, i32 1, i32 0, i8* getelementptr inbounds ([5 x i8]* @load_namestr, i32 0, i32 0)), !llfi_injectfault !4
  %87 = icmp slt i32 %fi88, %fi89, !llfi_index !193
  %fi90 = call i1 @injectFault4(i64 192, i1 %87, i32 46, i32 0, i32 1, i32 0, i8* getelementptr inbounds ([5 x i8]* @icmp_namestr, i32 0, i32 0)), !llfi_injectfault !4
  br i1 %fi90, label %88, label %98, !llfi_index !194

; <label>:88                                      ; preds = %84
  %89 = load i32* %i1, align 4, !llfi_index !195
  %fi15 = call i32 @injectFault1(i64 194, i32 %89, i32 27, i32 0, i32 1, i32 0, i8* getelementptr inbounds ([5 x i8]* @load_namestr, i32 0, i32 0)), !llfi_injectfault !4
  %90 = load i32* %max_cols, align 4, !llfi_index !196
  %fi16 = call i32 @injectFault1(i64 195, i32 %90, i32 27, i32 0, i32 1, i32 0, i8* getelementptr inbounds ([5 x i8]* @load_namestr, i32 0, i32 0)), !llfi_injectfault !4
  %91 = mul nsw i32 %fi15, %fi16, !llfi_index !197
  %fi17 = call i32 @injectFault1(i64 196, i32 %91, i32 12, i32 0, i32 1, i32 0, i8* getelementptr inbounds ([4 x i8]* @mul_namestr, i32 0, i32 0)), !llfi_injectfault !4
  %92 = sext i32 %fi17 to i64, !llfi_index !198
  %fi18 = call i64 @injectFault2(i64 197, i64 %92, i32 35, i32 0, i32 1, i32 0, i8* getelementptr inbounds ([5 x i8]* @sext_namestr, i32 0, i32 0)), !llfi_injectfault !4
  %93 = load i32** %input_itemsets, align 8, !llfi_index !199
  %fi19 = call i32* @injectFault7(i64 198, i32* %93, i32 27, i32 0, i32 1, i32 0, i8* getelementptr inbounds ([5 x i8]* @load_namestr, i32 0, i32 0)), !llfi_injectfault !4
  %94 = getelementptr i32* %fi19, i64 %fi18, !llfi_index !200
  %fi20 = call i32* @injectFault7(i64 199, i32* %94, i32 29, i32 0, i32 1, i32 0, i8* getelementptr inbounds ([14 x i8]* @getelementptr_namestr, i32 0, i32 0)), !llfi_injectfault !4
  store i32 7, i32* %fi20, align 4, !llfi_index !201
  br label %95, !llfi_index !202

; <label>:95                                      ; preds = %88
  %96 = load i32* %i1, align 4, !llfi_index !203
  %fi21 = call i32 @injectFault1(i64 202, i32 %96, i32 27, i32 0, i32 1, i32 0, i8* getelementptr inbounds ([5 x i8]* @load_namestr, i32 0, i32 0)), !llfi_injectfault !4
  %97 = add nsw i32 %fi21, 1, !llfi_index !204
  %fi22 = call i32 @injectFault1(i64 203, i32 %97, i32 8, i32 0, i32 1, i32 0, i8* getelementptr inbounds ([4 x i8]* @add_namestr, i32 0, i32 0)), !llfi_injectfault !4
  store i32 %fi22, i32* %i1, align 4, !llfi_index !205
  br label %84, !llfi_index !206

; <label>:98                                      ; preds = %84
  store i32 1, i32* %j2, align 4, !llfi_index !207
  br label %99, !llfi_index !208

; <label>:99                                      ; preds = %108, %98
  %100 = load i32* %j2, align 4, !llfi_index !209
  %fi23 = call i32 @injectFault1(i64 208, i32 %100, i32 27, i32 0, i32 1, i32 0, i8* getelementptr inbounds ([5 x i8]* @load_namestr, i32 0, i32 0)), !llfi_injectfault !4
  %101 = load i32* %max_cols, align 4, !llfi_index !210
  %fi24 = call i32 @injectFault1(i64 209, i32 %101, i32 27, i32 0, i32 1, i32 0, i8* getelementptr inbounds ([5 x i8]* @load_namestr, i32 0, i32 0)), !llfi_injectfault !4
  %102 = icmp slt i32 %fi23, %fi24, !llfi_index !211
  %fi25 = call i1 @injectFault4(i64 210, i1 %102, i32 46, i32 0, i32 1, i32 0, i8* getelementptr inbounds ([5 x i8]* @icmp_namestr, i32 0, i32 0)), !llfi_injectfault !4
  br i1 %fi25, label %103, label %111, !llfi_index !212

; <label>:103                                     ; preds = %99
  %104 = load i32* %j2, align 4, !llfi_index !213
  %fi26 = call i32 @injectFault1(i64 212, i32 %104, i32 27, i32 0, i32 1, i32 0, i8* getelementptr inbounds ([5 x i8]* @load_namestr, i32 0, i32 0)), !llfi_injectfault !4
  %105 = sext i32 %fi26 to i64, !llfi_index !214
  %fi27 = call i64 @injectFault2(i64 213, i64 %105, i32 35, i32 0, i32 1, i32 0, i8* getelementptr inbounds ([5 x i8]* @sext_namestr, i32 0, i32 0)), !llfi_injectfault !4
  %106 = load i32** %input_itemsets, align 8, !llfi_index !215
  %fi28 = call i32* @injectFault7(i64 214, i32* %106, i32 27, i32 0, i32 1, i32 0, i8* getelementptr inbounds ([5 x i8]* @load_namestr, i32 0, i32 0)), !llfi_injectfault !4
  %107 = getelementptr i32* %fi28, i64 %fi27, !llfi_index !216
  %fi29 = call i32* @injectFault7(i64 215, i32* %107, i32 29, i32 0, i32 1, i32 0, i8* getelementptr inbounds ([14 x i8]* @getelementptr_namestr, i32 0, i32 0)), !llfi_injectfault !4
  store i32 5, i32* %fi29, align 4, !llfi_index !217
  br label %108, !llfi_index !218

; <label>:108                                     ; preds = %103
  %109 = load i32* %j2, align 4, !llfi_index !219
  %fi30 = call i32 @injectFault1(i64 218, i32 %109, i32 27, i32 0, i32 1, i32 0, i8* getelementptr inbounds ([5 x i8]* @load_namestr, i32 0, i32 0)), !llfi_injectfault !4
  %110 = add nsw i32 %fi30, 1, !llfi_index !220
  %fi31 = call i32 @injectFault1(i64 219, i32 %110, i32 8, i32 0, i32 1, i32 0, i8* getelementptr inbounds ([4 x i8]* @add_namestr, i32 0, i32 0)), !llfi_injectfault !4
  store i32 %fi31, i32* %j2, align 4, !llfi_index !221
  br label %99, !llfi_index !222

; <label>:111                                     ; preds = %99
  store i32 1, i32* %i3, align 4, !llfi_index !223
  br label %112, !llfi_index !224

; <label>:112                                     ; preds = %151, %111
  %113 = load i32* %i3, align 4, !llfi_index !225
  %fi32 = call i32 @injectFault1(i64 224, i32 %113, i32 27, i32 0, i32 1, i32 0, i8* getelementptr inbounds ([5 x i8]* @load_namestr, i32 0, i32 0)), !llfi_injectfault !4
  %114 = load i32* %max_cols, align 4, !llfi_index !226
  %fi33 = call i32 @injectFault1(i64 225, i32 %114, i32 27, i32 0, i32 1, i32 0, i8* getelementptr inbounds ([5 x i8]* @load_namestr, i32 0, i32 0)), !llfi_injectfault !4
  %115 = icmp slt i32 %fi32, %fi33, !llfi_index !227
  %fi34 = call i1 @injectFault4(i64 226, i1 %115, i32 46, i32 0, i32 1, i32 0, i8* getelementptr inbounds ([5 x i8]* @icmp_namestr, i32 0, i32 0)), !llfi_injectfault !4
  br i1 %fi34, label %116, label %154, !llfi_index !228

; <label>:116                                     ; preds = %112
  store i32 1, i32* %j4, align 4, !llfi_index !229
  br label %117, !llfi_index !230

; <label>:117                                     ; preds = %147, %116
  %118 = load i32* %j4, align 4, !llfi_index !231
  %fi35 = call i32 @injectFault1(i64 230, i32 %118, i32 27, i32 0, i32 1, i32 0, i8* getelementptr inbounds ([5 x i8]* @load_namestr, i32 0, i32 0)), !llfi_injectfault !4
  %119 = load i32* %max_rows, align 4, !llfi_index !232
  %fi36 = call i32 @injectFault1(i64 231, i32 %119, i32 27, i32 0, i32 1, i32 0, i8* getelementptr inbounds ([5 x i8]* @load_namestr, i32 0, i32 0)), !llfi_injectfault !4
  %120 = icmp slt i32 %fi35, %fi36, !llfi_index !233
  %fi37 = call i1 @injectFault4(i64 232, i1 %120, i32 46, i32 0, i32 1, i32 0, i8* getelementptr inbounds ([5 x i8]* @icmp_namestr, i32 0, i32 0)), !llfi_injectfault !4
  br i1 %fi37, label %121, label %150, !llfi_index !234

; <label>:121                                     ; preds = %117
  %122 = load i32* %j4, align 4, !llfi_index !235
  %fi158 = call i32 @injectFault1(i64 234, i32 %122, i32 27, i32 0, i32 1, i32 0, i8* getelementptr inbounds ([5 x i8]* @load_namestr, i32 0, i32 0)), !llfi_injectfault !4
  %123 = sext i32 %fi158 to i64, !llfi_index !236
  %fi159 = call i64 @injectFault2(i64 235, i64 %123, i32 35, i32 0, i32 1, i32 0, i8* getelementptr inbounds ([5 x i8]* @sext_namestr, i32 0, i32 0)), !llfi_injectfault !4
  %124 = load i32** %input_itemsets, align 8, !llfi_index !237
  %fi160 = call i32* @injectFault7(i64 236, i32* %124, i32 27, i32 0, i32 1, i32 0, i8* getelementptr inbounds ([5 x i8]* @load_namestr, i32 0, i32 0)), !llfi_injectfault !4
  %125 = getelementptr i32* %fi160, i64 %fi159, !llfi_index !238
  %fi161 = call i32* @injectFault7(i64 237, i32* %125, i32 29, i32 0, i32 1, i32 0, i8* getelementptr inbounds ([14 x i8]* @getelementptr_namestr, i32 0, i32 0)), !llfi_injectfault !4
  %126 = load i32* %fi161, align 4, !llfi_index !239
  %fi162 = call i32 @injectFault1(i64 238, i32 %126, i32 27, i32 0, i32 1, i32 0, i8* getelementptr inbounds ([5 x i8]* @load_namestr, i32 0, i32 0)), !llfi_injectfault !4
  %127 = sext i32 %fi162 to i64, !llfi_index !240
  %fi163 = call i64 @injectFault2(i64 239, i64 %127, i32 35, i32 0, i32 1, i32 0, i8* getelementptr inbounds ([5 x i8]* @sext_namestr, i32 0, i32 0)), !llfi_injectfault !4
  %128 = load i32* %i3, align 4, !llfi_index !241
  %fi164 = call i32 @injectFault1(i64 240, i32 %128, i32 27, i32 0, i32 1, i32 0, i8* getelementptr inbounds ([5 x i8]* @load_namestr, i32 0, i32 0)), !llfi_injectfault !4
  %129 = load i32* %max_cols, align 4, !llfi_index !242
  %fi70 = call i32 @injectFault1(i64 241, i32 %129, i32 27, i32 0, i32 1, i32 0, i8* getelementptr inbounds ([5 x i8]* @load_namestr, i32 0, i32 0)), !llfi_injectfault !4
  %130 = mul nsw i32 %fi164, %fi70, !llfi_index !243
  %fi71 = call i32 @injectFault1(i64 242, i32 %130, i32 12, i32 0, i32 1, i32 0, i8* getelementptr inbounds ([4 x i8]* @mul_namestr, i32 0, i32 0)), !llfi_injectfault !4
  %131 = sext i32 %fi71 to i64, !llfi_index !244
  %fi72 = call i64 @injectFault2(i64 243, i64 %131, i32 35, i32 0, i32 1, i32 0, i8* getelementptr inbounds ([5 x i8]* @sext_namestr, i32 0, i32 0)), !llfi_injectfault !4
  %132 = load i32** %input_itemsets, align 8, !llfi_index !245
  %fi73 = call i32* @injectFault7(i64 244, i32* %132, i32 27, i32 0, i32 1, i32 0, i8* getelementptr inbounds ([5 x i8]* @load_namestr, i32 0, i32 0)), !llfi_injectfault !4
  %133 = getelementptr i32* %fi73, i64 %fi72, !llfi_index !246
  %fi74 = call i32* @injectFault7(i64 245, i32* %133, i32 29, i32 0, i32 1, i32 0, i8* getelementptr inbounds ([14 x i8]* @getelementptr_namestr, i32 0, i32 0)), !llfi_injectfault !4
  %134 = load i32* %fi74, align 4, !llfi_index !247
  %fi75 = call i32 @injectFault1(i64 246, i32 %134, i32 27, i32 0, i32 1, i32 0, i8* getelementptr inbounds ([5 x i8]* @load_namestr, i32 0, i32 0)), !llfi_injectfault !4
  %135 = sext i32 %fi75 to i64, !llfi_index !248
  %fi176 = call i64 @injectFault2(i64 247, i64 %135, i32 35, i32 0, i32 1, i32 0, i8* getelementptr inbounds ([5 x i8]* @sext_namestr, i32 0, i32 0)), !llfi_injectfault !4
  %136 = getelementptr [24 x [24 x i32]]* @blosum62, i32 0, i64 %fi176, !llfi_index !249
  %fi177 = call [24 x i32]* @injectFault9(i64 248, [24 x i32]* %136, i32 29, i32 0, i32 1, i32 0, i8* getelementptr inbounds ([14 x i8]* @getelementptr_namestr, i32 0, i32 0)), !llfi_injectfault !4
  %137 = getelementptr [24 x i32]* %fi177, i32 0, i64 %fi163, !llfi_index !250
  %fi178 = call i32* @injectFault7(i64 249, i32* %137, i32 29, i32 0, i32 1, i32 0, i8* getelementptr inbounds ([14 x i8]* @getelementptr_namestr, i32 0, i32 0)), !llfi_injectfault !4
  %138 = load i32* %fi178, align 4, !llfi_index !251
  %fi179 = call i32 @injectFault1(i64 250, i32 %138, i32 27, i32 0, i32 1, i32 0, i8* getelementptr inbounds ([5 x i8]* @load_namestr, i32 0, i32 0)), !llfi_injectfault !4
  %139 = load i32* %i3, align 4, !llfi_index !252
  %fi180 = call i32 @injectFault1(i64 251, i32 %139, i32 27, i32 0, i32 1, i32 0, i8* getelementptr inbounds ([5 x i8]* @load_namestr, i32 0, i32 0)), !llfi_injectfault !4
  %140 = load i32* %max_cols, align 4, !llfi_index !253
  %fi181 = call i32 @injectFault1(i64 252, i32 %140, i32 27, i32 0, i32 1, i32 0, i8* getelementptr inbounds ([5 x i8]* @load_namestr, i32 0, i32 0)), !llfi_injectfault !4
  %141 = mul nsw i32 %fi180, %fi181, !llfi_index !254
  %fi182 = call i32 @injectFault1(i64 253, i32 %141, i32 12, i32 0, i32 1, i32 0, i8* getelementptr inbounds ([4 x i8]* @mul_namestr, i32 0, i32 0)), !llfi_injectfault !4
  %142 = load i32* %j4, align 4, !llfi_index !255
  %fi183 = call i32 @injectFault1(i64 254, i32 %142, i32 27, i32 0, i32 1, i32 0, i8* getelementptr inbounds ([5 x i8]* @load_namestr, i32 0, i32 0)), !llfi_injectfault !4
  %143 = add nsw i32 %fi182, %fi183, !llfi_index !256
  %fi184 = call i32 @injectFault1(i64 255, i32 %143, i32 8, i32 0, i32 1, i32 0, i8* getelementptr inbounds ([4 x i8]* @add_namestr, i32 0, i32 0)), !llfi_injectfault !4
  %144 = sext i32 %fi184 to i64, !llfi_index !257
  %fi185 = call i64 @injectFault2(i64 256, i64 %144, i32 35, i32 0, i32 1, i32 0, i8* getelementptr inbounds ([5 x i8]* @sext_namestr, i32 0, i32 0)), !llfi_injectfault !4
  %145 = load i32** %referrence, align 8, !llfi_index !258
  %fi186 = call i32* @injectFault7(i64 257, i32* %145, i32 27, i32 0, i32 1, i32 0, i8* getelementptr inbounds ([5 x i8]* @load_namestr, i32 0, i32 0)), !llfi_injectfault !4
  %146 = getelementptr i32* %fi186, i64 %fi185, !llfi_index !259
  %fi187 = call i32* @injectFault7(i64 258, i32* %146, i32 29, i32 0, i32 1, i32 0, i8* getelementptr inbounds ([14 x i8]* @getelementptr_namestr, i32 0, i32 0)), !llfi_injectfault !4
  store i32 %fi179, i32* %fi187, align 4, !llfi_index !260
  br label %147, !llfi_index !261

; <label>:147                                     ; preds = %121
  %148 = load i32* %j4, align 4, !llfi_index !262
  %fi188 = call i32 @injectFault1(i64 261, i32 %148, i32 27, i32 0, i32 1, i32 0, i8* getelementptr inbounds ([5 x i8]* @load_namestr, i32 0, i32 0)), !llfi_injectfault !4
  %149 = add nsw i32 %fi188, 1, !llfi_index !263
  %fi189 = call i32 @injectFault1(i64 262, i32 %149, i32 8, i32 0, i32 1, i32 0, i8* getelementptr inbounds ([4 x i8]* @add_namestr, i32 0, i32 0)), !llfi_injectfault !4
  store i32 %fi189, i32* %j4, align 4, !llfi_index !264
  br label %117, !llfi_index !265

; <label>:150                                     ; preds = %117
  br label %151, !llfi_index !266

; <label>:151                                     ; preds = %150
  %152 = load i32* %i3, align 4, !llfi_index !267
  %fi190 = call i32 @injectFault1(i64 266, i32 %152, i32 27, i32 0, i32 1, i32 0, i8* getelementptr inbounds ([5 x i8]* @load_namestr, i32 0, i32 0)), !llfi_injectfault !4
  %153 = add nsw i32 %fi190, 1, !llfi_index !268
  %fi191 = call i32 @injectFault1(i64 267, i32 %153, i32 8, i32 0, i32 1, i32 0, i8* getelementptr inbounds ([4 x i8]* @add_namestr, i32 0, i32 0)), !llfi_injectfault !4
  store i32 %fi191, i32* %i3, align 4, !llfi_index !269
  br label %112, !llfi_index !270

; <label>:154                                     ; preds = %112
  store i32 1, i32* %i5, align 4, !llfi_index !271
  br label %155, !llfi_index !272

; <label>:155                                     ; preds = %170, %154
  %156 = load i32* %i5, align 4, !llfi_index !273
  %fi192 = call i32 @injectFault1(i64 272, i32 %156, i32 27, i32 0, i32 1, i32 0, i8* getelementptr inbounds ([5 x i8]* @load_namestr, i32 0, i32 0)), !llfi_injectfault !4
  %157 = load i32* %max_rows, align 4, !llfi_index !274
  %fi193 = call i32 @injectFault1(i64 273, i32 %157, i32 27, i32 0, i32 1, i32 0, i8* getelementptr inbounds ([5 x i8]* @load_namestr, i32 0, i32 0)), !llfi_injectfault !4
  %158 = icmp slt i32 %fi192, %fi193, !llfi_index !275
  %fi194 = call i1 @injectFault4(i64 274, i1 %158, i32 46, i32 0, i32 1, i32 0, i8* getelementptr inbounds ([5 x i8]* @icmp_namestr, i32 0, i32 0)), !llfi_injectfault !4
  br i1 %fi194, label %159, label %173, !llfi_index !276

; <label>:159                                     ; preds = %155
  %160 = load i32* %i5, align 4, !llfi_index !277
  %fi195 = call i32 @injectFault1(i64 276, i32 %160, i32 27, i32 0, i32 1, i32 0, i8* getelementptr inbounds ([5 x i8]* @load_namestr, i32 0, i32 0)), !llfi_injectfault !4
  %161 = sub nsw i32 0, %fi195, !llfi_index !278
  %fi196 = call i32 @injectFault1(i64 277, i32 %161, i32 10, i32 0, i32 1, i32 0, i8* getelementptr inbounds ([4 x i8]* @sub_namestr, i32 0, i32 0)), !llfi_injectfault !4
  %162 = load i32* %penalty, align 4, !llfi_index !279
  %fi197 = call i32 @injectFault1(i64 278, i32 %162, i32 27, i32 0, i32 1, i32 0, i8* getelementptr inbounds ([5 x i8]* @load_namestr, i32 0, i32 0)), !llfi_injectfault !4
  %163 = mul nsw i32 %fi196, %fi197, !llfi_index !280
  %fi198 = call i32 @injectFault1(i64 279, i32 %163, i32 12, i32 0, i32 1, i32 0, i8* getelementptr inbounds ([4 x i8]* @mul_namestr, i32 0, i32 0)), !llfi_injectfault !4
  %164 = load i32* %i5, align 4, !llfi_index !281
  %fi199 = call i32 @injectFault1(i64 280, i32 %164, i32 27, i32 0, i32 1, i32 0, i8* getelementptr inbounds ([5 x i8]* @load_namestr, i32 0, i32 0)), !llfi_injectfault !4
  %165 = load i32* %max_cols, align 4, !llfi_index !282
  %fi200 = call i32 @injectFault1(i64 281, i32 %165, i32 27, i32 0, i32 1, i32 0, i8* getelementptr inbounds ([5 x i8]* @load_namestr, i32 0, i32 0)), !llfi_injectfault !4
  %166 = mul nsw i32 %fi199, %fi200, !llfi_index !283
  %fi201 = call i32 @injectFault1(i64 282, i32 %166, i32 12, i32 0, i32 1, i32 0, i8* getelementptr inbounds ([4 x i8]* @mul_namestr, i32 0, i32 0)), !llfi_injectfault !4
  %167 = sext i32 %fi201 to i64, !llfi_index !284
  %fi202 = call i64 @injectFault2(i64 283, i64 %167, i32 35, i32 0, i32 1, i32 0, i8* getelementptr inbounds ([5 x i8]* @sext_namestr, i32 0, i32 0)), !llfi_injectfault !4
  %168 = load i32** %input_itemsets, align 8, !llfi_index !285
  %fi203 = call i32* @injectFault7(i64 284, i32* %168, i32 27, i32 0, i32 1, i32 0, i8* getelementptr inbounds ([5 x i8]* @load_namestr, i32 0, i32 0)), !llfi_injectfault !4
  %169 = getelementptr i32* %fi203, i64 %fi202, !llfi_index !286
  %fi204 = call i32* @injectFault7(i64 285, i32* %169, i32 29, i32 0, i32 1, i32 0, i8* getelementptr inbounds ([14 x i8]* @getelementptr_namestr, i32 0, i32 0)), !llfi_injectfault !4
  store i32 %fi198, i32* %fi204, align 4, !llfi_index !287
  br label %170, !llfi_index !288

; <label>:170                                     ; preds = %159
  %171 = load i32* %i5, align 4, !llfi_index !289
  %fi205 = call i32 @injectFault1(i64 288, i32 %171, i32 27, i32 0, i32 1, i32 0, i8* getelementptr inbounds ([5 x i8]* @load_namestr, i32 0, i32 0)), !llfi_injectfault !4
  %172 = add nsw i32 %fi205, 1, !llfi_index !290
  %fi206 = call i32 @injectFault1(i64 289, i32 %172, i32 8, i32 0, i32 1, i32 0, i8* getelementptr inbounds ([4 x i8]* @add_namestr, i32 0, i32 0)), !llfi_injectfault !4
  store i32 %fi206, i32* %i5, align 4, !llfi_index !291
  br label %155, !llfi_index !292

; <label>:173                                     ; preds = %155
  store i32 1, i32* %j6, align 4, !llfi_index !293
  br label %174, !llfi_index !294

; <label>:174                                     ; preds = %187, %173
  %175 = load i32* %j6, align 4, !llfi_index !295
  %fi207 = call i32 @injectFault1(i64 294, i32 %175, i32 27, i32 0, i32 1, i32 0, i8* getelementptr inbounds ([5 x i8]* @load_namestr, i32 0, i32 0)), !llfi_injectfault !4
  %176 = load i32* %max_cols, align 4, !llfi_index !296
  %fi208 = call i32 @injectFault1(i64 295, i32 %176, i32 27, i32 0, i32 1, i32 0, i8* getelementptr inbounds ([5 x i8]* @load_namestr, i32 0, i32 0)), !llfi_injectfault !4
  %177 = icmp slt i32 %fi207, %fi208, !llfi_index !297
  %fi209 = call i1 @injectFault4(i64 296, i1 %177, i32 46, i32 0, i32 1, i32 0, i8* getelementptr inbounds ([5 x i8]* @icmp_namestr, i32 0, i32 0)), !llfi_injectfault !4
  br i1 %fi209, label %178, label %190, !llfi_index !298

; <label>:178                                     ; preds = %174
  %179 = load i32* %j6, align 4, !llfi_index !299
  %fi210 = call i32 @injectFault1(i64 298, i32 %179, i32 27, i32 0, i32 1, i32 0, i8* getelementptr inbounds ([5 x i8]* @load_namestr, i32 0, i32 0)), !llfi_injectfault !4
  %180 = sub nsw i32 0, %fi210, !llfi_index !300
  %fi211 = call i32 @injectFault1(i64 299, i32 %180, i32 10, i32 0, i32 1, i32 0, i8* getelementptr inbounds ([4 x i8]* @sub_namestr, i32 0, i32 0)), !llfi_injectfault !4
  %181 = load i32* %penalty, align 4, !llfi_index !301
  %fi212 = call i32 @injectFault1(i64 300, i32 %181, i32 27, i32 0, i32 1, i32 0, i8* getelementptr inbounds ([5 x i8]* @load_namestr, i32 0, i32 0)), !llfi_injectfault !4
  %182 = mul nsw i32 %fi211, %fi212, !llfi_index !302
  %fi213 = call i32 @injectFault1(i64 301, i32 %182, i32 12, i32 0, i32 1, i32 0, i8* getelementptr inbounds ([4 x i8]* @mul_namestr, i32 0, i32 0)), !llfi_injectfault !4
  %183 = load i32* %j6, align 4, !llfi_index !303
  %fi214 = call i32 @injectFault1(i64 302, i32 %183, i32 27, i32 0, i32 1, i32 0, i8* getelementptr inbounds ([5 x i8]* @load_namestr, i32 0, i32 0)), !llfi_injectfault !4
  %184 = sext i32 %fi214 to i64, !llfi_index !304
  %fi215 = call i64 @injectFault2(i64 303, i64 %184, i32 35, i32 0, i32 1, i32 0, i8* getelementptr inbounds ([5 x i8]* @sext_namestr, i32 0, i32 0)), !llfi_injectfault !4
  %185 = load i32** %input_itemsets, align 8, !llfi_index !305
  %fi216 = call i32* @injectFault7(i64 304, i32* %185, i32 27, i32 0, i32 1, i32 0, i8* getelementptr inbounds ([5 x i8]* @load_namestr, i32 0, i32 0)), !llfi_injectfault !4
  %186 = getelementptr i32* %fi216, i64 %fi215, !llfi_index !306
  %fi217 = call i32* @injectFault7(i64 305, i32* %186, i32 29, i32 0, i32 1, i32 0, i8* getelementptr inbounds ([14 x i8]* @getelementptr_namestr, i32 0, i32 0)), !llfi_injectfault !4
  store i32 %fi213, i32* %fi217, align 4, !llfi_index !307
  br label %187, !llfi_index !308

; <label>:187                                     ; preds = %178
  %188 = load i32* %j6, align 4, !llfi_index !309
  %fi218 = call i32 @injectFault1(i64 308, i32 %188, i32 27, i32 0, i32 1, i32 0, i8* getelementptr inbounds ([5 x i8]* @load_namestr, i32 0, i32 0)), !llfi_injectfault !4
  %189 = add nsw i32 %fi218, 1, !llfi_index !310
  %fi219 = call i32 @injectFault1(i64 309, i32 %189, i32 8, i32 0, i32 1, i32 0, i8* getelementptr inbounds ([4 x i8]* @add_namestr, i32 0, i32 0)), !llfi_injectfault !4
  store i32 %fi219, i32* %j6, align 4, !llfi_index !311
  br label %174, !llfi_index !312

; <label>:190                                     ; preds = %174
  %191 = load i32* %omp_num_threads, align 4, !llfi_index !313
  %fi220 = call i32 @injectFault1(i64 312, i32 %191, i32 27, i32 0, i32 1, i32 0, i8* getelementptr inbounds ([5 x i8]* @load_namestr, i32 0, i32 0)), !llfi_injectfault !4
  %192 = call i32 (i8*, ...)* @printf(i8* getelementptr inbounds ([20 x i8]* @.str7, i32 0, i32 0), i32 %fi220), !llfi_index !314
  %193 = call i32 (i8*, ...)* @printf(i8* getelementptr inbounds ([28 x i8]* @.str8, i32 0, i32 0)), !llfi_index !315
  %194 = call i64 @_Z8get_timev(), !llfi_index !316
  store i64 %194, i64* %start_time, align 8, !llfi_index !317
  %195 = load i32** %input_itemsets, align 8, !llfi_index !318
  %fi221 = call i32* @injectFault7(i64 317, i32* %195, i32 27, i32 0, i32 1, i32 0, i8* getelementptr inbounds ([5 x i8]* @load_namestr, i32 0, i32 0)), !llfi_injectfault !4
  %196 = load i32** %output_itemsets, align 8, !llfi_index !319
  %fi222 = call i32* @injectFault7(i64 318, i32* %196, i32 27, i32 0, i32 1, i32 0, i8* getelementptr inbounds ([5 x i8]* @load_namestr, i32 0, i32 0)), !llfi_injectfault !4
  %197 = load i32** %referrence, align 8, !llfi_index !320
  %fi223 = call i32* @injectFault7(i64 319, i32* %197, i32 27, i32 0, i32 1, i32 0, i8* getelementptr inbounds ([5 x i8]* @load_namestr, i32 0, i32 0)), !llfi_injectfault !4
  %198 = load i32* %max_rows, align 4, !llfi_index !321
  %fi224 = call i32 @injectFault1(i64 320, i32 %198, i32 27, i32 0, i32 1, i32 0, i8* getelementptr inbounds ([5 x i8]* @load_namestr, i32 0, i32 0)), !llfi_injectfault !4
  %199 = load i32* %max_cols, align 4, !llfi_index !322
  %fi225 = call i32 @injectFault1(i64 321, i32 %199, i32 27, i32 0, i32 1, i32 0, i8* getelementptr inbounds ([5 x i8]* @load_namestr, i32 0, i32 0)), !llfi_injectfault !4
  %200 = load i32* %penalty, align 4, !llfi_index !323
  %fi226 = call i32 @injectFault1(i64 322, i32 %200, i32 27, i32 0, i32 1, i32 0, i8* getelementptr inbounds ([5 x i8]* @load_namestr, i32 0, i32 0)), !llfi_injectfault !4
  call void @_Z12nw_optimizedPiS_S_iii(i32* %fi221, i32* %fi222, i32* %fi223, i32 %fi224, i32 %fi225, i32 %fi226), !llfi_index !324
  %201 = call i64 @_Z8get_timev(), !llfi_index !325
  store i64 %201, i64* %end_time, align 8, !llfi_index !326
  %202 = load i64* %end_time, align 8, !llfi_index !327
  %fi227 = call i64 @injectFault2(i64 326, i64 %202, i32 27, i32 0, i32 1, i32 0, i8* getelementptr inbounds ([5 x i8]* @load_namestr, i32 0, i32 0)), !llfi_injectfault !4
  %203 = load i64* %start_time, align 8, !llfi_index !328
  %fi228 = call i64 @injectFault2(i64 327, i64 %203, i32 27, i32 0, i32 1, i32 0, i8* getelementptr inbounds ([5 x i8]* @load_namestr, i32 0, i32 0)), !llfi_injectfault !4
  %204 = sub nsw i64 %fi227, %fi228, !llfi_index !329
  %fi229 = call i64 @injectFault2(i64 328, i64 %204, i32 10, i32 0, i32 1, i32 0, i8* getelementptr inbounds ([4 x i8]* @sub_namestr, i32 0, i32 0)), !llfi_injectfault !4
  %205 = sitofp i64 %fi229 to float, !llfi_index !330
  %fi230 = call float @injectFault10(i64 329, float %205, i32 39, i32 0, i32 1, i32 0, i8* getelementptr inbounds ([7 x i8]* @sitofp_namestr, i32 0, i32 0)), !llfi_injectfault !4
  %206 = fdiv float %fi230, 1.000000e+06, !llfi_index !331
  %fi231 = call float @injectFault10(i64 330, float %206, i32 16, i32 0, i32 1, i32 0, i8* getelementptr inbounds ([5 x i8]* @fdiv_namestr, i32 0, i32 0)), !llfi_injectfault !4
  %207 = fpext float %fi231 to double, !llfi_index !332
  %fi232 = call double @injectFault0(i64 331, double %207, i32 41, i32 0, i32 1, i32 0, i8* getelementptr inbounds ([6 x i8]* @fpext_namestr, i32 0, i32 0)), !llfi_injectfault !4
  %208 = call i32 (i8*, ...)* @printf(i8* getelementptr inbounds ([26 x i8]* @.str9, i32 0, i32 0), double %fi232), !llfi_index !333
  %209 = call %struct._IO_FILE* @fopen(i8* getelementptr inbounds ([11 x i8]* @.str10, i32 0, i32 0), i8* getelementptr inbounds ([2 x i8]* @.str11, i32 0, i32 0)), !llfi_index !334
  store %struct._IO_FILE* %209, %struct._IO_FILE** %fpo, align 8, !llfi_index !335
  %210 = load %struct._IO_FILE** %fpo, align 8, !llfi_index !336
  %fi233 = call %struct._IO_FILE* @injectFault8(i64 335, %struct._IO_FILE* %210, i32 27, i32 0, i32 1, i32 0, i8* getelementptr inbounds ([5 x i8]* @load_namestr, i32 0, i32 0)), !llfi_injectfault !4
  %211 = call i32 (%struct._IO_FILE*, i8*, ...)* @fprintf(%struct._IO_FILE* %fi233, i8* getelementptr inbounds ([28 x i8]* @.str12, i32 0, i32 0)), !llfi_index !337
  %212 = load i32* %max_rows, align 4, !llfi_index !338
  %fi234 = call i32 @injectFault1(i64 337, i32 %212, i32 27, i32 0, i32 1, i32 0, i8* getelementptr inbounds ([5 x i8]* @load_namestr, i32 0, i32 0)), !llfi_injectfault !4
  %213 = sub nsw i32 %fi234, 2, !llfi_index !339
  %fi235 = call i32 @injectFault1(i64 338, i32 %213, i32 10, i32 0, i32 1, i32 0, i8* getelementptr inbounds ([4 x i8]* @sub_namestr, i32 0, i32 0)), !llfi_injectfault !4
  store i32 %fi235, i32* %i7, align 4, !llfi_index !340
  %214 = load i32* %max_rows, align 4, !llfi_index !341
  %fi236 = call i32 @injectFault1(i64 340, i32 %214, i32 27, i32 0, i32 1, i32 0, i8* getelementptr inbounds ([5 x i8]* @load_namestr, i32 0, i32 0)), !llfi_injectfault !4
  %215 = sub nsw i32 %fi236, 2, !llfi_index !342
  %fi237 = call i32 @injectFault1(i64 341, i32 %215, i32 10, i32 0, i32 1, i32 0, i8* getelementptr inbounds ([4 x i8]* @sub_namestr, i32 0, i32 0)), !llfi_injectfault !4
  store i32 %fi237, i32* %j8, align 4, !llfi_index !343
  br label %216, !llfi_index !344

; <label>:216                                     ; preds = %387, %381, %374, %365, %190
  %217 = load i32* %i7, align 4, !llfi_index !345
  %fi238 = call i32 @injectFault1(i64 344, i32 %217, i32 27, i32 0, i32 1, i32 0, i8* getelementptr inbounds ([5 x i8]* @load_namestr, i32 0, i32 0)), !llfi_injectfault !4
  %218 = icmp sge i32 %fi238, 0, !llfi_index !346
  %fi239 = call i1 @injectFault4(i64 345, i1 %218, i32 46, i32 0, i32 1, i32 0, i8* getelementptr inbounds ([5 x i8]* @icmp_namestr, i32 0, i32 0)), !llfi_injectfault !4
  %219 = load i32* %j8, align 4, !llfi_index !347
  %fi240 = call i32 @injectFault1(i64 346, i32 %219, i32 27, i32 0, i32 1, i32 0, i8* getelementptr inbounds ([5 x i8]* @load_namestr, i32 0, i32 0)), !llfi_injectfault !4
  %220 = icmp sge i32 %fi240, 0, !llfi_index !348
  %fi241 = call i1 @injectFault4(i64 347, i1 %220, i32 46, i32 0, i32 1, i32 0, i8* getelementptr inbounds ([5 x i8]* @icmp_namestr, i32 0, i32 0)), !llfi_injectfault !4
  br i1 %fi241, label %221, label %388, !llfi_index !349

; <label>:221                                     ; preds = %216
  %222 = load i32* %i7, align 4, !llfi_index !350
  %fi242 = call i32 @injectFault1(i64 349, i32 %222, i32 27, i32 0, i32 1, i32 0, i8* getelementptr inbounds ([5 x i8]* @load_namestr, i32 0, i32 0)), !llfi_injectfault !4
  %223 = load i32* %max_rows, align 4, !llfi_index !351
  %fi243 = call i32 @injectFault1(i64 350, i32 %223, i32 27, i32 0, i32 1, i32 0, i8* getelementptr inbounds ([5 x i8]* @load_namestr, i32 0, i32 0)), !llfi_injectfault !4
  %224 = sub nsw i32 %fi243, 2, !llfi_index !352
  %fi244 = call i32 @injectFault1(i64 351, i32 %224, i32 10, i32 0, i32 1, i32 0, i8* getelementptr inbounds ([4 x i8]* @sub_namestr, i32 0, i32 0)), !llfi_injectfault !4
  %225 = icmp eq i32 %fi242, %fi244, !llfi_index !353
  %fi245 = call i1 @injectFault4(i64 352, i1 %225, i32 46, i32 0, i32 1, i32 0, i8* getelementptr inbounds ([5 x i8]* @icmp_namestr, i32 0, i32 0)), !llfi_injectfault !4
  br i1 %fi245, label %226, label %243, !llfi_index !354

; <label>:226                                     ; preds = %221
  %227 = load i32* %j8, align 4, !llfi_index !355
  %fi246 = call i32 @injectFault1(i64 354, i32 %227, i32 27, i32 0, i32 1, i32 0, i8* getelementptr inbounds ([5 x i8]* @load_namestr, i32 0, i32 0)), !llfi_injectfault !4
  %228 = load i32* %max_rows, align 4, !llfi_index !356
  %fi247 = call i32 @injectFault1(i64 355, i32 %228, i32 27, i32 0, i32 1, i32 0, i8* getelementptr inbounds ([5 x i8]* @load_namestr, i32 0, i32 0)), !llfi_injectfault !4
  %229 = sub nsw i32 %fi247, 2, !llfi_index !357
  %fi248 = call i32 @injectFault1(i64 356, i32 %229, i32 10, i32 0, i32 1, i32 0, i8* getelementptr inbounds ([4 x i8]* @sub_namestr, i32 0, i32 0)), !llfi_injectfault !4
  %230 = icmp eq i32 %fi246, %fi248, !llfi_index !358
  %fi249 = call i1 @injectFault4(i64 357, i1 %230, i32 46, i32 0, i32 1, i32 0, i8* getelementptr inbounds ([5 x i8]* @icmp_namestr, i32 0, i32 0)), !llfi_injectfault !4
  br i1 %fi249, label %231, label %243, !llfi_index !359

; <label>:231                                     ; preds = %226
  %232 = load %struct._IO_FILE** %fpo, align 8, !llfi_index !360
  %fi250 = call %struct._IO_FILE* @injectFault8(i64 359, %struct._IO_FILE* %232, i32 27, i32 0, i32 1, i32 0, i8* getelementptr inbounds ([5 x i8]* @load_namestr, i32 0, i32 0)), !llfi_injectfault !4
  %233 = load i32* %i7, align 4, !llfi_index !361
  %fi251 = call i32 @injectFault1(i64 360, i32 %233, i32 27, i32 0, i32 1, i32 0, i8* getelementptr inbounds ([5 x i8]* @load_namestr, i32 0, i32 0)), !llfi_injectfault !4
  %234 = load i32* %max_cols, align 4, !llfi_index !362
  %fi252 = call i32 @injectFault1(i64 361, i32 %234, i32 27, i32 0, i32 1, i32 0, i8* getelementptr inbounds ([5 x i8]* @load_namestr, i32 0, i32 0)), !llfi_injectfault !4
  %235 = mul nsw i32 %fi251, %fi252, !llfi_index !363
  %fi253 = call i32 @injectFault1(i64 362, i32 %235, i32 12, i32 0, i32 1, i32 0, i8* getelementptr inbounds ([4 x i8]* @mul_namestr, i32 0, i32 0)), !llfi_injectfault !4
  %236 = load i32* %j8, align 4, !llfi_index !364
  %fi254 = call i32 @injectFault1(i64 363, i32 %236, i32 27, i32 0, i32 1, i32 0, i8* getelementptr inbounds ([5 x i8]* @load_namestr, i32 0, i32 0)), !llfi_injectfault !4
  %237 = add nsw i32 %fi253, %fi254, !llfi_index !365
  %fi255 = call i32 @injectFault1(i64 364, i32 %237, i32 8, i32 0, i32 1, i32 0, i8* getelementptr inbounds ([4 x i8]* @add_namestr, i32 0, i32 0)), !llfi_injectfault !4
  %238 = sext i32 %fi255 to i64, !llfi_index !366
  %fi256 = call i64 @injectFault2(i64 365, i64 %238, i32 35, i32 0, i32 1, i32 0, i8* getelementptr inbounds ([5 x i8]* @sext_namestr, i32 0, i32 0)), !llfi_injectfault !4
  %239 = load i32** %input_itemsets, align 8, !llfi_index !367
  %fi257 = call i32* @injectFault7(i64 366, i32* %239, i32 27, i32 0, i32 1, i32 0, i8* getelementptr inbounds ([5 x i8]* @load_namestr, i32 0, i32 0)), !llfi_injectfault !4
  %240 = getelementptr i32* %fi257, i64 %fi256, !llfi_index !368
  %fi258 = call i32* @injectFault7(i64 367, i32* %240, i32 29, i32 0, i32 1, i32 0, i8* getelementptr inbounds ([14 x i8]* @getelementptr_namestr, i32 0, i32 0)), !llfi_injectfault !4
  %241 = load i32* %fi258, align 4, !llfi_index !369
  %fi259 = call i32 @injectFault1(i64 368, i32 %241, i32 27, i32 0, i32 1, i32 0, i8* getelementptr inbounds ([5 x i8]* @load_namestr, i32 0, i32 0)), !llfi_injectfault !4
  %242 = call i32 (%struct._IO_FILE*, i8*, ...)* @fprintf(%struct._IO_FILE* %fi250, i8* getelementptr inbounds ([4 x i8]* @.str13, i32 0, i32 0), i32 %fi259), !llfi_index !370
  br label %243, !llfi_index !371

; <label>:243                                     ; preds = %231, %226, %221
  %244 = load i32* %i7, align 4, !llfi_index !372
  %fi260 = call i32 @injectFault1(i64 371, i32 %244, i32 27, i32 0, i32 1, i32 0, i8* getelementptr inbounds ([5 x i8]* @load_namestr, i32 0, i32 0)), !llfi_injectfault !4
  %245 = icmp eq i32 %fi260, 0, !llfi_index !373
  %fi261 = call i1 @injectFault4(i64 372, i1 %245, i32 46, i32 0, i32 1, i32 0, i8* getelementptr inbounds ([5 x i8]* @icmp_namestr, i32 0, i32 0)), !llfi_injectfault !4
  br i1 %fi261, label %246, label %250, !llfi_index !374

; <label>:246                                     ; preds = %243
  %247 = load i32* %j8, align 4, !llfi_index !375
  %fi262 = call i32 @injectFault1(i64 374, i32 %247, i32 27, i32 0, i32 1, i32 0, i8* getelementptr inbounds ([5 x i8]* @load_namestr, i32 0, i32 0)), !llfi_injectfault !4
  %248 = icmp eq i32 %fi262, 0, !llfi_index !376
  %fi263 = call i1 @injectFault4(i64 375, i1 %248, i32 46, i32 0, i32 1, i32 0, i8* getelementptr inbounds ([5 x i8]* @icmp_namestr, i32 0, i32 0)), !llfi_injectfault !4
  br i1 %fi263, label %249, label %250, !llfi_index !377

; <label>:249                                     ; preds = %246
  br label %388, !llfi_index !378

; <label>:250                                     ; preds = %246, %243
  %251 = load i32* %i7, align 4, !llfi_index !379
  %fi264 = call i32 @injectFault1(i64 378, i32 %251, i32 27, i32 0, i32 1, i32 0, i8* getelementptr inbounds ([5 x i8]* @load_namestr, i32 0, i32 0)), !llfi_injectfault !4
  %252 = icmp sgt i32 %fi264, 0, !llfi_index !380
  %fi265 = call i1 @injectFault4(i64 379, i1 %252, i32 46, i32 0, i32 1, i32 0, i8* getelementptr inbounds ([5 x i8]* @icmp_namestr, i32 0, i32 0)), !llfi_injectfault !4
  br i1 %fi265, label %253, label %288, !llfi_index !381

; <label>:253                                     ; preds = %250
  %254 = load i32* %j8, align 4, !llfi_index !382
  %fi266 = call i32 @injectFault1(i64 381, i32 %254, i32 27, i32 0, i32 1, i32 0, i8* getelementptr inbounds ([5 x i8]* @load_namestr, i32 0, i32 0)), !llfi_injectfault !4
  %255 = icmp sgt i32 %fi266, 0, !llfi_index !383
  %fi267 = call i1 @injectFault4(i64 382, i1 %255, i32 46, i32 0, i32 1, i32 0, i8* getelementptr inbounds ([5 x i8]* @icmp_namestr, i32 0, i32 0)), !llfi_injectfault !4
  br i1 %fi267, label %256, label %288, !llfi_index !384

; <label>:256                                     ; preds = %253
  %257 = load i32* %i7, align 4, !llfi_index !385
  %fi165 = call i32 @injectFault1(i64 384, i32 %257, i32 27, i32 0, i32 1, i32 0, i8* getelementptr inbounds ([5 x i8]* @load_namestr, i32 0, i32 0)), !llfi_injectfault !4
  %258 = sub nsw i32 %fi165, 1, !llfi_index !386
  %fi166 = call i32 @injectFault1(i64 385, i32 %258, i32 10, i32 0, i32 1, i32 0, i8* getelementptr inbounds ([4 x i8]* @sub_namestr, i32 0, i32 0)), !llfi_injectfault !4
  %259 = load i32* %max_cols, align 4, !llfi_index !387
  %fi167 = call i32 @injectFault1(i64 386, i32 %259, i32 27, i32 0, i32 1, i32 0, i8* getelementptr inbounds ([5 x i8]* @load_namestr, i32 0, i32 0)), !llfi_injectfault !4
  %260 = mul nsw i32 %fi166, %fi167, !llfi_index !388
  %fi168 = call i32 @injectFault1(i64 387, i32 %260, i32 12, i32 0, i32 1, i32 0, i8* getelementptr inbounds ([4 x i8]* @mul_namestr, i32 0, i32 0)), !llfi_injectfault !4
  %261 = load i32* %j8, align 4, !llfi_index !389
  %fi169 = call i32 @injectFault1(i64 388, i32 %261, i32 27, i32 0, i32 1, i32 0, i8* getelementptr inbounds ([5 x i8]* @load_namestr, i32 0, i32 0)), !llfi_injectfault !4
  %262 = add nsw i32 %fi168, %fi169, !llfi_index !390
  %fi170 = call i32 @injectFault1(i64 389, i32 %262, i32 8, i32 0, i32 1, i32 0, i8* getelementptr inbounds ([4 x i8]* @add_namestr, i32 0, i32 0)), !llfi_injectfault !4
  %263 = sub nsw i32 %fi170, 1, !llfi_index !391
  %fi171 = call i32 @injectFault1(i64 390, i32 %263, i32 10, i32 0, i32 1, i32 0, i8* getelementptr inbounds ([4 x i8]* @sub_namestr, i32 0, i32 0)), !llfi_injectfault !4
  %264 = sext i32 %fi171 to i64, !llfi_index !392
  %fi172 = call i64 @injectFault2(i64 391, i64 %264, i32 35, i32 0, i32 1, i32 0, i8* getelementptr inbounds ([5 x i8]* @sext_namestr, i32 0, i32 0)), !llfi_injectfault !4
  %265 = load i32** %input_itemsets, align 8, !llfi_index !393
  %fi173 = call i32* @injectFault7(i64 392, i32* %265, i32 27, i32 0, i32 1, i32 0, i8* getelementptr inbounds ([5 x i8]* @load_namestr, i32 0, i32 0)), !llfi_injectfault !4
  %266 = getelementptr i32* %fi173, i64 %fi172, !llfi_index !394
  %fi174 = call i32* @injectFault7(i64 393, i32* %266, i32 29, i32 0, i32 1, i32 0, i8* getelementptr inbounds ([14 x i8]* @getelementptr_namestr, i32 0, i32 0)), !llfi_injectfault !4
  %267 = load i32* %fi174, align 4, !llfi_index !395
  %fi175 = call i32 @injectFault1(i64 394, i32 %267, i32 27, i32 0, i32 1, i32 0, i8* getelementptr inbounds ([5 x i8]* @load_namestr, i32 0, i32 0)), !llfi_injectfault !4
  store i32 %fi175, i32* %nw, align 4, !llfi_index !396
  %268 = load i32* %i7, align 4, !llfi_index !397
  %fi91 = call i32 @injectFault1(i64 396, i32 %268, i32 27, i32 0, i32 1, i32 0, i8* getelementptr inbounds ([5 x i8]* @load_namestr, i32 0, i32 0)), !llfi_injectfault !4
  %269 = load i32* %max_cols, align 4, !llfi_index !398
  %fi92 = call i32 @injectFault1(i64 397, i32 %269, i32 27, i32 0, i32 1, i32 0, i8* getelementptr inbounds ([5 x i8]* @load_namestr, i32 0, i32 0)), !llfi_injectfault !4
  %270 = mul nsw i32 %fi91, %fi92, !llfi_index !399
  %fi93 = call i32 @injectFault1(i64 398, i32 %270, i32 12, i32 0, i32 1, i32 0, i8* getelementptr inbounds ([4 x i8]* @mul_namestr, i32 0, i32 0)), !llfi_injectfault !4
  %271 = load i32* %j8, align 4, !llfi_index !400
  %fi94 = call i32 @injectFault1(i64 399, i32 %271, i32 27, i32 0, i32 1, i32 0, i8* getelementptr inbounds ([5 x i8]* @load_namestr, i32 0, i32 0)), !llfi_injectfault !4
  %272 = add nsw i32 %fi93, %fi94, !llfi_index !401
  %fi95 = call i32 @injectFault1(i64 400, i32 %272, i32 8, i32 0, i32 1, i32 0, i8* getelementptr inbounds ([4 x i8]* @add_namestr, i32 0, i32 0)), !llfi_injectfault !4
  %273 = sub nsw i32 %fi95, 1, !llfi_index !402
  %fi96 = call i32 @injectFault1(i64 401, i32 %273, i32 10, i32 0, i32 1, i32 0, i8* getelementptr inbounds ([4 x i8]* @sub_namestr, i32 0, i32 0)), !llfi_injectfault !4
  %274 = sext i32 %fi96 to i64, !llfi_index !403
  %fi97 = call i64 @injectFault2(i64 402, i64 %274, i32 35, i32 0, i32 1, i32 0, i8* getelementptr inbounds ([5 x i8]* @sext_namestr, i32 0, i32 0)), !llfi_injectfault !4
  %275 = load i32** %input_itemsets, align 8, !llfi_index !404
  %fi98 = call i32* @injectFault7(i64 403, i32* %275, i32 27, i32 0, i32 1, i32 0, i8* getelementptr inbounds ([5 x i8]* @load_namestr, i32 0, i32 0)), !llfi_injectfault !4
  %276 = getelementptr i32* %fi98, i64 %fi97, !llfi_index !405
  %fi99 = call i32* @injectFault7(i64 404, i32* %276, i32 29, i32 0, i32 1, i32 0, i8* getelementptr inbounds ([14 x i8]* @getelementptr_namestr, i32 0, i32 0)), !llfi_injectfault !4
  %277 = load i32* %fi99, align 4, !llfi_index !406
  %fi100 = call i32 @injectFault1(i64 405, i32 %277, i32 27, i32 0, i32 1, i32 0, i8* getelementptr inbounds ([5 x i8]* @load_namestr, i32 0, i32 0)), !llfi_injectfault !4
  store i32 %fi100, i32* %w, align 4, !llfi_index !407
  %278 = load i32* %i7, align 4, !llfi_index !408
  %fi101 = call i32 @injectFault1(i64 407, i32 %278, i32 27, i32 0, i32 1, i32 0, i8* getelementptr inbounds ([5 x i8]* @load_namestr, i32 0, i32 0)), !llfi_injectfault !4
  %279 = sub nsw i32 %fi101, 1, !llfi_index !409
  %fi102 = call i32 @injectFault1(i64 408, i32 %279, i32 10, i32 0, i32 1, i32 0, i8* getelementptr inbounds ([4 x i8]* @sub_namestr, i32 0, i32 0)), !llfi_injectfault !4
  %280 = load i32* %max_cols, align 4, !llfi_index !410
  %fi103 = call i32 @injectFault1(i64 409, i32 %280, i32 27, i32 0, i32 1, i32 0, i8* getelementptr inbounds ([5 x i8]* @load_namestr, i32 0, i32 0)), !llfi_injectfault !4
  %281 = mul nsw i32 %fi102, %fi103, !llfi_index !411
  %fi104 = call i32 @injectFault1(i64 410, i32 %281, i32 12, i32 0, i32 1, i32 0, i8* getelementptr inbounds ([4 x i8]* @mul_namestr, i32 0, i32 0)), !llfi_injectfault !4
  %282 = load i32* %j8, align 4, !llfi_index !412
  %fi105 = call i32 @injectFault1(i64 411, i32 %282, i32 27, i32 0, i32 1, i32 0, i8* getelementptr inbounds ([5 x i8]* @load_namestr, i32 0, i32 0)), !llfi_injectfault !4
  %283 = add nsw i32 %fi104, %fi105, !llfi_index !413
  %fi106 = call i32 @injectFault1(i64 412, i32 %283, i32 8, i32 0, i32 1, i32 0, i8* getelementptr inbounds ([4 x i8]* @add_namestr, i32 0, i32 0)), !llfi_injectfault !4
  %284 = sext i32 %fi106 to i64, !llfi_index !414
  %fi107 = call i64 @injectFault2(i64 413, i64 %284, i32 35, i32 0, i32 1, i32 0, i8* getelementptr inbounds ([5 x i8]* @sext_namestr, i32 0, i32 0)), !llfi_injectfault !4
  %285 = load i32** %input_itemsets, align 8, !llfi_index !415
  %fi108 = call i32* @injectFault7(i64 414, i32* %285, i32 27, i32 0, i32 1, i32 0, i8* getelementptr inbounds ([5 x i8]* @load_namestr, i32 0, i32 0)), !llfi_injectfault !4
  %286 = getelementptr i32* %fi108, i64 %fi107, !llfi_index !416
  %fi109 = call i32* @injectFault7(i64 415, i32* %286, i32 29, i32 0, i32 1, i32 0, i8* getelementptr inbounds ([14 x i8]* @getelementptr_namestr, i32 0, i32 0)), !llfi_injectfault !4
  %287 = load i32* %fi109, align 4, !llfi_index !417
  %fi110 = call i32 @injectFault1(i64 416, i32 %287, i32 27, i32 0, i32 1, i32 0, i8* getelementptr inbounds ([5 x i8]* @load_namestr, i32 0, i32 0)), !llfi_injectfault !4
  store i32 %fi110, i32* %n, align 4, !llfi_index !418
  br label %319, !llfi_index !419

; <label>:288                                     ; preds = %253, %250
  %289 = load i32* %i7, align 4, !llfi_index !420
  %fi111 = call i32 @injectFault1(i64 419, i32 %289, i32 27, i32 0, i32 1, i32 0, i8* getelementptr inbounds ([5 x i8]* @load_namestr, i32 0, i32 0)), !llfi_injectfault !4
  %290 = icmp eq i32 %fi111, 0, !llfi_index !421
  %fi112 = call i1 @injectFault4(i64 420, i1 %290, i32 46, i32 0, i32 1, i32 0, i8* getelementptr inbounds ([5 x i8]* @icmp_namestr, i32 0, i32 0)), !llfi_injectfault !4
  br i1 %fi112, label %291, label %302, !llfi_index !422

; <label>:291                                     ; preds = %288
  store i32 -999, i32* %n, align 4, !llfi_index !423
  store i32 -999, i32* %nw, align 4, !llfi_index !424
  %292 = load i32* %i7, align 4, !llfi_index !425
  %fi113 = call i32 @injectFault1(i64 424, i32 %292, i32 27, i32 0, i32 1, i32 0, i8* getelementptr inbounds ([5 x i8]* @load_namestr, i32 0, i32 0)), !llfi_injectfault !4
  %293 = load i32* %max_cols, align 4, !llfi_index !426
  %fi114 = call i32 @injectFault1(i64 425, i32 %293, i32 27, i32 0, i32 1, i32 0, i8* getelementptr inbounds ([5 x i8]* @load_namestr, i32 0, i32 0)), !llfi_injectfault !4
  %294 = mul nsw i32 %fi113, %fi114, !llfi_index !427
  %fi115 = call i32 @injectFault1(i64 426, i32 %294, i32 12, i32 0, i32 1, i32 0, i8* getelementptr inbounds ([4 x i8]* @mul_namestr, i32 0, i32 0)), !llfi_injectfault !4
  %295 = load i32* %j8, align 4, !llfi_index !428
  %fi116 = call i32 @injectFault1(i64 427, i32 %295, i32 27, i32 0, i32 1, i32 0, i8* getelementptr inbounds ([5 x i8]* @load_namestr, i32 0, i32 0)), !llfi_injectfault !4
  %296 = add nsw i32 %fi115, %fi116, !llfi_index !429
  %fi117 = call i32 @injectFault1(i64 428, i32 %296, i32 8, i32 0, i32 1, i32 0, i8* getelementptr inbounds ([4 x i8]* @add_namestr, i32 0, i32 0)), !llfi_injectfault !4
  %297 = sub nsw i32 %fi117, 1, !llfi_index !430
  %fi118 = call i32 @injectFault1(i64 429, i32 %297, i32 10, i32 0, i32 1, i32 0, i8* getelementptr inbounds ([4 x i8]* @sub_namestr, i32 0, i32 0)), !llfi_injectfault !4
  %298 = sext i32 %fi118 to i64, !llfi_index !431
  %fi119 = call i64 @injectFault2(i64 430, i64 %298, i32 35, i32 0, i32 1, i32 0, i8* getelementptr inbounds ([5 x i8]* @sext_namestr, i32 0, i32 0)), !llfi_injectfault !4
  %299 = load i32** %input_itemsets, align 8, !llfi_index !432
  %fi120 = call i32* @injectFault7(i64 431, i32* %299, i32 27, i32 0, i32 1, i32 0, i8* getelementptr inbounds ([5 x i8]* @load_namestr, i32 0, i32 0)), !llfi_injectfault !4
  %300 = getelementptr i32* %fi120, i64 %fi119, !llfi_index !433
  %fi121 = call i32* @injectFault7(i64 432, i32* %300, i32 29, i32 0, i32 1, i32 0, i8* getelementptr inbounds ([14 x i8]* @getelementptr_namestr, i32 0, i32 0)), !llfi_injectfault !4
  %301 = load i32* %fi121, align 4, !llfi_index !434
  %fi122 = call i32 @injectFault1(i64 433, i32 %301, i32 27, i32 0, i32 1, i32 0, i8* getelementptr inbounds ([5 x i8]* @load_namestr, i32 0, i32 0)), !llfi_injectfault !4
  store i32 %fi122, i32* %w, align 4, !llfi_index !435
  br label %318, !llfi_index !436

; <label>:302                                     ; preds = %288
  %303 = load i32* %j8, align 4, !llfi_index !437
  %fi123 = call i32 @injectFault1(i64 436, i32 %303, i32 27, i32 0, i32 1, i32 0, i8* getelementptr inbounds ([5 x i8]* @load_namestr, i32 0, i32 0)), !llfi_injectfault !4
  %304 = icmp eq i32 %fi123, 0, !llfi_index !438
  %fi124 = call i1 @injectFault4(i64 437, i1 %304, i32 46, i32 0, i32 1, i32 0, i8* getelementptr inbounds ([5 x i8]* @icmp_namestr, i32 0, i32 0)), !llfi_injectfault !4
  br i1 %fi124, label %305, label %316, !llfi_index !439

; <label>:305                                     ; preds = %302
  store i32 -999, i32* %w, align 4, !llfi_index !440
  store i32 -999, i32* %nw, align 4, !llfi_index !441
  %306 = load i32* %i7, align 4, !llfi_index !442
  %fi125 = call i32 @injectFault1(i64 441, i32 %306, i32 27, i32 0, i32 1, i32 0, i8* getelementptr inbounds ([5 x i8]* @load_namestr, i32 0, i32 0)), !llfi_injectfault !4
  %307 = sub nsw i32 %fi125, 1, !llfi_index !443
  %fi126 = call i32 @injectFault1(i64 442, i32 %307, i32 10, i32 0, i32 1, i32 0, i8* getelementptr inbounds ([4 x i8]* @sub_namestr, i32 0, i32 0)), !llfi_injectfault !4
  %308 = load i32* %max_cols, align 4, !llfi_index !444
  %fi127 = call i32 @injectFault1(i64 443, i32 %308, i32 27, i32 0, i32 1, i32 0, i8* getelementptr inbounds ([5 x i8]* @load_namestr, i32 0, i32 0)), !llfi_injectfault !4
  %309 = mul nsw i32 %fi126, %fi127, !llfi_index !445
  %fi128 = call i32 @injectFault1(i64 444, i32 %309, i32 12, i32 0, i32 1, i32 0, i8* getelementptr inbounds ([4 x i8]* @mul_namestr, i32 0, i32 0)), !llfi_injectfault !4
  %310 = load i32* %j8, align 4, !llfi_index !446
  %fi129 = call i32 @injectFault1(i64 445, i32 %310, i32 27, i32 0, i32 1, i32 0, i8* getelementptr inbounds ([5 x i8]* @load_namestr, i32 0, i32 0)), !llfi_injectfault !4
  %311 = add nsw i32 %fi128, %fi129, !llfi_index !447
  %fi130 = call i32 @injectFault1(i64 446, i32 %311, i32 8, i32 0, i32 1, i32 0, i8* getelementptr inbounds ([4 x i8]* @add_namestr, i32 0, i32 0)), !llfi_injectfault !4
  %312 = sext i32 %fi130 to i64, !llfi_index !448
  %fi131 = call i64 @injectFault2(i64 447, i64 %312, i32 35, i32 0, i32 1, i32 0, i8* getelementptr inbounds ([5 x i8]* @sext_namestr, i32 0, i32 0)), !llfi_injectfault !4
  %313 = load i32** %input_itemsets, align 8, !llfi_index !449
  %fi132 = call i32* @injectFault7(i64 448, i32* %313, i32 27, i32 0, i32 1, i32 0, i8* getelementptr inbounds ([5 x i8]* @load_namestr, i32 0, i32 0)), !llfi_injectfault !4
  %314 = getelementptr i32* %fi132, i64 %fi131, !llfi_index !450
  %fi133 = call i32* @injectFault7(i64 449, i32* %314, i32 29, i32 0, i32 1, i32 0, i8* getelementptr inbounds ([14 x i8]* @getelementptr_namestr, i32 0, i32 0)), !llfi_injectfault !4
  %315 = load i32* %fi133, align 4, !llfi_index !451
  %fi134 = call i32 @injectFault1(i64 450, i32 %315, i32 27, i32 0, i32 1, i32 0, i8* getelementptr inbounds ([5 x i8]* @load_namestr, i32 0, i32 0)), !llfi_injectfault !4
  store i32 %fi134, i32* %n, align 4, !llfi_index !452
  br label %317, !llfi_index !453

; <label>:316                                     ; preds = %302
  br label %317, !llfi_index !454

; <label>:317                                     ; preds = %316, %305
  br label %318, !llfi_index !455

; <label>:318                                     ; preds = %317, %291
  br label %319, !llfi_index !456

; <label>:319                                     ; preds = %318, %256
  %320 = load i32* %nw, align 4, !llfi_index !457
  %fi135 = call i32 @injectFault1(i64 456, i32 %320, i32 27, i32 0, i32 1, i32 0, i8* getelementptr inbounds ([5 x i8]* @load_namestr, i32 0, i32 0)), !llfi_injectfault !4
  %321 = load i32* %i7, align 4, !llfi_index !458
  %fi136 = call i32 @injectFault1(i64 457, i32 %321, i32 27, i32 0, i32 1, i32 0, i8* getelementptr inbounds ([5 x i8]* @load_namestr, i32 0, i32 0)), !llfi_injectfault !4
  %322 = load i32* %max_cols, align 4, !llfi_index !459
  %fi137 = call i32 @injectFault1(i64 458, i32 %322, i32 27, i32 0, i32 1, i32 0, i8* getelementptr inbounds ([5 x i8]* @load_namestr, i32 0, i32 0)), !llfi_injectfault !4
  %323 = mul nsw i32 %fi136, %fi137, !llfi_index !460
  %fi138 = call i32 @injectFault1(i64 459, i32 %323, i32 12, i32 0, i32 1, i32 0, i8* getelementptr inbounds ([4 x i8]* @mul_namestr, i32 0, i32 0)), !llfi_injectfault !4
  %324 = load i32* %j8, align 4, !llfi_index !461
  %fi139 = call i32 @injectFault1(i64 460, i32 %324, i32 27, i32 0, i32 1, i32 0, i8* getelementptr inbounds ([5 x i8]* @load_namestr, i32 0, i32 0)), !llfi_injectfault !4
  %325 = add nsw i32 %fi138, %fi139, !llfi_index !462
  %fi140 = call i32 @injectFault1(i64 461, i32 %325, i32 8, i32 0, i32 1, i32 0, i8* getelementptr inbounds ([4 x i8]* @add_namestr, i32 0, i32 0)), !llfi_injectfault !4
  %326 = sext i32 %fi140 to i64, !llfi_index !463
  %fi141 = call i64 @injectFault2(i64 462, i64 %326, i32 35, i32 0, i32 1, i32 0, i8* getelementptr inbounds ([5 x i8]* @sext_namestr, i32 0, i32 0)), !llfi_injectfault !4
  %327 = load i32** %referrence, align 8, !llfi_index !464
  %fi142 = call i32* @injectFault7(i64 463, i32* %327, i32 27, i32 0, i32 1, i32 0, i8* getelementptr inbounds ([5 x i8]* @load_namestr, i32 0, i32 0)), !llfi_injectfault !4
  %328 = getelementptr i32* %fi142, i64 %fi141, !llfi_index !465
  %fi143 = call i32* @injectFault7(i64 464, i32* %328, i32 29, i32 0, i32 1, i32 0, i8* getelementptr inbounds ([14 x i8]* @getelementptr_namestr, i32 0, i32 0)), !llfi_injectfault !4
  %329 = load i32* %fi143, align 4, !llfi_index !466
  %fi144 = call i32 @injectFault1(i64 465, i32 %329, i32 27, i32 0, i32 1, i32 0, i8* getelementptr inbounds ([5 x i8]* @load_namestr, i32 0, i32 0)), !llfi_injectfault !4
  %330 = add nsw i32 %fi135, %fi144, !llfi_index !467
  %fi145 = call i32 @injectFault1(i64 466, i32 %330, i32 8, i32 0, i32 1, i32 0, i8* getelementptr inbounds ([4 x i8]* @add_namestr, i32 0, i32 0)), !llfi_injectfault !4
  store i32 %fi145, i32* %new_nw, align 4, !llfi_index !468
  %331 = load i32* %w, align 4, !llfi_index !469
  %fi146 = call i32 @injectFault1(i64 468, i32 %331, i32 27, i32 0, i32 1, i32 0, i8* getelementptr inbounds ([5 x i8]* @load_namestr, i32 0, i32 0)), !llfi_injectfault !4
  %332 = load i32* %penalty, align 4, !llfi_index !470
  %fi147 = call i32 @injectFault1(i64 469, i32 %332, i32 27, i32 0, i32 1, i32 0, i8* getelementptr inbounds ([5 x i8]* @load_namestr, i32 0, i32 0)), !llfi_injectfault !4
  %333 = sub nsw i32 %fi146, %fi147, !llfi_index !471
  %fi148 = call i32 @injectFault1(i64 470, i32 %333, i32 10, i32 0, i32 1, i32 0, i8* getelementptr inbounds ([4 x i8]* @sub_namestr, i32 0, i32 0)), !llfi_injectfault !4
  store i32 %fi148, i32* %new_w, align 4, !llfi_index !472
  %334 = load i32* %n, align 4, !llfi_index !473
  %fi149 = call i32 @injectFault1(i64 472, i32 %334, i32 27, i32 0, i32 1, i32 0, i8* getelementptr inbounds ([5 x i8]* @load_namestr, i32 0, i32 0)), !llfi_injectfault !4
  %335 = load i32* %penalty, align 4, !llfi_index !474
  %fi150 = call i32 @injectFault1(i64 473, i32 %335, i32 27, i32 0, i32 1, i32 0, i8* getelementptr inbounds ([5 x i8]* @load_namestr, i32 0, i32 0)), !llfi_injectfault !4
  %336 = sub nsw i32 %fi149, %fi150, !llfi_index !475
  %fi151 = call i32 @injectFault1(i64 474, i32 %336, i32 10, i32 0, i32 1, i32 0, i8* getelementptr inbounds ([4 x i8]* @sub_namestr, i32 0, i32 0)), !llfi_injectfault !4
  store i32 %fi151, i32* %new_n, align 4, !llfi_index !476
  %337 = load i32* %new_nw, align 4, !llfi_index !477
  %fi152 = call i32 @injectFault1(i64 476, i32 %337, i32 27, i32 0, i32 1, i32 0, i8* getelementptr inbounds ([5 x i8]* @load_namestr, i32 0, i32 0)), !llfi_injectfault !4
  %338 = load i32* %new_w, align 4, !llfi_index !478
  %fi153 = call i32 @injectFault1(i64 477, i32 %338, i32 27, i32 0, i32 1, i32 0, i8* getelementptr inbounds ([5 x i8]* @load_namestr, i32 0, i32 0)), !llfi_injectfault !4
  %339 = load i32* %new_n, align 4, !llfi_index !479
  %fi154 = call i32 @injectFault1(i64 478, i32 %339, i32 27, i32 0, i32 1, i32 0, i8* getelementptr inbounds ([5 x i8]* @load_namestr, i32 0, i32 0)), !llfi_injectfault !4
  %340 = call i32 @_Z7maximumiii(i32 %fi152, i32 %fi153, i32 %fi154), !llfi_index !480
  store i32 %340, i32* %traceback, align 4, !llfi_index !481
  %341 = load i32* %traceback, align 4, !llfi_index !482
  %fi155 = call i32 @injectFault1(i64 481, i32 %341, i32 27, i32 0, i32 1, i32 0, i8* getelementptr inbounds ([5 x i8]* @load_namestr, i32 0, i32 0)), !llfi_injectfault !4
  %342 = load i32* %new_nw, align 4, !llfi_index !483
  %fi156 = call i32 @injectFault1(i64 482, i32 %342, i32 27, i32 0, i32 1, i32 0, i8* getelementptr inbounds ([5 x i8]* @load_namestr, i32 0, i32 0)), !llfi_injectfault !4
  %343 = icmp eq i32 %fi155, %fi156, !llfi_index !484
  %fi157 = call i1 @injectFault4(i64 483, i1 %343, i32 46, i32 0, i32 1, i32 0, i8* getelementptr inbounds ([5 x i8]* @icmp_namestr, i32 0, i32 0)), !llfi_injectfault !4
  br i1 %fi157, label %344, label %346, !llfi_index !485

; <label>:344                                     ; preds = %319
  %345 = load i32* %nw, align 4, !llfi_index !486
  %fi268 = call i32 @injectFault1(i64 485, i32 %345, i32 27, i32 0, i32 1, i32 0, i8* getelementptr inbounds ([5 x i8]* @load_namestr, i32 0, i32 0)), !llfi_injectfault !4
  store i32 %fi268, i32* %traceback, align 4, !llfi_index !487
  br label %346, !llfi_index !488

; <label>:346                                     ; preds = %344, %319
  %347 = load i32* %traceback, align 4, !llfi_index !489
  %fi269 = call i32 @injectFault1(i64 488, i32 %347, i32 27, i32 0, i32 1, i32 0, i8* getelementptr inbounds ([5 x i8]* @load_namestr, i32 0, i32 0)), !llfi_injectfault !4
  %348 = load i32* %new_w, align 4, !llfi_index !490
  %fi270 = call i32 @injectFault1(i64 489, i32 %348, i32 27, i32 0, i32 1, i32 0, i8* getelementptr inbounds ([5 x i8]* @load_namestr, i32 0, i32 0)), !llfi_injectfault !4
  %349 = icmp eq i32 %fi269, %fi270, !llfi_index !491
  %fi271 = call i1 @injectFault4(i64 490, i1 %349, i32 46, i32 0, i32 1, i32 0, i8* getelementptr inbounds ([5 x i8]* @icmp_namestr, i32 0, i32 0)), !llfi_injectfault !4
  br i1 %fi271, label %350, label %352, !llfi_index !492

; <label>:350                                     ; preds = %346
  %351 = load i32* %w, align 4, !llfi_index !493
  %fi272 = call i32 @injectFault1(i64 492, i32 %351, i32 27, i32 0, i32 1, i32 0, i8* getelementptr inbounds ([5 x i8]* @load_namestr, i32 0, i32 0)), !llfi_injectfault !4
  store i32 %fi272, i32* %traceback, align 4, !llfi_index !494
  br label %352, !llfi_index !495

; <label>:352                                     ; preds = %350, %346
  %353 = load i32* %traceback, align 4, !llfi_index !496
  %fi273 = call i32 @injectFault1(i64 495, i32 %353, i32 27, i32 0, i32 1, i32 0, i8* getelementptr inbounds ([5 x i8]* @load_namestr, i32 0, i32 0)), !llfi_injectfault !4
  %354 = load i32* %new_n, align 4, !llfi_index !497
  %fi274 = call i32 @injectFault1(i64 496, i32 %354, i32 27, i32 0, i32 1, i32 0, i8* getelementptr inbounds ([5 x i8]* @load_namestr, i32 0, i32 0)), !llfi_injectfault !4
  %355 = icmp eq i32 %fi273, %fi274, !llfi_index !498
  %fi275 = call i1 @injectFault4(i64 497, i1 %355, i32 46, i32 0, i32 1, i32 0, i8* getelementptr inbounds ([5 x i8]* @icmp_namestr, i32 0, i32 0)), !llfi_injectfault !4
  br i1 %fi275, label %356, label %358, !llfi_index !499

; <label>:356                                     ; preds = %352
  %357 = load i32* %n, align 4, !llfi_index !500
  %fi276 = call i32 @injectFault1(i64 499, i32 %357, i32 27, i32 0, i32 1, i32 0, i8* getelementptr inbounds ([5 x i8]* @load_namestr, i32 0, i32 0)), !llfi_injectfault !4
  store i32 %fi276, i32* %traceback, align 4, !llfi_index !501
  br label %358, !llfi_index !502

; <label>:358                                     ; preds = %356, %352
  %359 = load %struct._IO_FILE** %fpo, align 8, !llfi_index !503
  %fi277 = call %struct._IO_FILE* @injectFault8(i64 502, %struct._IO_FILE* %359, i32 27, i32 0, i32 1, i32 0, i8* getelementptr inbounds ([5 x i8]* @load_namestr, i32 0, i32 0)), !llfi_injectfault !4
  %360 = load i32* %traceback, align 4, !llfi_index !504
  %fi278 = call i32 @injectFault1(i64 503, i32 %360, i32 27, i32 0, i32 1, i32 0, i8* getelementptr inbounds ([5 x i8]* @load_namestr, i32 0, i32 0)), !llfi_injectfault !4
  %361 = call i32 (%struct._IO_FILE*, i8*, ...)* @fprintf(%struct._IO_FILE* %fi277, i8* getelementptr inbounds ([4 x i8]* @.str13, i32 0, i32 0), i32 %fi278), !llfi_index !505
  %362 = load i32* %traceback, align 4, !llfi_index !506
  %fi279 = call i32 @injectFault1(i64 505, i32 %362, i32 27, i32 0, i32 1, i32 0, i8* getelementptr inbounds ([5 x i8]* @load_namestr, i32 0, i32 0)), !llfi_injectfault !4
  %363 = load i32* %nw, align 4, !llfi_index !507
  %fi280 = call i32 @injectFault1(i64 506, i32 %363, i32 27, i32 0, i32 1, i32 0, i8* getelementptr inbounds ([5 x i8]* @load_namestr, i32 0, i32 0)), !llfi_injectfault !4
  %364 = icmp eq i32 %fi279, %fi280, !llfi_index !508
  %fi281 = call i1 @injectFault4(i64 507, i1 %364, i32 46, i32 0, i32 1, i32 0, i8* getelementptr inbounds ([5 x i8]* @icmp_namestr, i32 0, i32 0)), !llfi_injectfault !4
  br i1 %fi281, label %365, label %370, !llfi_index !509

; <label>:365                                     ; preds = %358
  %366 = load i32* %i7, align 4, !llfi_index !510
  %fi282 = call i32 @injectFault1(i64 509, i32 %366, i32 27, i32 0, i32 1, i32 0, i8* getelementptr inbounds ([5 x i8]* @load_namestr, i32 0, i32 0)), !llfi_injectfault !4
  %367 = add nsw i32 %fi282, -1, !llfi_index !511
  %fi283 = call i32 @injectFault1(i64 510, i32 %367, i32 8, i32 0, i32 1, i32 0, i8* getelementptr inbounds ([4 x i8]* @add_namestr, i32 0, i32 0)), !llfi_injectfault !4
  store i32 %fi283, i32* %i7, align 4, !llfi_index !512
  %368 = load i32* %j8, align 4, !llfi_index !513
  %fi284 = call i32 @injectFault1(i64 512, i32 %368, i32 27, i32 0, i32 1, i32 0, i8* getelementptr inbounds ([5 x i8]* @load_namestr, i32 0, i32 0)), !llfi_injectfault !4
  %369 = add nsw i32 %fi284, -1, !llfi_index !514
  %fi285 = call i32 @injectFault1(i64 513, i32 %369, i32 8, i32 0, i32 1, i32 0, i8* getelementptr inbounds ([4 x i8]* @add_namestr, i32 0, i32 0)), !llfi_injectfault !4
  store i32 %fi285, i32* %j8, align 4, !llfi_index !515
  br label %216, !llfi_index !516

; <label>:370                                     ; preds = %358
  %371 = load i32* %traceback, align 4, !llfi_index !517
  %fi286 = call i32 @injectFault1(i64 516, i32 %371, i32 27, i32 0, i32 1, i32 0, i8* getelementptr inbounds ([5 x i8]* @load_namestr, i32 0, i32 0)), !llfi_injectfault !4
  %372 = load i32* %w, align 4, !llfi_index !518
  %fi287 = call i32 @injectFault1(i64 517, i32 %372, i32 27, i32 0, i32 1, i32 0, i8* getelementptr inbounds ([5 x i8]* @load_namestr, i32 0, i32 0)), !llfi_injectfault !4
  %373 = icmp eq i32 %fi286, %fi287, !llfi_index !519
  %fi288 = call i1 @injectFault4(i64 518, i1 %373, i32 46, i32 0, i32 1, i32 0, i8* getelementptr inbounds ([5 x i8]* @icmp_namestr, i32 0, i32 0)), !llfi_injectfault !4
  br i1 %fi288, label %374, label %377, !llfi_index !520

; <label>:374                                     ; preds = %370
  %375 = load i32* %j8, align 4, !llfi_index !521
  %fi289 = call i32 @injectFault1(i64 520, i32 %375, i32 27, i32 0, i32 1, i32 0, i8* getelementptr inbounds ([5 x i8]* @load_namestr, i32 0, i32 0)), !llfi_injectfault !4
  %376 = add nsw i32 %fi289, -1, !llfi_index !522
  %fi290 = call i32 @injectFault1(i64 521, i32 %376, i32 8, i32 0, i32 1, i32 0, i8* getelementptr inbounds ([4 x i8]* @add_namestr, i32 0, i32 0)), !llfi_injectfault !4
  store i32 %fi290, i32* %j8, align 4, !llfi_index !523
  br label %216, !llfi_index !524

; <label>:377                                     ; preds = %370
  %378 = load i32* %traceback, align 4, !llfi_index !525
  %fi291 = call i32 @injectFault1(i64 524, i32 %378, i32 27, i32 0, i32 1, i32 0, i8* getelementptr inbounds ([5 x i8]* @load_namestr, i32 0, i32 0)), !llfi_injectfault !4
  %379 = load i32* %n, align 4, !llfi_index !526
  %fi292 = call i32 @injectFault1(i64 525, i32 %379, i32 27, i32 0, i32 1, i32 0, i8* getelementptr inbounds ([5 x i8]* @load_namestr, i32 0, i32 0)), !llfi_injectfault !4
  %380 = icmp eq i32 %fi291, %fi292, !llfi_index !527
  %fi293 = call i1 @injectFault4(i64 526, i1 %380, i32 46, i32 0, i32 1, i32 0, i8* getelementptr inbounds ([5 x i8]* @icmp_namestr, i32 0, i32 0)), !llfi_injectfault !4
  br i1 %fi293, label %381, label %384, !llfi_index !528

; <label>:381                                     ; preds = %377
  %382 = load i32* %i7, align 4, !llfi_index !529
  %fi294 = call i32 @injectFault1(i64 528, i32 %382, i32 27, i32 0, i32 1, i32 0, i8* getelementptr inbounds ([5 x i8]* @load_namestr, i32 0, i32 0)), !llfi_injectfault !4
  %383 = add nsw i32 %fi294, -1, !llfi_index !530
  %fi295 = call i32 @injectFault1(i64 529, i32 %383, i32 8, i32 0, i32 1, i32 0, i8* getelementptr inbounds ([4 x i8]* @add_namestr, i32 0, i32 0)), !llfi_injectfault !4
  store i32 %fi295, i32* %i7, align 4, !llfi_index !531
  br label %216, !llfi_index !532

; <label>:384                                     ; preds = %377
  br label %385, !llfi_index !533

; <label>:385                                     ; preds = %384
  br label %386, !llfi_index !534

; <label>:386                                     ; preds = %385
  br label %387, !llfi_index !535

; <label>:387                                     ; preds = %386
  br label %216, !llfi_index !536

; <label>:388                                     ; preds = %249, %216
  %389 = load %struct._IO_FILE** %fpo, align 8, !llfi_index !537
  %fi296 = call %struct._IO_FILE* @injectFault8(i64 536, %struct._IO_FILE* %389, i32 27, i32 0, i32 1, i32 0, i8* getelementptr inbounds ([5 x i8]* @load_namestr, i32 0, i32 0)), !llfi_injectfault !4
  %390 = call i32 @fclose(%struct._IO_FILE* %fi296), !llfi_index !538
  %391 = load i32** %referrence, align 8, !llfi_index !539
  %fi297 = call i32* @injectFault7(i64 538, i32* %391, i32 27, i32 0, i32 1, i32 0, i8* getelementptr inbounds ([5 x i8]* @load_namestr, i32 0, i32 0)), !llfi_injectfault !4
  %392 = bitcast i32* %fi297 to i8*, !llfi_index !540
  %fi298 = call i8* @injectFault5(i64 539, i8* %392, i32 44, i32 0, i32 1, i32 0, i8* getelementptr inbounds ([8 x i8]* @bitcast_namestr, i32 0, i32 0)), !llfi_injectfault !4
  call void @free(i8* %fi298) #6, !llfi_index !541
  %393 = load i32** %input_itemsets, align 8, !llfi_index !542
  %fi299 = call i32* @injectFault7(i64 541, i32* %393, i32 27, i32 0, i32 1, i32 0, i8* getelementptr inbounds ([5 x i8]* @load_namestr, i32 0, i32 0)), !llfi_injectfault !4
  %394 = bitcast i32* %fi299 to i8*, !llfi_index !543
  %fi300 = call i8* @injectFault5(i64 542, i8* %394, i32 44, i32 0, i32 1, i32 0, i8* getelementptr inbounds ([8 x i8]* @bitcast_namestr, i32 0, i32 0)), !llfi_injectfault !4
  call void @free(i8* %fi300) #6, !llfi_index !544
  %395 = load i32** %output_itemsets, align 8, !llfi_index !545
  %fi301 = call i32* @injectFault7(i64 544, i32* %395, i32 27, i32 0, i32 1, i32 0, i8* getelementptr inbounds ([5 x i8]* @load_namestr, i32 0, i32 0)), !llfi_injectfault !4
  %396 = bitcast i32* %fi301 to i8*, !llfi_index !546
  %fi302 = call i8* @injectFault5(i64 545, i8* %396, i32 44, i32 0, i32 1, i32 0, i8* getelementptr inbounds ([8 x i8]* @bitcast_namestr, i32 0, i32 0)), !llfi_injectfault !4
  call void @free(i8* %fi302) #6, !llfi_index !547
  ret void, !llfi_index !548
}

; Function Attrs: uwtable
define void @_Z5usageiPPc(i32 %argc, i8** %argv) #2 {
  %1 = alloca i32, align 4, !llfi_index !549
  %2 = alloca i8**, align 8, !llfi_index !550
  store i32 %argc, i32* %1, align 4, !llfi_index !551
  store i8** %argv, i8*** %2, align 8, !llfi_index !552
  %3 = load %struct._IO_FILE** @stderr, align 8, !llfi_index !553
  %fi = call %struct._IO_FILE* @injectFault8(i64 552, %struct._IO_FILE* %3, i32 27, i32 0, i32 1, i32 0, i8* getelementptr inbounds ([5 x i8]* @load_namestr, i32 0, i32 0)), !llfi_injectfault !4
  %4 = load i8*** %2, align 8, !llfi_index !554
  %fi1 = call i8** @injectFault6(i64 553, i8** %4, i32 27, i32 0, i32 1, i32 0, i8* getelementptr inbounds ([5 x i8]* @load_namestr, i32 0, i32 0)), !llfi_injectfault !4
  %5 = getelementptr i8** %fi1, i64 0, !llfi_index !555
  %fi2 = call i8** @injectFault6(i64 554, i8** %5, i32 29, i32 0, i32 1, i32 0, i8* getelementptr inbounds ([14 x i8]* @getelementptr_namestr, i32 0, i32 0)), !llfi_injectfault !4
  %6 = load i8** %fi2, align 8, !llfi_index !556
  %fi3 = call i8* @injectFault5(i64 555, i8* %6, i32 27, i32 0, i32 1, i32 0, i8* getelementptr inbounds ([5 x i8]* @load_namestr, i32 0, i32 0)), !llfi_injectfault !4
  %7 = call i32 (%struct._IO_FILE*, i8*, ...)* @fprintf(%struct._IO_FILE* %fi, i8* getelementptr inbounds ([55 x i8]* @.str, i32 0, i32 0), i8* %fi3), !llfi_index !557
  %8 = load %struct._IO_FILE** @stderr, align 8, !llfi_index !558
  %fi4 = call %struct._IO_FILE* @injectFault8(i64 557, %struct._IO_FILE* %8, i32 27, i32 0, i32 1, i32 0, i8* getelementptr inbounds ([5 x i8]* @load_namestr, i32 0, i32 0)), !llfi_injectfault !4
  %9 = call i32 (%struct._IO_FILE*, i8*, ...)* @fprintf(%struct._IO_FILE* %fi4, i8* getelementptr inbounds ([40 x i8]* @.str1, i32 0, i32 0)), !llfi_index !559
  %10 = load %struct._IO_FILE** @stderr, align 8, !llfi_index !560
  %fi5 = call %struct._IO_FILE* @injectFault8(i64 559, %struct._IO_FILE* %10, i32 27, i32 0, i32 1, i32 0, i8* getelementptr inbounds ([5 x i8]* @load_namestr, i32 0, i32 0)), !llfi_injectfault !4
  %11 = call i32 (%struct._IO_FILE*, i8*, ...)* @fprintf(%struct._IO_FILE* %fi5, i8* getelementptr inbounds ([47 x i8]* @.str2, i32 0, i32 0)), !llfi_index !561
  %12 = load %struct._IO_FILE** @stderr, align 8, !llfi_index !562
  %fi6 = call %struct._IO_FILE* @injectFault8(i64 561, %struct._IO_FILE* %12, i32 27, i32 0, i32 1, i32 0, i8* getelementptr inbounds ([5 x i8]* @load_namestr, i32 0, i32 0)), !llfi_injectfault !4
  %13 = call i32 (%struct._IO_FILE*, i8*, ...)* @fprintf(%struct._IO_FILE* %fi6, i8* getelementptr inbounds ([36 x i8]* @.str3, i32 0, i32 0)), !llfi_index !563
  call void @postInjections()
  call void @exit(i32 1) #8, !llfi_index !564
  unreachable, !llfi_index !565
                                                  ; No predecessors!
  ret void, !llfi_index !566
}

declare i32 @fprintf(%struct._IO_FILE*, i8*, ...) #3

; Function Attrs: noreturn nounwind
declare void @exit(i32) #4

; Function Attrs: uwtable
define void @_Z12nw_optimizedPiS_S_iii(i32* %input_itemsets, i32* %output_itemsets, i32* %referrence, i32 %max_rows, i32 %max_cols, i32 %penalty) #2 {
  %1 = alloca i32*, align 8, !llfi_index !567
  %2 = alloca i32*, align 8, !llfi_index !568
  %3 = alloca i32*, align 8, !llfi_index !569
  %4 = alloca i32, align 4, !llfi_index !570
  %5 = alloca i32, align 4, !llfi_index !571
  %6 = alloca i32, align 4, !llfi_index !572
  %blk = alloca i32, align 4, !llfi_index !573
  %b_index_x = alloca i32, align 4, !llfi_index !574
  %b_index_y = alloca i32, align 4, !llfi_index !575
  %input_itemsets_l = alloca [289 x i32], align 64, !llfi_index !576
  %reference_l = alloca [256 x i32], align 64, !llfi_index !577
  %i = alloca i32, align 4, !llfi_index !578
  %j = alloca i32, align 4, !llfi_index !579
  %i1 = alloca i32, align 4, !llfi_index !580
  %j2 = alloca i32, align 4, !llfi_index !581
  %i3 = alloca i32, align 4, !llfi_index !582
  %j4 = alloca i32, align 4, !llfi_index !583
  %i5 = alloca i32, align 4, !llfi_index !584
  %j6 = alloca i32, align 4, !llfi_index !585
  %blk7 = alloca i32, align 4, !llfi_index !586
  %b_index_x8 = alloca i32, align 4, !llfi_index !587
  %b_index_y9 = alloca i32, align 4, !llfi_index !588
  %input_itemsets_l10 = alloca [289 x i32], align 64, !llfi_index !589
  %reference_l11 = alloca [256 x i32], align 64, !llfi_index !590
  %i12 = alloca i32, align 4, !llfi_index !591
  %j13 = alloca i32, align 4, !llfi_index !592
  %i14 = alloca i32, align 4, !llfi_index !593
  %j15 = alloca i32, align 4, !llfi_index !594
  %i16 = alloca i32, align 4, !llfi_index !595
  %j17 = alloca i32, align 4, !llfi_index !596
  %i18 = alloca i32, align 4, !llfi_index !597
  %j19 = alloca i32, align 4, !llfi_index !598
  store i32* %input_itemsets, i32** %1, align 8, !llfi_index !599
  store i32* %output_itemsets, i32** %2, align 8, !llfi_index !600
  store i32* %referrence, i32** %3, align 8, !llfi_index !601
  store i32 %max_rows, i32* %4, align 4, !llfi_index !602
  store i32 %max_cols, i32* %5, align 4, !llfi_index !603
  store i32 %penalty, i32* %6, align 4, !llfi_index !604
  store i32 1, i32* %blk, align 4, !llfi_index !605
  br label %7, !llfi_index !606

; <label>:7                                       ; preds = %206, %0
  %8 = load i32* %blk, align 4, !llfi_index !607
  %fi100 = call i32 @injectFault1(i64 606, i32 %8, i32 27, i32 0, i32 1, i32 0, i8* getelementptr inbounds ([5 x i8]* @load_namestr, i32 0, i32 0)), !llfi_injectfault !4
  %9 = load i32* %5, align 4, !llfi_index !608
  %fi102 = call i32 @injectFault1(i64 607, i32 %9, i32 27, i32 0, i32 1, i32 0, i8* getelementptr inbounds ([5 x i8]* @load_namestr, i32 0, i32 0)), !llfi_injectfault !4
  %10 = sub nsw i32 %fi102, 1, !llfi_index !609
  %fi103 = call i32 @injectFault1(i64 608, i32 %10, i32 10, i32 0, i32 1, i32 0, i8* getelementptr inbounds ([4 x i8]* @sub_namestr, i32 0, i32 0)), !llfi_injectfault !4
  %11 = sdiv i32 %fi103, 16, !llfi_index !610
  %fi104 = call i32 @injectFault1(i64 609, i32 %11, i32 15, i32 0, i32 1, i32 0, i8* getelementptr inbounds ([5 x i8]* @sdiv_namestr, i32 0, i32 0)), !llfi_injectfault !4
  %12 = icmp sle i32 %fi100, %fi104, !llfi_index !611
  %fi105 = call i1 @injectFault4(i64 610, i1 %12, i32 46, i32 0, i32 1, i32 0, i8* getelementptr inbounds ([5 x i8]* @icmp_namestr, i32 0, i32 0)), !llfi_injectfault !4
  br i1 %fi105, label %13, label %209, !llfi_index !612

; <label>:13                                      ; preds = %7
  store i32 0, i32* %b_index_x, align 4, !llfi_index !613
  br label %14, !llfi_index !614

; <label>:14                                      ; preds = %202, %13
  %15 = load i32* %b_index_x, align 4, !llfi_index !615
  %fi106 = call i32 @injectFault1(i64 614, i32 %15, i32 27, i32 0, i32 1, i32 0, i8* getelementptr inbounds ([5 x i8]* @load_namestr, i32 0, i32 0)), !llfi_injectfault !4
  %16 = load i32* %blk, align 4, !llfi_index !616
  %fi107 = call i32 @injectFault1(i64 615, i32 %16, i32 27, i32 0, i32 1, i32 0, i8* getelementptr inbounds ([5 x i8]* @load_namestr, i32 0, i32 0)), !llfi_injectfault !4
  %17 = icmp slt i32 %fi106, %fi107, !llfi_index !617
  %fi101 = call i1 @injectFault4(i64 616, i1 %17, i32 46, i32 0, i32 1, i32 0, i8* getelementptr inbounds ([5 x i8]* @icmp_namestr, i32 0, i32 0)), !llfi_injectfault !4
  br i1 %fi101, label %18, label %205, !llfi_index !618

; <label>:18                                      ; preds = %14
  %19 = load i32* %blk, align 4, !llfi_index !619
  %fi109 = call i32 @injectFault1(i64 618, i32 %19, i32 27, i32 0, i32 1, i32 0, i8* getelementptr inbounds ([5 x i8]* @load_namestr, i32 0, i32 0)), !llfi_injectfault !4
  %20 = sub nsw i32 %fi109, 1, !llfi_index !620
  %fi110 = call i32 @injectFault1(i64 619, i32 %20, i32 10, i32 0, i32 1, i32 0, i8* getelementptr inbounds ([4 x i8]* @sub_namestr, i32 0, i32 0)), !llfi_injectfault !4
  %21 = load i32* %b_index_x, align 4, !llfi_index !621
  %fi111 = call i32 @injectFault1(i64 620, i32 %21, i32 27, i32 0, i32 1, i32 0, i8* getelementptr inbounds ([5 x i8]* @load_namestr, i32 0, i32 0)), !llfi_injectfault !4
  %22 = sub nsw i32 %fi110, %fi111, !llfi_index !622
  %fi112 = call i32 @injectFault1(i64 621, i32 %22, i32 10, i32 0, i32 1, i32 0, i8* getelementptr inbounds ([4 x i8]* @sub_namestr, i32 0, i32 0)), !llfi_injectfault !4
  store i32 %fi112, i32* %b_index_y, align 4, !llfi_index !623
  store i32 0, i32* %i, align 4, !llfi_index !624
  br label %23, !llfi_index !625

; <label>:23                                      ; preds = %58, %18
  %24 = load i32* %i, align 4, !llfi_index !626
  %fi113 = call i32 @injectFault1(i64 625, i32 %24, i32 27, i32 0, i32 1, i32 0, i8* getelementptr inbounds ([5 x i8]* @load_namestr, i32 0, i32 0)), !llfi_injectfault !4
  %25 = icmp slt i32 %fi113, 16, !llfi_index !627
  %fi114 = call i1 @injectFault4(i64 626, i1 %25, i32 46, i32 0, i32 1, i32 0, i8* getelementptr inbounds ([5 x i8]* @icmp_namestr, i32 0, i32 0)), !llfi_injectfault !4
  br i1 %fi114, label %26, label %61, !llfi_index !628

; <label>:26                                      ; preds = %23
  store i32 0, i32* %j, align 4, !llfi_index !629
  br label %27, !llfi_index !630

; <label>:27                                      ; preds = %54, %26
  %28 = load i32* %j, align 4, !llfi_index !631
  %fi115 = call i32 @injectFault1(i64 630, i32 %28, i32 27, i32 0, i32 1, i32 0, i8* getelementptr inbounds ([5 x i8]* @load_namestr, i32 0, i32 0)), !llfi_injectfault !4
  %29 = icmp slt i32 %fi115, 16, !llfi_index !632
  %fi116 = call i1 @injectFault4(i64 631, i1 %29, i32 46, i32 0, i32 1, i32 0, i8* getelementptr inbounds ([5 x i8]* @icmp_namestr, i32 0, i32 0)), !llfi_injectfault !4
  br i1 %fi116, label %30, label %57, !llfi_index !633

; <label>:30                                      ; preds = %27
  %31 = load i32* %5, align 4, !llfi_index !634
  %fi117 = call i32 @injectFault1(i64 633, i32 %31, i32 27, i32 0, i32 1, i32 0, i8* getelementptr inbounds ([5 x i8]* @load_namestr, i32 0, i32 0)), !llfi_injectfault !4
  %32 = load i32* %b_index_y, align 4, !llfi_index !635
  %fi118 = call i32 @injectFault1(i64 634, i32 %32, i32 27, i32 0, i32 1, i32 0, i8* getelementptr inbounds ([5 x i8]* @load_namestr, i32 0, i32 0)), !llfi_injectfault !4
  %33 = mul nsw i32 %fi118, 16, !llfi_index !636
  %fi108 = call i32 @injectFault1(i64 635, i32 %33, i32 12, i32 0, i32 1, i32 0, i8* getelementptr inbounds ([4 x i8]* @mul_namestr, i32 0, i32 0)), !llfi_injectfault !4
  %34 = load i32* %i, align 4, !llfi_index !637
  %fi119 = call i32 @injectFault1(i64 636, i32 %34, i32 27, i32 0, i32 1, i32 0, i8* getelementptr inbounds ([5 x i8]* @load_namestr, i32 0, i32 0)), !llfi_injectfault !4
  %35 = add nsw i32 %fi108, %fi119, !llfi_index !638
  %fi120 = call i32 @injectFault1(i64 637, i32 %35, i32 8, i32 0, i32 1, i32 0, i8* getelementptr inbounds ([4 x i8]* @add_namestr, i32 0, i32 0)), !llfi_injectfault !4
  %36 = add nsw i32 %fi120, 1, !llfi_index !639
  %fi121 = call i32 @injectFault1(i64 638, i32 %36, i32 8, i32 0, i32 1, i32 0, i8* getelementptr inbounds ([4 x i8]* @add_namestr, i32 0, i32 0)), !llfi_injectfault !4
  %37 = mul nsw i32 %fi117, %fi121, !llfi_index !640
  %fi122 = call i32 @injectFault1(i64 639, i32 %37, i32 12, i32 0, i32 1, i32 0, i8* getelementptr inbounds ([4 x i8]* @mul_namestr, i32 0, i32 0)), !llfi_injectfault !4
  %38 = load i32* %b_index_x, align 4, !llfi_index !641
  %fi123 = call i32 @injectFault1(i64 640, i32 %38, i32 27, i32 0, i32 1, i32 0, i8* getelementptr inbounds ([5 x i8]* @load_namestr, i32 0, i32 0)), !llfi_injectfault !4
  %39 = mul nsw i32 %fi123, 16, !llfi_index !642
  %fi124 = call i32 @injectFault1(i64 641, i32 %39, i32 12, i32 0, i32 1, i32 0, i8* getelementptr inbounds ([4 x i8]* @mul_namestr, i32 0, i32 0)), !llfi_injectfault !4
  %40 = add nsw i32 %fi122, %fi124, !llfi_index !643
  %fi125 = call i32 @injectFault1(i64 642, i32 %40, i32 8, i32 0, i32 1, i32 0, i8* getelementptr inbounds ([4 x i8]* @add_namestr, i32 0, i32 0)), !llfi_injectfault !4
  %41 = load i32* %j, align 4, !llfi_index !644
  %fi126 = call i32 @injectFault1(i64 643, i32 %41, i32 27, i32 0, i32 1, i32 0, i8* getelementptr inbounds ([5 x i8]* @load_namestr, i32 0, i32 0)), !llfi_injectfault !4
  %42 = add nsw i32 %fi125, %fi126, !llfi_index !645
  %fi127 = call i32 @injectFault1(i64 644, i32 %42, i32 8, i32 0, i32 1, i32 0, i8* getelementptr inbounds ([4 x i8]* @add_namestr, i32 0, i32 0)), !llfi_injectfault !4
  %43 = add nsw i32 %fi127, 1, !llfi_index !646
  %fi128 = call i32 @injectFault1(i64 645, i32 %43, i32 8, i32 0, i32 1, i32 0, i8* getelementptr inbounds ([4 x i8]* @add_namestr, i32 0, i32 0)), !llfi_injectfault !4
  %44 = sext i32 %fi128 to i64, !llfi_index !647
  %fi129 = call i64 @injectFault2(i64 646, i64 %44, i32 35, i32 0, i32 1, i32 0, i8* getelementptr inbounds ([5 x i8]* @sext_namestr, i32 0, i32 0)), !llfi_injectfault !4
  %45 = load i32** %3, align 8, !llfi_index !648
  %fi130 = call i32* @injectFault7(i64 647, i32* %45, i32 27, i32 0, i32 1, i32 0, i8* getelementptr inbounds ([5 x i8]* @load_namestr, i32 0, i32 0)), !llfi_injectfault !4
  %46 = getelementptr i32* %fi130, i64 %fi129, !llfi_index !649
  %fi131 = call i32* @injectFault7(i64 648, i32* %46, i32 29, i32 0, i32 1, i32 0, i8* getelementptr inbounds ([14 x i8]* @getelementptr_namestr, i32 0, i32 0)), !llfi_injectfault !4
  %47 = load i32* %fi131, align 4, !llfi_index !650
  %fi132 = call i32 @injectFault1(i64 649, i32 %47, i32 27, i32 0, i32 1, i32 0, i8* getelementptr inbounds ([5 x i8]* @load_namestr, i32 0, i32 0)), !llfi_injectfault !4
  %48 = load i32* %i, align 4, !llfi_index !651
  %fi133 = call i32 @injectFault1(i64 650, i32 %48, i32 27, i32 0, i32 1, i32 0, i8* getelementptr inbounds ([5 x i8]* @load_namestr, i32 0, i32 0)), !llfi_injectfault !4
  %49 = mul nsw i32 %fi133, 16, !llfi_index !652
  %fi134 = call i32 @injectFault1(i64 651, i32 %49, i32 12, i32 0, i32 1, i32 0, i8* getelementptr inbounds ([4 x i8]* @mul_namestr, i32 0, i32 0)), !llfi_injectfault !4
  %50 = load i32* %j, align 4, !llfi_index !653
  %fi135 = call i32 @injectFault1(i64 652, i32 %50, i32 27, i32 0, i32 1, i32 0, i8* getelementptr inbounds ([5 x i8]* @load_namestr, i32 0, i32 0)), !llfi_injectfault !4
  %51 = add nsw i32 %fi134, %fi135, !llfi_index !654
  %fi136 = call i32 @injectFault1(i64 653, i32 %51, i32 8, i32 0, i32 1, i32 0, i8* getelementptr inbounds ([4 x i8]* @add_namestr, i32 0, i32 0)), !llfi_injectfault !4
  %52 = sext i32 %fi136 to i64, !llfi_index !655
  %fi137 = call i64 @injectFault2(i64 654, i64 %52, i32 35, i32 0, i32 1, i32 0, i8* getelementptr inbounds ([5 x i8]* @sext_namestr, i32 0, i32 0)), !llfi_injectfault !4
  %53 = getelementptr [256 x i32]* %reference_l, i32 0, i64 %fi137, !llfi_index !656
  %fi138 = call i32* @injectFault7(i64 655, i32* %53, i32 29, i32 0, i32 1, i32 0, i8* getelementptr inbounds ([14 x i8]* @getelementptr_namestr, i32 0, i32 0)), !llfi_injectfault !4
  store i32 %fi132, i32* %fi138, align 4, !llfi_index !657
  br label %54, !llfi_index !658

; <label>:54                                      ; preds = %30
  %55 = load i32* %j, align 4, !llfi_index !659
  %fi139 = call i32 @injectFault1(i64 658, i32 %55, i32 27, i32 0, i32 1, i32 0, i8* getelementptr inbounds ([5 x i8]* @load_namestr, i32 0, i32 0)), !llfi_injectfault !4
  %56 = add nsw i32 %fi139, 1, !llfi_index !660
  %fi140 = call i32 @injectFault1(i64 659, i32 %56, i32 8, i32 0, i32 1, i32 0, i8* getelementptr inbounds ([4 x i8]* @add_namestr, i32 0, i32 0)), !llfi_injectfault !4
  store i32 %fi140, i32* %j, align 4, !llfi_index !661
  br label %27, !llfi_index !662

; <label>:57                                      ; preds = %27
  br label %58, !llfi_index !663

; <label>:58                                      ; preds = %57
  %59 = load i32* %i, align 4, !llfi_index !664
  %fi141 = call i32 @injectFault1(i64 663, i32 %59, i32 27, i32 0, i32 1, i32 0, i8* getelementptr inbounds ([5 x i8]* @load_namestr, i32 0, i32 0)), !llfi_injectfault !4
  %60 = add nsw i32 %fi141, 1, !llfi_index !665
  %fi142 = call i32 @injectFault1(i64 664, i32 %60, i32 8, i32 0, i32 1, i32 0, i8* getelementptr inbounds ([4 x i8]* @add_namestr, i32 0, i32 0)), !llfi_injectfault !4
  store i32 %fi142, i32* %i, align 4, !llfi_index !666
  br label %23, !llfi_index !667

; <label>:61                                      ; preds = %23
  store i32 0, i32* %i1, align 4, !llfi_index !668
  br label %62, !llfi_index !669

; <label>:62                                      ; preds = %95, %61
  %63 = load i32* %i1, align 4, !llfi_index !670
  %fi143 = call i32 @injectFault1(i64 669, i32 %63, i32 27, i32 0, i32 1, i32 0, i8* getelementptr inbounds ([5 x i8]* @load_namestr, i32 0, i32 0)), !llfi_injectfault !4
  %64 = icmp slt i32 %fi143, 17, !llfi_index !671
  %fi144 = call i1 @injectFault4(i64 670, i1 %64, i32 46, i32 0, i32 1, i32 0, i8* getelementptr inbounds ([5 x i8]* @icmp_namestr, i32 0, i32 0)), !llfi_injectfault !4
  br i1 %fi144, label %65, label %98, !llfi_index !672

; <label>:65                                      ; preds = %62
  store i32 0, i32* %j2, align 4, !llfi_index !673
  br label %66, !llfi_index !674

; <label>:66                                      ; preds = %91, %65
  %67 = load i32* %j2, align 4, !llfi_index !675
  %fi151 = call i32 @injectFault1(i64 674, i32 %67, i32 27, i32 0, i32 1, i32 0, i8* getelementptr inbounds ([5 x i8]* @load_namestr, i32 0, i32 0)), !llfi_injectfault !4
  %68 = icmp slt i32 %fi151, 17, !llfi_index !676
  %fi152 = call i1 @injectFault4(i64 675, i1 %68, i32 46, i32 0, i32 1, i32 0, i8* getelementptr inbounds ([5 x i8]* @icmp_namestr, i32 0, i32 0)), !llfi_injectfault !4
  br i1 %fi152, label %69, label %94, !llfi_index !677

; <label>:69                                      ; preds = %66
  %70 = load i32* %5, align 4, !llfi_index !678
  %fi153 = call i32 @injectFault1(i64 677, i32 %70, i32 27, i32 0, i32 1, i32 0, i8* getelementptr inbounds ([5 x i8]* @load_namestr, i32 0, i32 0)), !llfi_injectfault !4
  %71 = load i32* %b_index_y, align 4, !llfi_index !679
  %fi154 = call i32 @injectFault1(i64 678, i32 %71, i32 27, i32 0, i32 1, i32 0, i8* getelementptr inbounds ([5 x i8]* @load_namestr, i32 0, i32 0)), !llfi_injectfault !4
  %72 = mul nsw i32 %fi154, 16, !llfi_index !680
  %fi155 = call i32 @injectFault1(i64 679, i32 %72, i32 12, i32 0, i32 1, i32 0, i8* getelementptr inbounds ([4 x i8]* @mul_namestr, i32 0, i32 0)), !llfi_injectfault !4
  %73 = load i32* %i1, align 4, !llfi_index !681
  %fi156 = call i32 @injectFault1(i64 680, i32 %73, i32 27, i32 0, i32 1, i32 0, i8* getelementptr inbounds ([5 x i8]* @load_namestr, i32 0, i32 0)), !llfi_injectfault !4
  %74 = add nsw i32 %fi155, %fi156, !llfi_index !682
  %fi157 = call i32 @injectFault1(i64 681, i32 %74, i32 8, i32 0, i32 1, i32 0, i8* getelementptr inbounds ([4 x i8]* @add_namestr, i32 0, i32 0)), !llfi_injectfault !4
  %75 = mul nsw i32 %fi153, %fi157, !llfi_index !683
  %fi158 = call i32 @injectFault1(i64 682, i32 %75, i32 12, i32 0, i32 1, i32 0, i8* getelementptr inbounds ([4 x i8]* @mul_namestr, i32 0, i32 0)), !llfi_injectfault !4
  %76 = load i32* %b_index_x, align 4, !llfi_index !684
  %fi159 = call i32 @injectFault1(i64 683, i32 %76, i32 27, i32 0, i32 1, i32 0, i8* getelementptr inbounds ([5 x i8]* @load_namestr, i32 0, i32 0)), !llfi_injectfault !4
  %77 = mul nsw i32 %fi159, 16, !llfi_index !685
  %fi160 = call i32 @injectFault1(i64 684, i32 %77, i32 12, i32 0, i32 1, i32 0, i8* getelementptr inbounds ([4 x i8]* @mul_namestr, i32 0, i32 0)), !llfi_injectfault !4
  %78 = add nsw i32 %fi158, %fi160, !llfi_index !686
  %fi161 = call i32 @injectFault1(i64 685, i32 %78, i32 8, i32 0, i32 1, i32 0, i8* getelementptr inbounds ([4 x i8]* @add_namestr, i32 0, i32 0)), !llfi_injectfault !4
  %79 = load i32* %j2, align 4, !llfi_index !687
  %fi162 = call i32 @injectFault1(i64 686, i32 %79, i32 27, i32 0, i32 1, i32 0, i8* getelementptr inbounds ([5 x i8]* @load_namestr, i32 0, i32 0)), !llfi_injectfault !4
  %80 = add nsw i32 %fi161, %fi162, !llfi_index !688
  %fi163 = call i32 @injectFault1(i64 687, i32 %80, i32 8, i32 0, i32 1, i32 0, i8* getelementptr inbounds ([4 x i8]* @add_namestr, i32 0, i32 0)), !llfi_injectfault !4
  %81 = sext i32 %fi163 to i64, !llfi_index !689
  %fi164 = call i64 @injectFault2(i64 688, i64 %81, i32 35, i32 0, i32 1, i32 0, i8* getelementptr inbounds ([5 x i8]* @sext_namestr, i32 0, i32 0)), !llfi_injectfault !4
  %82 = load i32** %1, align 8, !llfi_index !690
  %fi165 = call i32* @injectFault7(i64 689, i32* %82, i32 27, i32 0, i32 1, i32 0, i8* getelementptr inbounds ([5 x i8]* @load_namestr, i32 0, i32 0)), !llfi_injectfault !4
  %83 = getelementptr i32* %fi165, i64 %fi164, !llfi_index !691
  %fi166 = call i32* @injectFault7(i64 690, i32* %83, i32 29, i32 0, i32 1, i32 0, i8* getelementptr inbounds ([14 x i8]* @getelementptr_namestr, i32 0, i32 0)), !llfi_injectfault !4
  %84 = load i32* %fi166, align 4, !llfi_index !692
  %fi167 = call i32 @injectFault1(i64 691, i32 %84, i32 27, i32 0, i32 1, i32 0, i8* getelementptr inbounds ([5 x i8]* @load_namestr, i32 0, i32 0)), !llfi_injectfault !4
  %85 = load i32* %i1, align 4, !llfi_index !693
  %fi168 = call i32 @injectFault1(i64 692, i32 %85, i32 27, i32 0, i32 1, i32 0, i8* getelementptr inbounds ([5 x i8]* @load_namestr, i32 0, i32 0)), !llfi_injectfault !4
  %86 = mul nsw i32 %fi168, 17, !llfi_index !694
  %fi169 = call i32 @injectFault1(i64 693, i32 %86, i32 12, i32 0, i32 1, i32 0, i8* getelementptr inbounds ([4 x i8]* @mul_namestr, i32 0, i32 0)), !llfi_injectfault !4
  %87 = load i32* %j2, align 4, !llfi_index !695
  %fi170 = call i32 @injectFault1(i64 694, i32 %87, i32 27, i32 0, i32 1, i32 0, i8* getelementptr inbounds ([5 x i8]* @load_namestr, i32 0, i32 0)), !llfi_injectfault !4
  %88 = add nsw i32 %fi169, %fi170, !llfi_index !696
  %fi171 = call i32 @injectFault1(i64 695, i32 %88, i32 8, i32 0, i32 1, i32 0, i8* getelementptr inbounds ([4 x i8]* @add_namestr, i32 0, i32 0)), !llfi_injectfault !4
  %89 = sext i32 %fi171 to i64, !llfi_index !697
  %fi172 = call i64 @injectFault2(i64 696, i64 %89, i32 35, i32 0, i32 1, i32 0, i8* getelementptr inbounds ([5 x i8]* @sext_namestr, i32 0, i32 0)), !llfi_injectfault !4
  %90 = getelementptr [289 x i32]* %input_itemsets_l, i32 0, i64 %fi172, !llfi_index !698
  %fi173 = call i32* @injectFault7(i64 697, i32* %90, i32 29, i32 0, i32 1, i32 0, i8* getelementptr inbounds ([14 x i8]* @getelementptr_namestr, i32 0, i32 0)), !llfi_injectfault !4
  store i32 %fi167, i32* %fi173, align 4, !llfi_index !699
  br label %91, !llfi_index !700

; <label>:91                                      ; preds = %69
  %92 = load i32* %j2, align 4, !llfi_index !701
  %fi174 = call i32 @injectFault1(i64 700, i32 %92, i32 27, i32 0, i32 1, i32 0, i8* getelementptr inbounds ([5 x i8]* @load_namestr, i32 0, i32 0)), !llfi_injectfault !4
  %93 = add nsw i32 %fi174, 1, !llfi_index !702
  %fi175 = call i32 @injectFault1(i64 701, i32 %93, i32 8, i32 0, i32 1, i32 0, i8* getelementptr inbounds ([4 x i8]* @add_namestr, i32 0, i32 0)), !llfi_injectfault !4
  store i32 %fi175, i32* %j2, align 4, !llfi_index !703
  br label %66, !llfi_index !704

; <label>:94                                      ; preds = %66
  br label %95, !llfi_index !705

; <label>:95                                      ; preds = %94
  %96 = load i32* %i1, align 4, !llfi_index !706
  %fi176 = call i32 @injectFault1(i64 705, i32 %96, i32 27, i32 0, i32 1, i32 0, i8* getelementptr inbounds ([5 x i8]* @load_namestr, i32 0, i32 0)), !llfi_injectfault !4
  %97 = add nsw i32 %fi176, 1, !llfi_index !707
  %fi177 = call i32 @injectFault1(i64 706, i32 %97, i32 8, i32 0, i32 1, i32 0, i8* getelementptr inbounds ([4 x i8]* @add_namestr, i32 0, i32 0)), !llfi_injectfault !4
  store i32 %fi177, i32* %i1, align 4, !llfi_index !708
  br label %62, !llfi_index !709

; <label>:98                                      ; preds = %62
  store i32 1, i32* %i3, align 4, !llfi_index !710
  br label %99, !llfi_index !711

; <label>:99                                      ; preds = %157, %98
  %100 = load i32* %i3, align 4, !llfi_index !712
  %fi178 = call i32 @injectFault1(i64 711, i32 %100, i32 27, i32 0, i32 1, i32 0, i8* getelementptr inbounds ([5 x i8]* @load_namestr, i32 0, i32 0)), !llfi_injectfault !4
  %101 = icmp slt i32 %fi178, 17, !llfi_index !713
  %fi179 = call i1 @injectFault4(i64 712, i1 %101, i32 46, i32 0, i32 1, i32 0, i8* getelementptr inbounds ([5 x i8]* @icmp_namestr, i32 0, i32 0)), !llfi_injectfault !4
  br i1 %fi179, label %102, label %160, !llfi_index !714

; <label>:102                                     ; preds = %99
  store i32 1, i32* %j4, align 4, !llfi_index !715
  br label %103, !llfi_index !716

; <label>:103                                     ; preds = %153, %102
  %104 = load i32* %j4, align 4, !llfi_index !717
  %fi180 = call i32 @injectFault1(i64 716, i32 %104, i32 27, i32 0, i32 1, i32 0, i8* getelementptr inbounds ([5 x i8]* @load_namestr, i32 0, i32 0)), !llfi_injectfault !4
  %105 = icmp slt i32 %fi180, 17, !llfi_index !718
  %fi181 = call i1 @injectFault4(i64 717, i1 %105, i32 46, i32 0, i32 1, i32 0, i8* getelementptr inbounds ([5 x i8]* @icmp_namestr, i32 0, i32 0)), !llfi_injectfault !4
  br i1 %fi181, label %106, label %156, !llfi_index !719

; <label>:106                                     ; preds = %103
  %107 = load i32* %i3, align 4, !llfi_index !720
  %fi182 = call i32 @injectFault1(i64 719, i32 %107, i32 27, i32 0, i32 1, i32 0, i8* getelementptr inbounds ([5 x i8]* @load_namestr, i32 0, i32 0)), !llfi_injectfault !4
  %108 = sub nsw i32 %fi182, 1, !llfi_index !721
  %fi183 = call i32 @injectFault1(i64 720, i32 %108, i32 10, i32 0, i32 1, i32 0, i8* getelementptr inbounds ([4 x i8]* @sub_namestr, i32 0, i32 0)), !llfi_injectfault !4
  %109 = mul nsw i32 %fi183, 17, !llfi_index !722
  %fi184 = call i32 @injectFault1(i64 721, i32 %109, i32 12, i32 0, i32 1, i32 0, i8* getelementptr inbounds ([4 x i8]* @mul_namestr, i32 0, i32 0)), !llfi_injectfault !4
  %110 = load i32* %j4, align 4, !llfi_index !723
  %fi185 = call i32 @injectFault1(i64 722, i32 %110, i32 27, i32 0, i32 1, i32 0, i8* getelementptr inbounds ([5 x i8]* @load_namestr, i32 0, i32 0)), !llfi_injectfault !4
  %111 = add nsw i32 %fi184, %fi185, !llfi_index !724
  %fi186 = call i32 @injectFault1(i64 723, i32 %111, i32 8, i32 0, i32 1, i32 0, i8* getelementptr inbounds ([4 x i8]* @add_namestr, i32 0, i32 0)), !llfi_injectfault !4
  %112 = sub nsw i32 %fi186, 1, !llfi_index !725
  %fi187 = call i32 @injectFault1(i64 724, i32 %112, i32 10, i32 0, i32 1, i32 0, i8* getelementptr inbounds ([4 x i8]* @sub_namestr, i32 0, i32 0)), !llfi_injectfault !4
  %113 = sext i32 %fi187 to i64, !llfi_index !726
  %fi188 = call i64 @injectFault2(i64 725, i64 %113, i32 35, i32 0, i32 1, i32 0, i8* getelementptr inbounds ([5 x i8]* @sext_namestr, i32 0, i32 0)), !llfi_injectfault !4
  %114 = getelementptr [289 x i32]* %input_itemsets_l, i32 0, i64 %fi188, !llfi_index !727
  %fi189 = call i32* @injectFault7(i64 726, i32* %114, i32 29, i32 0, i32 1, i32 0, i8* getelementptr inbounds ([14 x i8]* @getelementptr_namestr, i32 0, i32 0)), !llfi_injectfault !4
  %115 = load i32* %fi189, align 4, !llfi_index !728
  %fi190 = call i32 @injectFault1(i64 727, i32 %115, i32 27, i32 0, i32 1, i32 0, i8* getelementptr inbounds ([5 x i8]* @load_namestr, i32 0, i32 0)), !llfi_injectfault !4
  %116 = load i32* %i3, align 4, !llfi_index !729
  %fi191 = call i32 @injectFault1(i64 728, i32 %116, i32 27, i32 0, i32 1, i32 0, i8* getelementptr inbounds ([5 x i8]* @load_namestr, i32 0, i32 0)), !llfi_injectfault !4
  %117 = sub nsw i32 %fi191, 1, !llfi_index !730
  %fi192 = call i32 @injectFault1(i64 729, i32 %117, i32 10, i32 0, i32 1, i32 0, i8* getelementptr inbounds ([4 x i8]* @sub_namestr, i32 0, i32 0)), !llfi_injectfault !4
  %118 = mul nsw i32 %fi192, 16, !llfi_index !731
  %fi193 = call i32 @injectFault1(i64 730, i32 %118, i32 12, i32 0, i32 1, i32 0, i8* getelementptr inbounds ([4 x i8]* @mul_namestr, i32 0, i32 0)), !llfi_injectfault !4
  %119 = load i32* %j4, align 4, !llfi_index !732
  %fi194 = call i32 @injectFault1(i64 731, i32 %119, i32 27, i32 0, i32 1, i32 0, i8* getelementptr inbounds ([5 x i8]* @load_namestr, i32 0, i32 0)), !llfi_injectfault !4
  %120 = add nsw i32 %fi193, %fi194, !llfi_index !733
  %fi195 = call i32 @injectFault1(i64 732, i32 %120, i32 8, i32 0, i32 1, i32 0, i8* getelementptr inbounds ([4 x i8]* @add_namestr, i32 0, i32 0)), !llfi_injectfault !4
  %121 = sub nsw i32 %fi195, 1, !llfi_index !734
  %fi196 = call i32 @injectFault1(i64 733, i32 %121, i32 10, i32 0, i32 1, i32 0, i8* getelementptr inbounds ([4 x i8]* @sub_namestr, i32 0, i32 0)), !llfi_injectfault !4
  %122 = sext i32 %fi196 to i64, !llfi_index !735
  %fi197 = call i64 @injectFault2(i64 734, i64 %122, i32 35, i32 0, i32 1, i32 0, i8* getelementptr inbounds ([5 x i8]* @sext_namestr, i32 0, i32 0)), !llfi_injectfault !4
  %123 = getelementptr [256 x i32]* %reference_l, i32 0, i64 %fi197, !llfi_index !736
  %fi198 = call i32* @injectFault7(i64 735, i32* %123, i32 29, i32 0, i32 1, i32 0, i8* getelementptr inbounds ([14 x i8]* @getelementptr_namestr, i32 0, i32 0)), !llfi_injectfault !4
  %124 = load i32* %fi198, align 4, !llfi_index !737
  %fi199 = call i32 @injectFault1(i64 736, i32 %124, i32 27, i32 0, i32 1, i32 0, i8* getelementptr inbounds ([5 x i8]* @load_namestr, i32 0, i32 0)), !llfi_injectfault !4
  %125 = add nsw i32 %fi190, %fi199, !llfi_index !738
  %fi200 = call i32 @injectFault1(i64 737, i32 %125, i32 8, i32 0, i32 1, i32 0, i8* getelementptr inbounds ([4 x i8]* @add_namestr, i32 0, i32 0)), !llfi_injectfault !4
  %126 = load i32* %i3, align 4, !llfi_index !739
  %fi201 = call i32 @injectFault1(i64 738, i32 %126, i32 27, i32 0, i32 1, i32 0, i8* getelementptr inbounds ([5 x i8]* @load_namestr, i32 0, i32 0)), !llfi_injectfault !4
  %127 = mul nsw i32 %fi201, 17, !llfi_index !740
  %fi202 = call i32 @injectFault1(i64 739, i32 %127, i32 12, i32 0, i32 1, i32 0, i8* getelementptr inbounds ([4 x i8]* @mul_namestr, i32 0, i32 0)), !llfi_injectfault !4
  %128 = load i32* %j4, align 4, !llfi_index !741
  %fi203 = call i32 @injectFault1(i64 740, i32 %128, i32 27, i32 0, i32 1, i32 0, i8* getelementptr inbounds ([5 x i8]* @load_namestr, i32 0, i32 0)), !llfi_injectfault !4
  %129 = add nsw i32 %fi202, %fi203, !llfi_index !742
  %fi145 = call i32 @injectFault1(i64 741, i32 %129, i32 8, i32 0, i32 1, i32 0, i8* getelementptr inbounds ([4 x i8]* @add_namestr, i32 0, i32 0)), !llfi_injectfault !4
  %130 = sub nsw i32 %fi145, 1, !llfi_index !743
  %fi146 = call i32 @injectFault1(i64 742, i32 %130, i32 10, i32 0, i32 1, i32 0, i8* getelementptr inbounds ([4 x i8]* @sub_namestr, i32 0, i32 0)), !llfi_injectfault !4
  %131 = sext i32 %fi146 to i64, !llfi_index !744
  %fi147 = call i64 @injectFault2(i64 743, i64 %131, i32 35, i32 0, i32 1, i32 0, i8* getelementptr inbounds ([5 x i8]* @sext_namestr, i32 0, i32 0)), !llfi_injectfault !4
  %132 = getelementptr [289 x i32]* %input_itemsets_l, i32 0, i64 %fi147, !llfi_index !745
  %fi148 = call i32* @injectFault7(i64 744, i32* %132, i32 29, i32 0, i32 1, i32 0, i8* getelementptr inbounds ([14 x i8]* @getelementptr_namestr, i32 0, i32 0)), !llfi_injectfault !4
  %133 = load i32* %fi148, align 4, !llfi_index !746
  %fi149 = call i32 @injectFault1(i64 745, i32 %133, i32 27, i32 0, i32 1, i32 0, i8* getelementptr inbounds ([5 x i8]* @load_namestr, i32 0, i32 0)), !llfi_injectfault !4
  %134 = load i32* %6, align 4, !llfi_index !747
  %fi150 = call i32 @injectFault1(i64 746, i32 %134, i32 27, i32 0, i32 1, i32 0, i8* getelementptr inbounds ([5 x i8]* @load_namestr, i32 0, i32 0)), !llfi_injectfault !4
  %135 = sub nsw i32 %fi149, %fi150, !llfi_index !748
  %fi213 = call i32 @injectFault1(i64 747, i32 %135, i32 10, i32 0, i32 1, i32 0, i8* getelementptr inbounds ([4 x i8]* @sub_namestr, i32 0, i32 0)), !llfi_injectfault !4
  %136 = load i32* %i3, align 4, !llfi_index !749
  %fi214 = call i32 @injectFault1(i64 748, i32 %136, i32 27, i32 0, i32 1, i32 0, i8* getelementptr inbounds ([5 x i8]* @load_namestr, i32 0, i32 0)), !llfi_injectfault !4
  %137 = sub nsw i32 %fi214, 1, !llfi_index !750
  %fi215 = call i32 @injectFault1(i64 749, i32 %137, i32 10, i32 0, i32 1, i32 0, i8* getelementptr inbounds ([4 x i8]* @sub_namestr, i32 0, i32 0)), !llfi_injectfault !4
  %138 = mul nsw i32 %fi215, 17, !llfi_index !751
  %fi216 = call i32 @injectFault1(i64 750, i32 %138, i32 12, i32 0, i32 1, i32 0, i8* getelementptr inbounds ([4 x i8]* @mul_namestr, i32 0, i32 0)), !llfi_injectfault !4
  %139 = load i32* %j4, align 4, !llfi_index !752
  %fi217 = call i32 @injectFault1(i64 751, i32 %139, i32 27, i32 0, i32 1, i32 0, i8* getelementptr inbounds ([5 x i8]* @load_namestr, i32 0, i32 0)), !llfi_injectfault !4
  %140 = add nsw i32 %fi216, %fi217, !llfi_index !753
  %fi218 = call i32 @injectFault1(i64 752, i32 %140, i32 8, i32 0, i32 1, i32 0, i8* getelementptr inbounds ([4 x i8]* @add_namestr, i32 0, i32 0)), !llfi_injectfault !4
  %141 = sext i32 %fi218 to i64, !llfi_index !754
  %fi219 = call i64 @injectFault2(i64 753, i64 %141, i32 35, i32 0, i32 1, i32 0, i8* getelementptr inbounds ([5 x i8]* @sext_namestr, i32 0, i32 0)), !llfi_injectfault !4
  %142 = getelementptr [289 x i32]* %input_itemsets_l, i32 0, i64 %fi219, !llfi_index !755
  %fi220 = call i32* @injectFault7(i64 754, i32* %142, i32 29, i32 0, i32 1, i32 0, i8* getelementptr inbounds ([14 x i8]* @getelementptr_namestr, i32 0, i32 0)), !llfi_injectfault !4
  %143 = load i32* %fi220, align 4, !llfi_index !756
  %fi221 = call i32 @injectFault1(i64 755, i32 %143, i32 27, i32 0, i32 1, i32 0, i8* getelementptr inbounds ([5 x i8]* @load_namestr, i32 0, i32 0)), !llfi_injectfault !4
  %144 = load i32* %6, align 4, !llfi_index !757
  %fi222 = call i32 @injectFault1(i64 756, i32 %144, i32 27, i32 0, i32 1, i32 0, i8* getelementptr inbounds ([5 x i8]* @load_namestr, i32 0, i32 0)), !llfi_injectfault !4
  %145 = sub nsw i32 %fi221, %fi222, !llfi_index !758
  %fi223 = call i32 @injectFault1(i64 757, i32 %145, i32 10, i32 0, i32 1, i32 0, i8* getelementptr inbounds ([4 x i8]* @sub_namestr, i32 0, i32 0)), !llfi_injectfault !4
  %146 = call i32 @_Z7maximumiii(i32 %fi200, i32 %fi213, i32 %fi223), !llfi_index !759
  %147 = load i32* %i3, align 4, !llfi_index !760
  %fi224 = call i32 @injectFault1(i64 759, i32 %147, i32 27, i32 0, i32 1, i32 0, i8* getelementptr inbounds ([5 x i8]* @load_namestr, i32 0, i32 0)), !llfi_injectfault !4
  %148 = mul nsw i32 %fi224, 17, !llfi_index !761
  %fi225 = call i32 @injectFault1(i64 760, i32 %148, i32 12, i32 0, i32 1, i32 0, i8* getelementptr inbounds ([4 x i8]* @mul_namestr, i32 0, i32 0)), !llfi_injectfault !4
  %149 = load i32* %j4, align 4, !llfi_index !762
  %fi226 = call i32 @injectFault1(i64 761, i32 %149, i32 27, i32 0, i32 1, i32 0, i8* getelementptr inbounds ([5 x i8]* @load_namestr, i32 0, i32 0)), !llfi_injectfault !4
  %150 = add nsw i32 %fi225, %fi226, !llfi_index !763
  %fi227 = call i32 @injectFault1(i64 762, i32 %150, i32 8, i32 0, i32 1, i32 0, i8* getelementptr inbounds ([4 x i8]* @add_namestr, i32 0, i32 0)), !llfi_injectfault !4
  %151 = sext i32 %fi227 to i64, !llfi_index !764
  %fi228 = call i64 @injectFault2(i64 763, i64 %151, i32 35, i32 0, i32 1, i32 0, i8* getelementptr inbounds ([5 x i8]* @sext_namestr, i32 0, i32 0)), !llfi_injectfault !4
  %152 = getelementptr [289 x i32]* %input_itemsets_l, i32 0, i64 %fi228, !llfi_index !765
  %fi229 = call i32* @injectFault7(i64 764, i32* %152, i32 29, i32 0, i32 1, i32 0, i8* getelementptr inbounds ([14 x i8]* @getelementptr_namestr, i32 0, i32 0)), !llfi_injectfault !4
  store i32 %146, i32* %fi229, align 4, !llfi_index !766
  br label %153, !llfi_index !767

; <label>:153                                     ; preds = %106
  %154 = load i32* %j4, align 4, !llfi_index !768
  %fi230 = call i32 @injectFault1(i64 767, i32 %154, i32 27, i32 0, i32 1, i32 0, i8* getelementptr inbounds ([5 x i8]* @load_namestr, i32 0, i32 0)), !llfi_injectfault !4
  %155 = add nsw i32 %fi230, 1, !llfi_index !769
  %fi231 = call i32 @injectFault1(i64 768, i32 %155, i32 8, i32 0, i32 1, i32 0, i8* getelementptr inbounds ([4 x i8]* @add_namestr, i32 0, i32 0)), !llfi_injectfault !4
  store i32 %fi231, i32* %j4, align 4, !llfi_index !770
  br label %103, !llfi_index !771

; <label>:156                                     ; preds = %103
  br label %157, !llfi_index !772

; <label>:157                                     ; preds = %156
  %158 = load i32* %i3, align 4, !llfi_index !773
  %fi = call i32 @injectFault1(i64 772, i32 %158, i32 27, i32 0, i32 1, i32 0, i8* getelementptr inbounds ([5 x i8]* @load_namestr, i32 0, i32 0)), !llfi_injectfault !4
  %159 = add nsw i32 %fi, 1, !llfi_index !774
  %fi1 = call i32 @injectFault1(i64 773, i32 %159, i32 8, i32 0, i32 1, i32 0, i8* getelementptr inbounds ([4 x i8]* @add_namestr, i32 0, i32 0)), !llfi_injectfault !4
  store i32 %fi1, i32* %i3, align 4, !llfi_index !775
  br label %99, !llfi_index !776

; <label>:160                                     ; preds = %99
  store i32 0, i32* %i5, align 4, !llfi_index !777
  br label %161, !llfi_index !778

; <label>:161                                     ; preds = %198, %160
  %162 = load i32* %i5, align 4, !llfi_index !779
  %fi2 = call i32 @injectFault1(i64 778, i32 %162, i32 27, i32 0, i32 1, i32 0, i8* getelementptr inbounds ([5 x i8]* @load_namestr, i32 0, i32 0)), !llfi_injectfault !4
  %163 = icmp slt i32 %fi2, 16, !llfi_index !780
  %fi3 = call i1 @injectFault4(i64 779, i1 %163, i32 46, i32 0, i32 1, i32 0, i8* getelementptr inbounds ([5 x i8]* @icmp_namestr, i32 0, i32 0)), !llfi_injectfault !4
  br i1 %fi3, label %164, label %201, !llfi_index !781

; <label>:164                                     ; preds = %161
  store i32 0, i32* %j6, align 4, !llfi_index !782
  br label %165, !llfi_index !783

; <label>:165                                     ; preds = %194, %164
  %166 = load i32* %j6, align 4, !llfi_index !784
  %fi4 = call i32 @injectFault1(i64 783, i32 %166, i32 27, i32 0, i32 1, i32 0, i8* getelementptr inbounds ([5 x i8]* @load_namestr, i32 0, i32 0)), !llfi_injectfault !4
  %167 = icmp slt i32 %fi4, 16, !llfi_index !785
  %fi5 = call i1 @injectFault4(i64 784, i1 %167, i32 46, i32 0, i32 1, i32 0, i8* getelementptr inbounds ([5 x i8]* @icmp_namestr, i32 0, i32 0)), !llfi_injectfault !4
  br i1 %fi5, label %168, label %197, !llfi_index !786

; <label>:168                                     ; preds = %165
  %169 = load i32* %i5, align 4, !llfi_index !787
  %fi6 = call i32 @injectFault1(i64 786, i32 %169, i32 27, i32 0, i32 1, i32 0, i8* getelementptr inbounds ([5 x i8]* @load_namestr, i32 0, i32 0)), !llfi_injectfault !4
  %170 = add nsw i32 %fi6, 1, !llfi_index !788
  %fi7 = call i32 @injectFault1(i64 787, i32 %170, i32 8, i32 0, i32 1, i32 0, i8* getelementptr inbounds ([4 x i8]* @add_namestr, i32 0, i32 0)), !llfi_injectfault !4
  %171 = mul nsw i32 %fi7, 17, !llfi_index !789
  %fi8 = call i32 @injectFault1(i64 788, i32 %171, i32 12, i32 0, i32 1, i32 0, i8* getelementptr inbounds ([4 x i8]* @mul_namestr, i32 0, i32 0)), !llfi_injectfault !4
  %172 = load i32* %j6, align 4, !llfi_index !790
  %fi9 = call i32 @injectFault1(i64 789, i32 %172, i32 27, i32 0, i32 1, i32 0, i8* getelementptr inbounds ([5 x i8]* @load_namestr, i32 0, i32 0)), !llfi_injectfault !4
  %173 = add nsw i32 %fi8, %fi9, !llfi_index !791
  %fi10 = call i32 @injectFault1(i64 790, i32 %173, i32 8, i32 0, i32 1, i32 0, i8* getelementptr inbounds ([4 x i8]* @add_namestr, i32 0, i32 0)), !llfi_injectfault !4
  %174 = add nsw i32 %fi10, 1, !llfi_index !792
  %fi11 = call i32 @injectFault1(i64 791, i32 %174, i32 8, i32 0, i32 1, i32 0, i8* getelementptr inbounds ([4 x i8]* @add_namestr, i32 0, i32 0)), !llfi_injectfault !4
  %175 = sext i32 %fi11 to i64, !llfi_index !793
  %fi12 = call i64 @injectFault2(i64 792, i64 %175, i32 35, i32 0, i32 1, i32 0, i8* getelementptr inbounds ([5 x i8]* @sext_namestr, i32 0, i32 0)), !llfi_injectfault !4
  %176 = getelementptr [289 x i32]* %input_itemsets_l, i32 0, i64 %fi12, !llfi_index !794
  %fi13 = call i32* @injectFault7(i64 793, i32* %176, i32 29, i32 0, i32 1, i32 0, i8* getelementptr inbounds ([14 x i8]* @getelementptr_namestr, i32 0, i32 0)), !llfi_injectfault !4
  %177 = load i32* %fi13, align 4, !llfi_index !795
  %fi14 = call i32 @injectFault1(i64 794, i32 %177, i32 27, i32 0, i32 1, i32 0, i8* getelementptr inbounds ([5 x i8]* @load_namestr, i32 0, i32 0)), !llfi_injectfault !4
  %178 = load i32* %5, align 4, !llfi_index !796
  %fi15 = call i32 @injectFault1(i64 795, i32 %178, i32 27, i32 0, i32 1, i32 0, i8* getelementptr inbounds ([5 x i8]* @load_namestr, i32 0, i32 0)), !llfi_injectfault !4
  %179 = load i32* %b_index_y, align 4, !llfi_index !797
  %fi16 = call i32 @injectFault1(i64 796, i32 %179, i32 27, i32 0, i32 1, i32 0, i8* getelementptr inbounds ([5 x i8]* @load_namestr, i32 0, i32 0)), !llfi_injectfault !4
  %180 = mul nsw i32 %fi16, 16, !llfi_index !798
  %fi17 = call i32 @injectFault1(i64 797, i32 %180, i32 12, i32 0, i32 1, i32 0, i8* getelementptr inbounds ([4 x i8]* @mul_namestr, i32 0, i32 0)), !llfi_injectfault !4
  %181 = load i32* %i5, align 4, !llfi_index !799
  %fi18 = call i32 @injectFault1(i64 798, i32 %181, i32 27, i32 0, i32 1, i32 0, i8* getelementptr inbounds ([5 x i8]* @load_namestr, i32 0, i32 0)), !llfi_injectfault !4
  %182 = add nsw i32 %fi17, %fi18, !llfi_index !800
  %fi19 = call i32 @injectFault1(i64 799, i32 %182, i32 8, i32 0, i32 1, i32 0, i8* getelementptr inbounds ([4 x i8]* @add_namestr, i32 0, i32 0)), !llfi_injectfault !4
  %183 = add nsw i32 %fi19, 1, !llfi_index !801
  %fi20 = call i32 @injectFault1(i64 800, i32 %183, i32 8, i32 0, i32 1, i32 0, i8* getelementptr inbounds ([4 x i8]* @add_namestr, i32 0, i32 0)), !llfi_injectfault !4
  %184 = mul nsw i32 %fi15, %fi20, !llfi_index !802
  %fi21 = call i32 @injectFault1(i64 801, i32 %184, i32 12, i32 0, i32 1, i32 0, i8* getelementptr inbounds ([4 x i8]* @mul_namestr, i32 0, i32 0)), !llfi_injectfault !4
  %185 = load i32* %b_index_x, align 4, !llfi_index !803
  %fi22 = call i32 @injectFault1(i64 802, i32 %185, i32 27, i32 0, i32 1, i32 0, i8* getelementptr inbounds ([5 x i8]* @load_namestr, i32 0, i32 0)), !llfi_injectfault !4
  %186 = mul nsw i32 %fi22, 16, !llfi_index !804
  %fi23 = call i32 @injectFault1(i64 803, i32 %186, i32 12, i32 0, i32 1, i32 0, i8* getelementptr inbounds ([4 x i8]* @mul_namestr, i32 0, i32 0)), !llfi_injectfault !4
  %187 = add nsw i32 %fi21, %fi23, !llfi_index !805
  %fi24 = call i32 @injectFault1(i64 804, i32 %187, i32 8, i32 0, i32 1, i32 0, i8* getelementptr inbounds ([4 x i8]* @add_namestr, i32 0, i32 0)), !llfi_injectfault !4
  %188 = load i32* %j6, align 4, !llfi_index !806
  %fi25 = call i32 @injectFault1(i64 805, i32 %188, i32 27, i32 0, i32 1, i32 0, i8* getelementptr inbounds ([5 x i8]* @load_namestr, i32 0, i32 0)), !llfi_injectfault !4
  %189 = add nsw i32 %fi24, %fi25, !llfi_index !807
  %fi26 = call i32 @injectFault1(i64 806, i32 %189, i32 8, i32 0, i32 1, i32 0, i8* getelementptr inbounds ([4 x i8]* @add_namestr, i32 0, i32 0)), !llfi_injectfault !4
  %190 = add nsw i32 %fi26, 1, !llfi_index !808
  %fi27 = call i32 @injectFault1(i64 807, i32 %190, i32 8, i32 0, i32 1, i32 0, i8* getelementptr inbounds ([4 x i8]* @add_namestr, i32 0, i32 0)), !llfi_injectfault !4
  %191 = sext i32 %fi27 to i64, !llfi_index !809
  %fi28 = call i64 @injectFault2(i64 808, i64 %191, i32 35, i32 0, i32 1, i32 0, i8* getelementptr inbounds ([5 x i8]* @sext_namestr, i32 0, i32 0)), !llfi_injectfault !4
  %192 = load i32** %1, align 8, !llfi_index !810
  %fi29 = call i32* @injectFault7(i64 809, i32* %192, i32 27, i32 0, i32 1, i32 0, i8* getelementptr inbounds ([5 x i8]* @load_namestr, i32 0, i32 0)), !llfi_injectfault !4
  %193 = getelementptr i32* %fi29, i64 %fi28, !llfi_index !811
  %fi30 = call i32* @injectFault7(i64 810, i32* %193, i32 29, i32 0, i32 1, i32 0, i8* getelementptr inbounds ([14 x i8]* @getelementptr_namestr, i32 0, i32 0)), !llfi_injectfault !4
  store i32 %fi14, i32* %fi30, align 4, !llfi_index !812
  br label %194, !llfi_index !813

; <label>:194                                     ; preds = %168
  %195 = load i32* %j6, align 4, !llfi_index !814
  %fi31 = call i32 @injectFault1(i64 813, i32 %195, i32 27, i32 0, i32 1, i32 0, i8* getelementptr inbounds ([5 x i8]* @load_namestr, i32 0, i32 0)), !llfi_injectfault !4
  %196 = add nsw i32 %fi31, 1, !llfi_index !815
  %fi32 = call i32 @injectFault1(i64 814, i32 %196, i32 8, i32 0, i32 1, i32 0, i8* getelementptr inbounds ([4 x i8]* @add_namestr, i32 0, i32 0)), !llfi_injectfault !4
  store i32 %fi32, i32* %j6, align 4, !llfi_index !816
  br label %165, !llfi_index !817

; <label>:197                                     ; preds = %165
  br label %198, !llfi_index !818

; <label>:198                                     ; preds = %197
  %199 = load i32* %i5, align 4, !llfi_index !819
  %fi33 = call i32 @injectFault1(i64 818, i32 %199, i32 27, i32 0, i32 1, i32 0, i8* getelementptr inbounds ([5 x i8]* @load_namestr, i32 0, i32 0)), !llfi_injectfault !4
  %200 = add nsw i32 %fi33, 1, !llfi_index !820
  %fi34 = call i32 @injectFault1(i64 819, i32 %200, i32 8, i32 0, i32 1, i32 0, i8* getelementptr inbounds ([4 x i8]* @add_namestr, i32 0, i32 0)), !llfi_injectfault !4
  store i32 %fi34, i32* %i5, align 4, !llfi_index !821
  br label %161, !llfi_index !822

; <label>:201                                     ; preds = %161
  br label %202, !llfi_index !823

; <label>:202                                     ; preds = %201
  %203 = load i32* %b_index_x, align 4, !llfi_index !824
  %fi35 = call i32 @injectFault1(i64 823, i32 %203, i32 27, i32 0, i32 1, i32 0, i8* getelementptr inbounds ([5 x i8]* @load_namestr, i32 0, i32 0)), !llfi_injectfault !4
  %204 = add nsw i32 %fi35, 1, !llfi_index !825
  %fi36 = call i32 @injectFault1(i64 824, i32 %204, i32 8, i32 0, i32 1, i32 0, i8* getelementptr inbounds ([4 x i8]* @add_namestr, i32 0, i32 0)), !llfi_injectfault !4
  store i32 %fi36, i32* %b_index_x, align 4, !llfi_index !826
  br label %14, !llfi_index !827

; <label>:205                                     ; preds = %14
  br label %206, !llfi_index !828

; <label>:206                                     ; preds = %205
  %207 = load i32* %blk, align 4, !llfi_index !829
  %fi37 = call i32 @injectFault1(i64 828, i32 %207, i32 27, i32 0, i32 1, i32 0, i8* getelementptr inbounds ([5 x i8]* @load_namestr, i32 0, i32 0)), !llfi_injectfault !4
  %208 = add nsw i32 %fi37, 1, !llfi_index !830
  %fi38 = call i32 @injectFault1(i64 829, i32 %208, i32 8, i32 0, i32 1, i32 0, i8* getelementptr inbounds ([4 x i8]* @add_namestr, i32 0, i32 0)), !llfi_injectfault !4
  store i32 %fi38, i32* %blk, align 4, !llfi_index !831
  br label %7, !llfi_index !832

; <label>:209                                     ; preds = %7
  %210 = call i32 (i8*, ...)* @printf(i8* getelementptr inbounds ([32 x i8]* @.str4, i32 0, i32 0)), !llfi_index !833
  store i32 2, i32* %blk7, align 4, !llfi_index !834
  br label %211, !llfi_index !835

; <label>:211                                     ; preds = %418, %209
  %212 = load i32* %blk7, align 4, !llfi_index !836
  %fi39 = call i32 @injectFault1(i64 835, i32 %212, i32 27, i32 0, i32 1, i32 0, i8* getelementptr inbounds ([5 x i8]* @load_namestr, i32 0, i32 0)), !llfi_injectfault !4
  %213 = load i32* %5, align 4, !llfi_index !837
  %fi40 = call i32 @injectFault1(i64 836, i32 %213, i32 27, i32 0, i32 1, i32 0, i8* getelementptr inbounds ([5 x i8]* @load_namestr, i32 0, i32 0)), !llfi_injectfault !4
  %214 = sub nsw i32 %fi40, 1, !llfi_index !838
  %fi41 = call i32 @injectFault1(i64 837, i32 %214, i32 10, i32 0, i32 1, i32 0, i8* getelementptr inbounds ([4 x i8]* @sub_namestr, i32 0, i32 0)), !llfi_injectfault !4
  %215 = sdiv i32 %fi41, 16, !llfi_index !839
  %fi42 = call i32 @injectFault1(i64 838, i32 %215, i32 15, i32 0, i32 1, i32 0, i8* getelementptr inbounds ([5 x i8]* @sdiv_namestr, i32 0, i32 0)), !llfi_injectfault !4
  %216 = icmp sle i32 %fi39, %fi42, !llfi_index !840
  %fi43 = call i1 @injectFault4(i64 839, i1 %216, i32 46, i32 0, i32 1, i32 0, i8* getelementptr inbounds ([5 x i8]* @icmp_namestr, i32 0, i32 0)), !llfi_injectfault !4
  br i1 %fi43, label %217, label %421, !llfi_index !841

; <label>:217                                     ; preds = %211
  %218 = load i32* %blk7, align 4, !llfi_index !842
  %fi44 = call i32 @injectFault1(i64 841, i32 %218, i32 27, i32 0, i32 1, i32 0, i8* getelementptr inbounds ([5 x i8]* @load_namestr, i32 0, i32 0)), !llfi_injectfault !4
  %219 = sub nsw i32 %fi44, 1, !llfi_index !843
  %fi45 = call i32 @injectFault1(i64 842, i32 %219, i32 10, i32 0, i32 1, i32 0, i8* getelementptr inbounds ([4 x i8]* @sub_namestr, i32 0, i32 0)), !llfi_injectfault !4
  store i32 %fi45, i32* %b_index_x8, align 4, !llfi_index !844
  br label %220, !llfi_index !845

; <label>:220                                     ; preds = %414, %217
  %221 = load i32* %b_index_x8, align 4, !llfi_index !846
  %fi46 = call i32 @injectFault1(i64 845, i32 %221, i32 27, i32 0, i32 1, i32 0, i8* getelementptr inbounds ([5 x i8]* @load_namestr, i32 0, i32 0)), !llfi_injectfault !4
  %222 = load i32* %5, align 4, !llfi_index !847
  %fi47 = call i32 @injectFault1(i64 846, i32 %222, i32 27, i32 0, i32 1, i32 0, i8* getelementptr inbounds ([5 x i8]* @load_namestr, i32 0, i32 0)), !llfi_injectfault !4
  %223 = sub nsw i32 %fi47, 1, !llfi_index !848
  %fi48 = call i32 @injectFault1(i64 847, i32 %223, i32 10, i32 0, i32 1, i32 0, i8* getelementptr inbounds ([4 x i8]* @sub_namestr, i32 0, i32 0)), !llfi_injectfault !4
  %224 = sdiv i32 %fi48, 16, !llfi_index !849
  %fi49 = call i32 @injectFault1(i64 848, i32 %224, i32 15, i32 0, i32 1, i32 0, i8* getelementptr inbounds ([5 x i8]* @sdiv_namestr, i32 0, i32 0)), !llfi_injectfault !4
  %225 = icmp slt i32 %fi46, %fi49, !llfi_index !850
  %fi50 = call i1 @injectFault4(i64 849, i1 %225, i32 46, i32 0, i32 1, i32 0, i8* getelementptr inbounds ([5 x i8]* @icmp_namestr, i32 0, i32 0)), !llfi_injectfault !4
  br i1 %fi50, label %226, label %417, !llfi_index !851

; <label>:226                                     ; preds = %220
  %227 = load i32* %5, align 4, !llfi_index !852
  %fi51 = call i32 @injectFault1(i64 851, i32 %227, i32 27, i32 0, i32 1, i32 0, i8* getelementptr inbounds ([5 x i8]* @load_namestr, i32 0, i32 0)), !llfi_injectfault !4
  %228 = sub nsw i32 %fi51, 1, !llfi_index !853
  %fi52 = call i32 @injectFault1(i64 852, i32 %228, i32 10, i32 0, i32 1, i32 0, i8* getelementptr inbounds ([4 x i8]* @sub_namestr, i32 0, i32 0)), !llfi_injectfault !4
  %229 = sdiv i32 %fi52, 16, !llfi_index !854
  %fi53 = call i32 @injectFault1(i64 853, i32 %229, i32 15, i32 0, i32 1, i32 0, i8* getelementptr inbounds ([5 x i8]* @sdiv_namestr, i32 0, i32 0)), !llfi_injectfault !4
  %230 = load i32* %blk7, align 4, !llfi_index !855
  %fi54 = call i32 @injectFault1(i64 854, i32 %230, i32 27, i32 0, i32 1, i32 0, i8* getelementptr inbounds ([5 x i8]* @load_namestr, i32 0, i32 0)), !llfi_injectfault !4
  %231 = add nsw i32 %fi53, %fi54, !llfi_index !856
  %fi55 = call i32 @injectFault1(i64 855, i32 %231, i32 8, i32 0, i32 1, i32 0, i8* getelementptr inbounds ([4 x i8]* @add_namestr, i32 0, i32 0)), !llfi_injectfault !4
  %232 = sub nsw i32 %fi55, 2, !llfi_index !857
  %fi56 = call i32 @injectFault1(i64 856, i32 %232, i32 10, i32 0, i32 1, i32 0, i8* getelementptr inbounds ([4 x i8]* @sub_namestr, i32 0, i32 0)), !llfi_injectfault !4
  %233 = load i32* %b_index_x8, align 4, !llfi_index !858
  %fi57 = call i32 @injectFault1(i64 857, i32 %233, i32 27, i32 0, i32 1, i32 0, i8* getelementptr inbounds ([5 x i8]* @load_namestr, i32 0, i32 0)), !llfi_injectfault !4
  %234 = sub nsw i32 %fi56, %fi57, !llfi_index !859
  %fi58 = call i32 @injectFault1(i64 858, i32 %234, i32 10, i32 0, i32 1, i32 0, i8* getelementptr inbounds ([4 x i8]* @sub_namestr, i32 0, i32 0)), !llfi_injectfault !4
  store i32 %fi58, i32* %b_index_y9, align 4, !llfi_index !860
  store i32 0, i32* %i12, align 4, !llfi_index !861
  br label %235, !llfi_index !862

; <label>:235                                     ; preds = %270, %226
  %236 = load i32* %i12, align 4, !llfi_index !863
  %fi59 = call i32 @injectFault1(i64 862, i32 %236, i32 27, i32 0, i32 1, i32 0, i8* getelementptr inbounds ([5 x i8]* @load_namestr, i32 0, i32 0)), !llfi_injectfault !4
  %237 = icmp slt i32 %fi59, 16, !llfi_index !864
  %fi60 = call i1 @injectFault4(i64 863, i1 %237, i32 46, i32 0, i32 1, i32 0, i8* getelementptr inbounds ([5 x i8]* @icmp_namestr, i32 0, i32 0)), !llfi_injectfault !4
  br i1 %fi60, label %238, label %273, !llfi_index !865

; <label>:238                                     ; preds = %235
  store i32 0, i32* %j13, align 4, !llfi_index !866
  br label %239, !llfi_index !867

; <label>:239                                     ; preds = %266, %238
  %240 = load i32* %j13, align 4, !llfi_index !868
  %fi61 = call i32 @injectFault1(i64 867, i32 %240, i32 27, i32 0, i32 1, i32 0, i8* getelementptr inbounds ([5 x i8]* @load_namestr, i32 0, i32 0)), !llfi_injectfault !4
  %241 = icmp slt i32 %fi61, 16, !llfi_index !869
  %fi62 = call i1 @injectFault4(i64 868, i1 %241, i32 46, i32 0, i32 1, i32 0, i8* getelementptr inbounds ([5 x i8]* @icmp_namestr, i32 0, i32 0)), !llfi_injectfault !4
  br i1 %fi62, label %242, label %269, !llfi_index !870

; <label>:242                                     ; preds = %239
  %243 = load i32* %5, align 4, !llfi_index !871
  %fi63 = call i32 @injectFault1(i64 870, i32 %243, i32 27, i32 0, i32 1, i32 0, i8* getelementptr inbounds ([5 x i8]* @load_namestr, i32 0, i32 0)), !llfi_injectfault !4
  %244 = load i32* %b_index_y9, align 4, !llfi_index !872
  %fi64 = call i32 @injectFault1(i64 871, i32 %244, i32 27, i32 0, i32 1, i32 0, i8* getelementptr inbounds ([5 x i8]* @load_namestr, i32 0, i32 0)), !llfi_injectfault !4
  %245 = mul nsw i32 %fi64, 16, !llfi_index !873
  %fi65 = call i32 @injectFault1(i64 872, i32 %245, i32 12, i32 0, i32 1, i32 0, i8* getelementptr inbounds ([4 x i8]* @mul_namestr, i32 0, i32 0)), !llfi_injectfault !4
  %246 = load i32* %i12, align 4, !llfi_index !874
  %fi66 = call i32 @injectFault1(i64 873, i32 %246, i32 27, i32 0, i32 1, i32 0, i8* getelementptr inbounds ([5 x i8]* @load_namestr, i32 0, i32 0)), !llfi_injectfault !4
  %247 = add nsw i32 %fi65, %fi66, !llfi_index !875
  %fi67 = call i32 @injectFault1(i64 874, i32 %247, i32 8, i32 0, i32 1, i32 0, i8* getelementptr inbounds ([4 x i8]* @add_namestr, i32 0, i32 0)), !llfi_injectfault !4
  %248 = add nsw i32 %fi67, 1, !llfi_index !876
  %fi68 = call i32 @injectFault1(i64 875, i32 %248, i32 8, i32 0, i32 1, i32 0, i8* getelementptr inbounds ([4 x i8]* @add_namestr, i32 0, i32 0)), !llfi_injectfault !4
  %249 = mul nsw i32 %fi63, %fi68, !llfi_index !877
  %fi69 = call i32 @injectFault1(i64 876, i32 %249, i32 12, i32 0, i32 1, i32 0, i8* getelementptr inbounds ([4 x i8]* @mul_namestr, i32 0, i32 0)), !llfi_injectfault !4
  %250 = load i32* %b_index_x8, align 4, !llfi_index !878
  %fi70 = call i32 @injectFault1(i64 877, i32 %250, i32 27, i32 0, i32 1, i32 0, i8* getelementptr inbounds ([5 x i8]* @load_namestr, i32 0, i32 0)), !llfi_injectfault !4
  %251 = mul nsw i32 %fi70, 16, !llfi_index !879
  %fi71 = call i32 @injectFault1(i64 878, i32 %251, i32 12, i32 0, i32 1, i32 0, i8* getelementptr inbounds ([4 x i8]* @mul_namestr, i32 0, i32 0)), !llfi_injectfault !4
  %252 = add nsw i32 %fi69, %fi71, !llfi_index !880
  %fi72 = call i32 @injectFault1(i64 879, i32 %252, i32 8, i32 0, i32 1, i32 0, i8* getelementptr inbounds ([4 x i8]* @add_namestr, i32 0, i32 0)), !llfi_injectfault !4
  %253 = load i32* %j13, align 4, !llfi_index !881
  %fi73 = call i32 @injectFault1(i64 880, i32 %253, i32 27, i32 0, i32 1, i32 0, i8* getelementptr inbounds ([5 x i8]* @load_namestr, i32 0, i32 0)), !llfi_injectfault !4
  %254 = add nsw i32 %fi72, %fi73, !llfi_index !882
  %fi74 = call i32 @injectFault1(i64 881, i32 %254, i32 8, i32 0, i32 1, i32 0, i8* getelementptr inbounds ([4 x i8]* @add_namestr, i32 0, i32 0)), !llfi_injectfault !4
  %255 = add nsw i32 %fi74, 1, !llfi_index !883
  %fi75 = call i32 @injectFault1(i64 882, i32 %255, i32 8, i32 0, i32 1, i32 0, i8* getelementptr inbounds ([4 x i8]* @add_namestr, i32 0, i32 0)), !llfi_injectfault !4
  %256 = sext i32 %fi75 to i64, !llfi_index !884
  %fi76 = call i64 @injectFault2(i64 883, i64 %256, i32 35, i32 0, i32 1, i32 0, i8* getelementptr inbounds ([5 x i8]* @sext_namestr, i32 0, i32 0)), !llfi_injectfault !4
  %257 = load i32** %3, align 8, !llfi_index !885
  %fi204 = call i32* @injectFault7(i64 884, i32* %257, i32 27, i32 0, i32 1, i32 0, i8* getelementptr inbounds ([5 x i8]* @load_namestr, i32 0, i32 0)), !llfi_injectfault !4
  %258 = getelementptr i32* %fi204, i64 %fi76, !llfi_index !886
  %fi205 = call i32* @injectFault7(i64 885, i32* %258, i32 29, i32 0, i32 1, i32 0, i8* getelementptr inbounds ([14 x i8]* @getelementptr_namestr, i32 0, i32 0)), !llfi_injectfault !4
  %259 = load i32* %fi205, align 4, !llfi_index !887
  %fi206 = call i32 @injectFault1(i64 886, i32 %259, i32 27, i32 0, i32 1, i32 0, i8* getelementptr inbounds ([5 x i8]* @load_namestr, i32 0, i32 0)), !llfi_injectfault !4
  %260 = load i32* %i12, align 4, !llfi_index !888
  %fi207 = call i32 @injectFault1(i64 887, i32 %260, i32 27, i32 0, i32 1, i32 0, i8* getelementptr inbounds ([5 x i8]* @load_namestr, i32 0, i32 0)), !llfi_injectfault !4
  %261 = mul nsw i32 %fi207, 16, !llfi_index !889
  %fi208 = call i32 @injectFault1(i64 888, i32 %261, i32 12, i32 0, i32 1, i32 0, i8* getelementptr inbounds ([4 x i8]* @mul_namestr, i32 0, i32 0)), !llfi_injectfault !4
  %262 = load i32* %j13, align 4, !llfi_index !890
  %fi209 = call i32 @injectFault1(i64 889, i32 %262, i32 27, i32 0, i32 1, i32 0, i8* getelementptr inbounds ([5 x i8]* @load_namestr, i32 0, i32 0)), !llfi_injectfault !4
  %263 = add nsw i32 %fi208, %fi209, !llfi_index !891
  %fi210 = call i32 @injectFault1(i64 890, i32 %263, i32 8, i32 0, i32 1, i32 0, i8* getelementptr inbounds ([4 x i8]* @add_namestr, i32 0, i32 0)), !llfi_injectfault !4
  %264 = sext i32 %fi210 to i64, !llfi_index !892
  %fi211 = call i64 @injectFault2(i64 891, i64 %264, i32 35, i32 0, i32 1, i32 0, i8* getelementptr inbounds ([5 x i8]* @sext_namestr, i32 0, i32 0)), !llfi_injectfault !4
  %265 = getelementptr [256 x i32]* %reference_l11, i32 0, i64 %fi211, !llfi_index !893
  %fi212 = call i32* @injectFault7(i64 892, i32* %265, i32 29, i32 0, i32 1, i32 0, i8* getelementptr inbounds ([14 x i8]* @getelementptr_namestr, i32 0, i32 0)), !llfi_injectfault !4
  store i32 %fi206, i32* %fi212, align 4, !llfi_index !894
  br label %266, !llfi_index !895

; <label>:266                                     ; preds = %242
  %267 = load i32* %j13, align 4, !llfi_index !896
  %fi77 = call i32 @injectFault1(i64 895, i32 %267, i32 27, i32 0, i32 1, i32 0, i8* getelementptr inbounds ([5 x i8]* @load_namestr, i32 0, i32 0)), !llfi_injectfault !4
  %268 = add nsw i32 %fi77, 1, !llfi_index !897
  %fi78 = call i32 @injectFault1(i64 896, i32 %268, i32 8, i32 0, i32 1, i32 0, i8* getelementptr inbounds ([4 x i8]* @add_namestr, i32 0, i32 0)), !llfi_injectfault !4
  store i32 %fi78, i32* %j13, align 4, !llfi_index !898
  br label %239, !llfi_index !899

; <label>:269                                     ; preds = %239
  br label %270, !llfi_index !900

; <label>:270                                     ; preds = %269
  %271 = load i32* %i12, align 4, !llfi_index !901
  %fi79 = call i32 @injectFault1(i64 900, i32 %271, i32 27, i32 0, i32 1, i32 0, i8* getelementptr inbounds ([5 x i8]* @load_namestr, i32 0, i32 0)), !llfi_injectfault !4
  %272 = add nsw i32 %fi79, 1, !llfi_index !902
  %fi80 = call i32 @injectFault1(i64 901, i32 %272, i32 8, i32 0, i32 1, i32 0, i8* getelementptr inbounds ([4 x i8]* @add_namestr, i32 0, i32 0)), !llfi_injectfault !4
  store i32 %fi80, i32* %i12, align 4, !llfi_index !903
  br label %235, !llfi_index !904

; <label>:273                                     ; preds = %235
  store i32 0, i32* %i14, align 4, !llfi_index !905
  br label %274, !llfi_index !906

; <label>:274                                     ; preds = %307, %273
  %275 = load i32* %i14, align 4, !llfi_index !907
  %fi81 = call i32 @injectFault1(i64 906, i32 %275, i32 27, i32 0, i32 1, i32 0, i8* getelementptr inbounds ([5 x i8]* @load_namestr, i32 0, i32 0)), !llfi_injectfault !4
  %276 = icmp slt i32 %fi81, 17, !llfi_index !908
  %fi82 = call i1 @injectFault4(i64 907, i1 %276, i32 46, i32 0, i32 1, i32 0, i8* getelementptr inbounds ([5 x i8]* @icmp_namestr, i32 0, i32 0)), !llfi_injectfault !4
  br i1 %fi82, label %277, label %310, !llfi_index !909

; <label>:277                                     ; preds = %274
  store i32 0, i32* %j15, align 4, !llfi_index !910
  br label %278, !llfi_index !911

; <label>:278                                     ; preds = %303, %277
  %279 = load i32* %j15, align 4, !llfi_index !912
  %fi83 = call i32 @injectFault1(i64 911, i32 %279, i32 27, i32 0, i32 1, i32 0, i8* getelementptr inbounds ([5 x i8]* @load_namestr, i32 0, i32 0)), !llfi_injectfault !4
  %280 = icmp slt i32 %fi83, 17, !llfi_index !913
  %fi84 = call i1 @injectFault4(i64 912, i1 %280, i32 46, i32 0, i32 1, i32 0, i8* getelementptr inbounds ([5 x i8]* @icmp_namestr, i32 0, i32 0)), !llfi_injectfault !4
  br i1 %fi84, label %281, label %306, !llfi_index !914

; <label>:281                                     ; preds = %278
  %282 = load i32* %5, align 4, !llfi_index !915
  %fi85 = call i32 @injectFault1(i64 914, i32 %282, i32 27, i32 0, i32 1, i32 0, i8* getelementptr inbounds ([5 x i8]* @load_namestr, i32 0, i32 0)), !llfi_injectfault !4
  %283 = load i32* %b_index_y9, align 4, !llfi_index !916
  %fi86 = call i32 @injectFault1(i64 915, i32 %283, i32 27, i32 0, i32 1, i32 0, i8* getelementptr inbounds ([5 x i8]* @load_namestr, i32 0, i32 0)), !llfi_injectfault !4
  %284 = mul nsw i32 %fi86, 16, !llfi_index !917
  %fi87 = call i32 @injectFault1(i64 916, i32 %284, i32 12, i32 0, i32 1, i32 0, i8* getelementptr inbounds ([4 x i8]* @mul_namestr, i32 0, i32 0)), !llfi_injectfault !4
  %285 = load i32* %i14, align 4, !llfi_index !918
  %fi88 = call i32 @injectFault1(i64 917, i32 %285, i32 27, i32 0, i32 1, i32 0, i8* getelementptr inbounds ([5 x i8]* @load_namestr, i32 0, i32 0)), !llfi_injectfault !4
  %286 = add nsw i32 %fi87, %fi88, !llfi_index !919
  %fi89 = call i32 @injectFault1(i64 918, i32 %286, i32 8, i32 0, i32 1, i32 0, i8* getelementptr inbounds ([4 x i8]* @add_namestr, i32 0, i32 0)), !llfi_injectfault !4
  %287 = mul nsw i32 %fi85, %fi89, !llfi_index !920
  %fi90 = call i32 @injectFault1(i64 919, i32 %287, i32 12, i32 0, i32 1, i32 0, i8* getelementptr inbounds ([4 x i8]* @mul_namestr, i32 0, i32 0)), !llfi_injectfault !4
  %288 = load i32* %b_index_x8, align 4, !llfi_index !921
  %fi91 = call i32 @injectFault1(i64 920, i32 %288, i32 27, i32 0, i32 1, i32 0, i8* getelementptr inbounds ([5 x i8]* @load_namestr, i32 0, i32 0)), !llfi_injectfault !4
  %289 = mul nsw i32 %fi91, 16, !llfi_index !922
  %fi92 = call i32 @injectFault1(i64 921, i32 %289, i32 12, i32 0, i32 1, i32 0, i8* getelementptr inbounds ([4 x i8]* @mul_namestr, i32 0, i32 0)), !llfi_injectfault !4
  %290 = add nsw i32 %fi90, %fi92, !llfi_index !923
  %fi93 = call i32 @injectFault1(i64 922, i32 %290, i32 8, i32 0, i32 1, i32 0, i8* getelementptr inbounds ([4 x i8]* @add_namestr, i32 0, i32 0)), !llfi_injectfault !4
  %291 = load i32* %j15, align 4, !llfi_index !924
  %fi94 = call i32 @injectFault1(i64 923, i32 %291, i32 27, i32 0, i32 1, i32 0, i8* getelementptr inbounds ([5 x i8]* @load_namestr, i32 0, i32 0)), !llfi_injectfault !4
  %292 = add nsw i32 %fi93, %fi94, !llfi_index !925
  %fi95 = call i32 @injectFault1(i64 924, i32 %292, i32 8, i32 0, i32 1, i32 0, i8* getelementptr inbounds ([4 x i8]* @add_namestr, i32 0, i32 0)), !llfi_injectfault !4
  %293 = sext i32 %fi95 to i64, !llfi_index !926
  %fi96 = call i64 @injectFault2(i64 925, i64 %293, i32 35, i32 0, i32 1, i32 0, i8* getelementptr inbounds ([5 x i8]* @sext_namestr, i32 0, i32 0)), !llfi_injectfault !4
  %294 = load i32** %1, align 8, !llfi_index !927
  %fi97 = call i32* @injectFault7(i64 926, i32* %294, i32 27, i32 0, i32 1, i32 0, i8* getelementptr inbounds ([5 x i8]* @load_namestr, i32 0, i32 0)), !llfi_injectfault !4
  %295 = getelementptr i32* %fi97, i64 %fi96, !llfi_index !928
  %fi98 = call i32* @injectFault7(i64 927, i32* %295, i32 29, i32 0, i32 1, i32 0, i8* getelementptr inbounds ([14 x i8]* @getelementptr_namestr, i32 0, i32 0)), !llfi_injectfault !4
  %296 = load i32* %fi98, align 4, !llfi_index !929
  %fi99 = call i32 @injectFault1(i64 928, i32 %296, i32 27, i32 0, i32 1, i32 0, i8* getelementptr inbounds ([5 x i8]* @load_namestr, i32 0, i32 0)), !llfi_injectfault !4
  %297 = load i32* %i14, align 4, !llfi_index !930
  %fi232 = call i32 @injectFault1(i64 929, i32 %297, i32 27, i32 0, i32 1, i32 0, i8* getelementptr inbounds ([5 x i8]* @load_namestr, i32 0, i32 0)), !llfi_injectfault !4
  %298 = mul nsw i32 %fi232, 17, !llfi_index !931
  %fi233 = call i32 @injectFault1(i64 930, i32 %298, i32 12, i32 0, i32 1, i32 0, i8* getelementptr inbounds ([4 x i8]* @mul_namestr, i32 0, i32 0)), !llfi_injectfault !4
  %299 = load i32* %j15, align 4, !llfi_index !932
  %fi234 = call i32 @injectFault1(i64 931, i32 %299, i32 27, i32 0, i32 1, i32 0, i8* getelementptr inbounds ([5 x i8]* @load_namestr, i32 0, i32 0)), !llfi_injectfault !4
  %300 = add nsw i32 %fi233, %fi234, !llfi_index !933
  %fi235 = call i32 @injectFault1(i64 932, i32 %300, i32 8, i32 0, i32 1, i32 0, i8* getelementptr inbounds ([4 x i8]* @add_namestr, i32 0, i32 0)), !llfi_injectfault !4
  %301 = sext i32 %fi235 to i64, !llfi_index !934
  %fi236 = call i64 @injectFault2(i64 933, i64 %301, i32 35, i32 0, i32 1, i32 0, i8* getelementptr inbounds ([5 x i8]* @sext_namestr, i32 0, i32 0)), !llfi_injectfault !4
  %302 = getelementptr [289 x i32]* %input_itemsets_l10, i32 0, i64 %fi236, !llfi_index !935
  %fi237 = call i32* @injectFault7(i64 934, i32* %302, i32 29, i32 0, i32 1, i32 0, i8* getelementptr inbounds ([14 x i8]* @getelementptr_namestr, i32 0, i32 0)), !llfi_injectfault !4
  store i32 %fi99, i32* %fi237, align 4, !llfi_index !936
  br label %303, !llfi_index !937

; <label>:303                                     ; preds = %281
  %304 = load i32* %j15, align 4, !llfi_index !938
  %fi238 = call i32 @injectFault1(i64 937, i32 %304, i32 27, i32 0, i32 1, i32 0, i8* getelementptr inbounds ([5 x i8]* @load_namestr, i32 0, i32 0)), !llfi_injectfault !4
  %305 = add nsw i32 %fi238, 1, !llfi_index !939
  %fi239 = call i32 @injectFault1(i64 938, i32 %305, i32 8, i32 0, i32 1, i32 0, i8* getelementptr inbounds ([4 x i8]* @add_namestr, i32 0, i32 0)), !llfi_injectfault !4
  store i32 %fi239, i32* %j15, align 4, !llfi_index !940
  br label %278, !llfi_index !941

; <label>:306                                     ; preds = %278
  br label %307, !llfi_index !942

; <label>:307                                     ; preds = %306
  %308 = load i32* %i14, align 4, !llfi_index !943
  %fi240 = call i32 @injectFault1(i64 942, i32 %308, i32 27, i32 0, i32 1, i32 0, i8* getelementptr inbounds ([5 x i8]* @load_namestr, i32 0, i32 0)), !llfi_injectfault !4
  %309 = add nsw i32 %fi240, 1, !llfi_index !944
  %fi241 = call i32 @injectFault1(i64 943, i32 %309, i32 8, i32 0, i32 1, i32 0, i8* getelementptr inbounds ([4 x i8]* @add_namestr, i32 0, i32 0)), !llfi_injectfault !4
  store i32 %fi241, i32* %i14, align 4, !llfi_index !945
  br label %274, !llfi_index !946

; <label>:310                                     ; preds = %274
  store i32 1, i32* %i16, align 4, !llfi_index !947
  br label %311, !llfi_index !948

; <label>:311                                     ; preds = %369, %310
  %312 = load i32* %i16, align 4, !llfi_index !949
  %fi242 = call i32 @injectFault1(i64 948, i32 %312, i32 27, i32 0, i32 1, i32 0, i8* getelementptr inbounds ([5 x i8]* @load_namestr, i32 0, i32 0)), !llfi_injectfault !4
  %313 = icmp slt i32 %fi242, 17, !llfi_index !950
  %fi243 = call i1 @injectFault4(i64 949, i1 %313, i32 46, i32 0, i32 1, i32 0, i8* getelementptr inbounds ([5 x i8]* @icmp_namestr, i32 0, i32 0)), !llfi_injectfault !4
  br i1 %fi243, label %314, label %372, !llfi_index !951

; <label>:314                                     ; preds = %311
  store i32 1, i32* %j17, align 4, !llfi_index !952
  br label %315, !llfi_index !953

; <label>:315                                     ; preds = %365, %314
  %316 = load i32* %j17, align 4, !llfi_index !954
  %fi244 = call i32 @injectFault1(i64 953, i32 %316, i32 27, i32 0, i32 1, i32 0, i8* getelementptr inbounds ([5 x i8]* @load_namestr, i32 0, i32 0)), !llfi_injectfault !4
  %317 = icmp slt i32 %fi244, 17, !llfi_index !955
  %fi245 = call i1 @injectFault4(i64 954, i1 %317, i32 46, i32 0, i32 1, i32 0, i8* getelementptr inbounds ([5 x i8]* @icmp_namestr, i32 0, i32 0)), !llfi_injectfault !4
  br i1 %fi245, label %318, label %368, !llfi_index !956

; <label>:318                                     ; preds = %315
  %319 = load i32* %i16, align 4, !llfi_index !957
  %fi246 = call i32 @injectFault1(i64 956, i32 %319, i32 27, i32 0, i32 1, i32 0, i8* getelementptr inbounds ([5 x i8]* @load_namestr, i32 0, i32 0)), !llfi_injectfault !4
  %320 = sub nsw i32 %fi246, 1, !llfi_index !958
  %fi247 = call i32 @injectFault1(i64 957, i32 %320, i32 10, i32 0, i32 1, i32 0, i8* getelementptr inbounds ([4 x i8]* @sub_namestr, i32 0, i32 0)), !llfi_injectfault !4
  %321 = mul nsw i32 %fi247, 17, !llfi_index !959
  %fi248 = call i32 @injectFault1(i64 958, i32 %321, i32 12, i32 0, i32 1, i32 0, i8* getelementptr inbounds ([4 x i8]* @mul_namestr, i32 0, i32 0)), !llfi_injectfault !4
  %322 = load i32* %j17, align 4, !llfi_index !960
  %fi249 = call i32 @injectFault1(i64 959, i32 %322, i32 27, i32 0, i32 1, i32 0, i8* getelementptr inbounds ([5 x i8]* @load_namestr, i32 0, i32 0)), !llfi_injectfault !4
  %323 = add nsw i32 %fi248, %fi249, !llfi_index !961
  %fi250 = call i32 @injectFault1(i64 960, i32 %323, i32 8, i32 0, i32 1, i32 0, i8* getelementptr inbounds ([4 x i8]* @add_namestr, i32 0, i32 0)), !llfi_injectfault !4
  %324 = sub nsw i32 %fi250, 1, !llfi_index !962
  %fi251 = call i32 @injectFault1(i64 961, i32 %324, i32 10, i32 0, i32 1, i32 0, i8* getelementptr inbounds ([4 x i8]* @sub_namestr, i32 0, i32 0)), !llfi_injectfault !4
  %325 = sext i32 %fi251 to i64, !llfi_index !963
  %fi252 = call i64 @injectFault2(i64 962, i64 %325, i32 35, i32 0, i32 1, i32 0, i8* getelementptr inbounds ([5 x i8]* @sext_namestr, i32 0, i32 0)), !llfi_injectfault !4
  %326 = getelementptr [289 x i32]* %input_itemsets_l10, i32 0, i64 %fi252, !llfi_index !964
  %fi253 = call i32* @injectFault7(i64 963, i32* %326, i32 29, i32 0, i32 1, i32 0, i8* getelementptr inbounds ([14 x i8]* @getelementptr_namestr, i32 0, i32 0)), !llfi_injectfault !4
  %327 = load i32* %fi253, align 4, !llfi_index !965
  %fi254 = call i32 @injectFault1(i64 964, i32 %327, i32 27, i32 0, i32 1, i32 0, i8* getelementptr inbounds ([5 x i8]* @load_namestr, i32 0, i32 0)), !llfi_injectfault !4
  %328 = load i32* %i16, align 4, !llfi_index !966
  %fi255 = call i32 @injectFault1(i64 965, i32 %328, i32 27, i32 0, i32 1, i32 0, i8* getelementptr inbounds ([5 x i8]* @load_namestr, i32 0, i32 0)), !llfi_injectfault !4
  %329 = sub nsw i32 %fi255, 1, !llfi_index !967
  %fi256 = call i32 @injectFault1(i64 966, i32 %329, i32 10, i32 0, i32 1, i32 0, i8* getelementptr inbounds ([4 x i8]* @sub_namestr, i32 0, i32 0)), !llfi_injectfault !4
  %330 = mul nsw i32 %fi256, 16, !llfi_index !968
  %fi257 = call i32 @injectFault1(i64 967, i32 %330, i32 12, i32 0, i32 1, i32 0, i8* getelementptr inbounds ([4 x i8]* @mul_namestr, i32 0, i32 0)), !llfi_injectfault !4
  %331 = load i32* %j17, align 4, !llfi_index !969
  %fi258 = call i32 @injectFault1(i64 968, i32 %331, i32 27, i32 0, i32 1, i32 0, i8* getelementptr inbounds ([5 x i8]* @load_namestr, i32 0, i32 0)), !llfi_injectfault !4
  %332 = add nsw i32 %fi257, %fi258, !llfi_index !970
  %fi259 = call i32 @injectFault1(i64 969, i32 %332, i32 8, i32 0, i32 1, i32 0, i8* getelementptr inbounds ([4 x i8]* @add_namestr, i32 0, i32 0)), !llfi_injectfault !4
  %333 = sub nsw i32 %fi259, 1, !llfi_index !971
  %fi260 = call i32 @injectFault1(i64 970, i32 %333, i32 10, i32 0, i32 1, i32 0, i8* getelementptr inbounds ([4 x i8]* @sub_namestr, i32 0, i32 0)), !llfi_injectfault !4
  %334 = sext i32 %fi260 to i64, !llfi_index !972
  %fi261 = call i64 @injectFault2(i64 971, i64 %334, i32 35, i32 0, i32 1, i32 0, i8* getelementptr inbounds ([5 x i8]* @sext_namestr, i32 0, i32 0)), !llfi_injectfault !4
  %335 = getelementptr [256 x i32]* %reference_l11, i32 0, i64 %fi261, !llfi_index !973
  %fi262 = call i32* @injectFault7(i64 972, i32* %335, i32 29, i32 0, i32 1, i32 0, i8* getelementptr inbounds ([14 x i8]* @getelementptr_namestr, i32 0, i32 0)), !llfi_injectfault !4
  %336 = load i32* %fi262, align 4, !llfi_index !974
  %fi263 = call i32 @injectFault1(i64 973, i32 %336, i32 27, i32 0, i32 1, i32 0, i8* getelementptr inbounds ([5 x i8]* @load_namestr, i32 0, i32 0)), !llfi_injectfault !4
  %337 = add nsw i32 %fi254, %fi263, !llfi_index !975
  %fi264 = call i32 @injectFault1(i64 974, i32 %337, i32 8, i32 0, i32 1, i32 0, i8* getelementptr inbounds ([4 x i8]* @add_namestr, i32 0, i32 0)), !llfi_injectfault !4
  %338 = load i32* %i16, align 4, !llfi_index !976
  %fi265 = call i32 @injectFault1(i64 975, i32 %338, i32 27, i32 0, i32 1, i32 0, i8* getelementptr inbounds ([5 x i8]* @load_namestr, i32 0, i32 0)), !llfi_injectfault !4
  %339 = mul nsw i32 %fi265, 17, !llfi_index !977
  %fi266 = call i32 @injectFault1(i64 976, i32 %339, i32 12, i32 0, i32 1, i32 0, i8* getelementptr inbounds ([4 x i8]* @mul_namestr, i32 0, i32 0)), !llfi_injectfault !4
  %340 = load i32* %j17, align 4, !llfi_index !978
  %fi267 = call i32 @injectFault1(i64 977, i32 %340, i32 27, i32 0, i32 1, i32 0, i8* getelementptr inbounds ([5 x i8]* @load_namestr, i32 0, i32 0)), !llfi_injectfault !4
  %341 = add nsw i32 %fi266, %fi267, !llfi_index !979
  %fi268 = call i32 @injectFault1(i64 978, i32 %341, i32 8, i32 0, i32 1, i32 0, i8* getelementptr inbounds ([4 x i8]* @add_namestr, i32 0, i32 0)), !llfi_injectfault !4
  %342 = sub nsw i32 %fi268, 1, !llfi_index !980
  %fi269 = call i32 @injectFault1(i64 979, i32 %342, i32 10, i32 0, i32 1, i32 0, i8* getelementptr inbounds ([4 x i8]* @sub_namestr, i32 0, i32 0)), !llfi_injectfault !4
  %343 = sext i32 %fi269 to i64, !llfi_index !981
  %fi270 = call i64 @injectFault2(i64 980, i64 %343, i32 35, i32 0, i32 1, i32 0, i8* getelementptr inbounds ([5 x i8]* @sext_namestr, i32 0, i32 0)), !llfi_injectfault !4
  %344 = getelementptr [289 x i32]* %input_itemsets_l10, i32 0, i64 %fi270, !llfi_index !982
  %fi271 = call i32* @injectFault7(i64 981, i32* %344, i32 29, i32 0, i32 1, i32 0, i8* getelementptr inbounds ([14 x i8]* @getelementptr_namestr, i32 0, i32 0)), !llfi_injectfault !4
  %345 = load i32* %fi271, align 4, !llfi_index !983
  %fi272 = call i32 @injectFault1(i64 982, i32 %345, i32 27, i32 0, i32 1, i32 0, i8* getelementptr inbounds ([5 x i8]* @load_namestr, i32 0, i32 0)), !llfi_injectfault !4
  %346 = load i32* %6, align 4, !llfi_index !984
  %fi273 = call i32 @injectFault1(i64 983, i32 %346, i32 27, i32 0, i32 1, i32 0, i8* getelementptr inbounds ([5 x i8]* @load_namestr, i32 0, i32 0)), !llfi_injectfault !4
  %347 = sub nsw i32 %fi272, %fi273, !llfi_index !985
  %fi274 = call i32 @injectFault1(i64 984, i32 %347, i32 10, i32 0, i32 1, i32 0, i8* getelementptr inbounds ([4 x i8]* @sub_namestr, i32 0, i32 0)), !llfi_injectfault !4
  %348 = load i32* %i16, align 4, !llfi_index !986
  %fi275 = call i32 @injectFault1(i64 985, i32 %348, i32 27, i32 0, i32 1, i32 0, i8* getelementptr inbounds ([5 x i8]* @load_namestr, i32 0, i32 0)), !llfi_injectfault !4
  %349 = sub nsw i32 %fi275, 1, !llfi_index !987
  %fi276 = call i32 @injectFault1(i64 986, i32 %349, i32 10, i32 0, i32 1, i32 0, i8* getelementptr inbounds ([4 x i8]* @sub_namestr, i32 0, i32 0)), !llfi_injectfault !4
  %350 = mul nsw i32 %fi276, 17, !llfi_index !988
  %fi277 = call i32 @injectFault1(i64 987, i32 %350, i32 12, i32 0, i32 1, i32 0, i8* getelementptr inbounds ([4 x i8]* @mul_namestr, i32 0, i32 0)), !llfi_injectfault !4
  %351 = load i32* %j17, align 4, !llfi_index !989
  %fi278 = call i32 @injectFault1(i64 988, i32 %351, i32 27, i32 0, i32 1, i32 0, i8* getelementptr inbounds ([5 x i8]* @load_namestr, i32 0, i32 0)), !llfi_injectfault !4
  %352 = add nsw i32 %fi277, %fi278, !llfi_index !990
  %fi279 = call i32 @injectFault1(i64 989, i32 %352, i32 8, i32 0, i32 1, i32 0, i8* getelementptr inbounds ([4 x i8]* @add_namestr, i32 0, i32 0)), !llfi_injectfault !4
  %353 = sext i32 %fi279 to i64, !llfi_index !991
  %fi280 = call i64 @injectFault2(i64 990, i64 %353, i32 35, i32 0, i32 1, i32 0, i8* getelementptr inbounds ([5 x i8]* @sext_namestr, i32 0, i32 0)), !llfi_injectfault !4
  %354 = getelementptr [289 x i32]* %input_itemsets_l10, i32 0, i64 %fi280, !llfi_index !992
  %fi281 = call i32* @injectFault7(i64 991, i32* %354, i32 29, i32 0, i32 1, i32 0, i8* getelementptr inbounds ([14 x i8]* @getelementptr_namestr, i32 0, i32 0)), !llfi_injectfault !4
  %355 = load i32* %fi281, align 4, !llfi_index !993
  %fi282 = call i32 @injectFault1(i64 992, i32 %355, i32 27, i32 0, i32 1, i32 0, i8* getelementptr inbounds ([5 x i8]* @load_namestr, i32 0, i32 0)), !llfi_injectfault !4
  %356 = load i32* %6, align 4, !llfi_index !994
  %fi283 = call i32 @injectFault1(i64 993, i32 %356, i32 27, i32 0, i32 1, i32 0, i8* getelementptr inbounds ([5 x i8]* @load_namestr, i32 0, i32 0)), !llfi_injectfault !4
  %357 = sub nsw i32 %fi282, %fi283, !llfi_index !995
  %fi284 = call i32 @injectFault1(i64 994, i32 %357, i32 10, i32 0, i32 1, i32 0, i8* getelementptr inbounds ([4 x i8]* @sub_namestr, i32 0, i32 0)), !llfi_injectfault !4
  %358 = call i32 @_Z7maximumiii(i32 %fi264, i32 %fi274, i32 %fi284), !llfi_index !996
  %359 = load i32* %i16, align 4, !llfi_index !997
  %fi285 = call i32 @injectFault1(i64 996, i32 %359, i32 27, i32 0, i32 1, i32 0, i8* getelementptr inbounds ([5 x i8]* @load_namestr, i32 0, i32 0)), !llfi_injectfault !4
  %360 = mul nsw i32 %fi285, 17, !llfi_index !998
  %fi286 = call i32 @injectFault1(i64 997, i32 %360, i32 12, i32 0, i32 1, i32 0, i8* getelementptr inbounds ([4 x i8]* @mul_namestr, i32 0, i32 0)), !llfi_injectfault !4
  %361 = load i32* %j17, align 4, !llfi_index !999
  %fi287 = call i32 @injectFault1(i64 998, i32 %361, i32 27, i32 0, i32 1, i32 0, i8* getelementptr inbounds ([5 x i8]* @load_namestr, i32 0, i32 0)), !llfi_injectfault !4
  %362 = add nsw i32 %fi286, %fi287, !llfi_index !1000
  %fi288 = call i32 @injectFault1(i64 999, i32 %362, i32 8, i32 0, i32 1, i32 0, i8* getelementptr inbounds ([4 x i8]* @add_namestr, i32 0, i32 0)), !llfi_injectfault !4
  %363 = sext i32 %fi288 to i64, !llfi_index !1001
  %fi289 = call i64 @injectFault2(i64 1000, i64 %363, i32 35, i32 0, i32 1, i32 0, i8* getelementptr inbounds ([5 x i8]* @sext_namestr, i32 0, i32 0)), !llfi_injectfault !4
  %364 = getelementptr [289 x i32]* %input_itemsets_l10, i32 0, i64 %fi289, !llfi_index !1002
  %fi290 = call i32* @injectFault7(i64 1001, i32* %364, i32 29, i32 0, i32 1, i32 0, i8* getelementptr inbounds ([14 x i8]* @getelementptr_namestr, i32 0, i32 0)), !llfi_injectfault !4
  store i32 %358, i32* %fi290, align 4, !llfi_index !1003
  br label %365, !llfi_index !1004

; <label>:365                                     ; preds = %318
  %366 = load i32* %j17, align 4, !llfi_index !1005
  %fi291 = call i32 @injectFault1(i64 1004, i32 %366, i32 27, i32 0, i32 1, i32 0, i8* getelementptr inbounds ([5 x i8]* @load_namestr, i32 0, i32 0)), !llfi_injectfault !4
  %367 = add nsw i32 %fi291, 1, !llfi_index !1006
  %fi292 = call i32 @injectFault1(i64 1005, i32 %367, i32 8, i32 0, i32 1, i32 0, i8* getelementptr inbounds ([4 x i8]* @add_namestr, i32 0, i32 0)), !llfi_injectfault !4
  store i32 %fi292, i32* %j17, align 4, !llfi_index !1007
  br label %315, !llfi_index !1008

; <label>:368                                     ; preds = %315
  br label %369, !llfi_index !1009

; <label>:369                                     ; preds = %368
  %370 = load i32* %i16, align 4, !llfi_index !1010
  %fi293 = call i32 @injectFault1(i64 1009, i32 %370, i32 27, i32 0, i32 1, i32 0, i8* getelementptr inbounds ([5 x i8]* @load_namestr, i32 0, i32 0)), !llfi_injectfault !4
  %371 = add nsw i32 %fi293, 1, !llfi_index !1011
  %fi294 = call i32 @injectFault1(i64 1010, i32 %371, i32 8, i32 0, i32 1, i32 0, i8* getelementptr inbounds ([4 x i8]* @add_namestr, i32 0, i32 0)), !llfi_injectfault !4
  store i32 %fi294, i32* %i16, align 4, !llfi_index !1012
  br label %311, !llfi_index !1013

; <label>:372                                     ; preds = %311
  store i32 0, i32* %i18, align 4, !llfi_index !1014
  br label %373, !llfi_index !1015

; <label>:373                                     ; preds = %410, %372
  %374 = load i32* %i18, align 4, !llfi_index !1016
  %fi295 = call i32 @injectFault1(i64 1015, i32 %374, i32 27, i32 0, i32 1, i32 0, i8* getelementptr inbounds ([5 x i8]* @load_namestr, i32 0, i32 0)), !llfi_injectfault !4
  %375 = icmp slt i32 %fi295, 16, !llfi_index !1017
  %fi296 = call i1 @injectFault4(i64 1016, i1 %375, i32 46, i32 0, i32 1, i32 0, i8* getelementptr inbounds ([5 x i8]* @icmp_namestr, i32 0, i32 0)), !llfi_injectfault !4
  br i1 %fi296, label %376, label %413, !llfi_index !1018

; <label>:376                                     ; preds = %373
  store i32 0, i32* %j19, align 4, !llfi_index !1019
  br label %377, !llfi_index !1020

; <label>:377                                     ; preds = %406, %376
  %378 = load i32* %j19, align 4, !llfi_index !1021
  %fi297 = call i32 @injectFault1(i64 1020, i32 %378, i32 27, i32 0, i32 1, i32 0, i8* getelementptr inbounds ([5 x i8]* @load_namestr, i32 0, i32 0)), !llfi_injectfault !4
  %379 = icmp slt i32 %fi297, 16, !llfi_index !1022
  %fi298 = call i1 @injectFault4(i64 1021, i1 %379, i32 46, i32 0, i32 1, i32 0, i8* getelementptr inbounds ([5 x i8]* @icmp_namestr, i32 0, i32 0)), !llfi_injectfault !4
  br i1 %fi298, label %380, label %409, !llfi_index !1023

; <label>:380                                     ; preds = %377
  %381 = load i32* %i18, align 4, !llfi_index !1024
  %fi299 = call i32 @injectFault1(i64 1023, i32 %381, i32 27, i32 0, i32 1, i32 0, i8* getelementptr inbounds ([5 x i8]* @load_namestr, i32 0, i32 0)), !llfi_injectfault !4
  %382 = add nsw i32 %fi299, 1, !llfi_index !1025
  %fi300 = call i32 @injectFault1(i64 1024, i32 %382, i32 8, i32 0, i32 1, i32 0, i8* getelementptr inbounds ([4 x i8]* @add_namestr, i32 0, i32 0)), !llfi_injectfault !4
  %383 = mul nsw i32 %fi300, 17, !llfi_index !1026
  %fi301 = call i32 @injectFault1(i64 1025, i32 %383, i32 12, i32 0, i32 1, i32 0, i8* getelementptr inbounds ([4 x i8]* @mul_namestr, i32 0, i32 0)), !llfi_injectfault !4
  %384 = load i32* %j19, align 4, !llfi_index !1027
  %fi302 = call i32 @injectFault1(i64 1026, i32 %384, i32 27, i32 0, i32 1, i32 0, i8* getelementptr inbounds ([5 x i8]* @load_namestr, i32 0, i32 0)), !llfi_injectfault !4
  %385 = add nsw i32 %fi301, %fi302, !llfi_index !1028
  %fi303 = call i32 @injectFault1(i64 1027, i32 %385, i32 8, i32 0, i32 1, i32 0, i8* getelementptr inbounds ([4 x i8]* @add_namestr, i32 0, i32 0)), !llfi_injectfault !4
  %386 = add nsw i32 %fi303, 1, !llfi_index !1029
  %fi304 = call i32 @injectFault1(i64 1028, i32 %386, i32 8, i32 0, i32 1, i32 0, i8* getelementptr inbounds ([4 x i8]* @add_namestr, i32 0, i32 0)), !llfi_injectfault !4
  %387 = sext i32 %fi304 to i64, !llfi_index !1030
  %fi305 = call i64 @injectFault2(i64 1029, i64 %387, i32 35, i32 0, i32 1, i32 0, i8* getelementptr inbounds ([5 x i8]* @sext_namestr, i32 0, i32 0)), !llfi_injectfault !4
  %388 = getelementptr [289 x i32]* %input_itemsets_l10, i32 0, i64 %fi305, !llfi_index !1031
  %fi306 = call i32* @injectFault7(i64 1030, i32* %388, i32 29, i32 0, i32 1, i32 0, i8* getelementptr inbounds ([14 x i8]* @getelementptr_namestr, i32 0, i32 0)), !llfi_injectfault !4
  %389 = load i32* %fi306, align 4, !llfi_index !1032
  %fi307 = call i32 @injectFault1(i64 1031, i32 %389, i32 27, i32 0, i32 1, i32 0, i8* getelementptr inbounds ([5 x i8]* @load_namestr, i32 0, i32 0)), !llfi_injectfault !4
  %390 = load i32* %5, align 4, !llfi_index !1033
  %fi308 = call i32 @injectFault1(i64 1032, i32 %390, i32 27, i32 0, i32 1, i32 0, i8* getelementptr inbounds ([5 x i8]* @load_namestr, i32 0, i32 0)), !llfi_injectfault !4
  %391 = load i32* %b_index_y9, align 4, !llfi_index !1034
  %fi309 = call i32 @injectFault1(i64 1033, i32 %391, i32 27, i32 0, i32 1, i32 0, i8* getelementptr inbounds ([5 x i8]* @load_namestr, i32 0, i32 0)), !llfi_injectfault !4
  %392 = mul nsw i32 %fi309, 16, !llfi_index !1035
  %fi310 = call i32 @injectFault1(i64 1034, i32 %392, i32 12, i32 0, i32 1, i32 0, i8* getelementptr inbounds ([4 x i8]* @mul_namestr, i32 0, i32 0)), !llfi_injectfault !4
  %393 = load i32* %i18, align 4, !llfi_index !1036
  %fi311 = call i32 @injectFault1(i64 1035, i32 %393, i32 27, i32 0, i32 1, i32 0, i8* getelementptr inbounds ([5 x i8]* @load_namestr, i32 0, i32 0)), !llfi_injectfault !4
  %394 = add nsw i32 %fi310, %fi311, !llfi_index !1037
  %fi312 = call i32 @injectFault1(i64 1036, i32 %394, i32 8, i32 0, i32 1, i32 0, i8* getelementptr inbounds ([4 x i8]* @add_namestr, i32 0, i32 0)), !llfi_injectfault !4
  %395 = add nsw i32 %fi312, 1, !llfi_index !1038
  %fi313 = call i32 @injectFault1(i64 1037, i32 %395, i32 8, i32 0, i32 1, i32 0, i8* getelementptr inbounds ([4 x i8]* @add_namestr, i32 0, i32 0)), !llfi_injectfault !4
  %396 = mul nsw i32 %fi308, %fi313, !llfi_index !1039
  %fi314 = call i32 @injectFault1(i64 1038, i32 %396, i32 12, i32 0, i32 1, i32 0, i8* getelementptr inbounds ([4 x i8]* @mul_namestr, i32 0, i32 0)), !llfi_injectfault !4
  %397 = load i32* %b_index_x8, align 4, !llfi_index !1040
  %fi315 = call i32 @injectFault1(i64 1039, i32 %397, i32 27, i32 0, i32 1, i32 0, i8* getelementptr inbounds ([5 x i8]* @load_namestr, i32 0, i32 0)), !llfi_injectfault !4
  %398 = mul nsw i32 %fi315, 16, !llfi_index !1041
  %fi316 = call i32 @injectFault1(i64 1040, i32 %398, i32 12, i32 0, i32 1, i32 0, i8* getelementptr inbounds ([4 x i8]* @mul_namestr, i32 0, i32 0)), !llfi_injectfault !4
  %399 = add nsw i32 %fi314, %fi316, !llfi_index !1042
  %fi317 = call i32 @injectFault1(i64 1041, i32 %399, i32 8, i32 0, i32 1, i32 0, i8* getelementptr inbounds ([4 x i8]* @add_namestr, i32 0, i32 0)), !llfi_injectfault !4
  %400 = load i32* %j19, align 4, !llfi_index !1043
  %fi318 = call i32 @injectFault1(i64 1042, i32 %400, i32 27, i32 0, i32 1, i32 0, i8* getelementptr inbounds ([5 x i8]* @load_namestr, i32 0, i32 0)), !llfi_injectfault !4
  %401 = add nsw i32 %fi317, %fi318, !llfi_index !1044
  %fi319 = call i32 @injectFault1(i64 1043, i32 %401, i32 8, i32 0, i32 1, i32 0, i8* getelementptr inbounds ([4 x i8]* @add_namestr, i32 0, i32 0)), !llfi_injectfault !4
  %402 = add nsw i32 %fi319, 1, !llfi_index !1045
  %fi320 = call i32 @injectFault1(i64 1044, i32 %402, i32 8, i32 0, i32 1, i32 0, i8* getelementptr inbounds ([4 x i8]* @add_namestr, i32 0, i32 0)), !llfi_injectfault !4
  %403 = sext i32 %fi320 to i64, !llfi_index !1046
  %fi321 = call i64 @injectFault2(i64 1045, i64 %403, i32 35, i32 0, i32 1, i32 0, i8* getelementptr inbounds ([5 x i8]* @sext_namestr, i32 0, i32 0)), !llfi_injectfault !4
  %404 = load i32** %1, align 8, !llfi_index !1047
  %fi322 = call i32* @injectFault7(i64 1046, i32* %404, i32 27, i32 0, i32 1, i32 0, i8* getelementptr inbounds ([5 x i8]* @load_namestr, i32 0, i32 0)), !llfi_injectfault !4
  %405 = getelementptr i32* %fi322, i64 %fi321, !llfi_index !1048
  %fi323 = call i32* @injectFault7(i64 1047, i32* %405, i32 29, i32 0, i32 1, i32 0, i8* getelementptr inbounds ([14 x i8]* @getelementptr_namestr, i32 0, i32 0)), !llfi_injectfault !4
  store i32 %fi307, i32* %fi323, align 4, !llfi_index !1049
  br label %406, !llfi_index !1050

; <label>:406                                     ; preds = %380
  %407 = load i32* %j19, align 4, !llfi_index !1051
  %fi324 = call i32 @injectFault1(i64 1050, i32 %407, i32 27, i32 0, i32 1, i32 0, i8* getelementptr inbounds ([5 x i8]* @load_namestr, i32 0, i32 0)), !llfi_injectfault !4
  %408 = add nsw i32 %fi324, 1, !llfi_index !1052
  %fi325 = call i32 @injectFault1(i64 1051, i32 %408, i32 8, i32 0, i32 1, i32 0, i8* getelementptr inbounds ([4 x i8]* @add_namestr, i32 0, i32 0)), !llfi_injectfault !4
  store i32 %fi325, i32* %j19, align 4, !llfi_index !1053
  br label %377, !llfi_index !1054

; <label>:409                                     ; preds = %377
  br label %410, !llfi_index !1055

; <label>:410                                     ; preds = %409
  %411 = load i32* %i18, align 4, !llfi_index !1056
  %fi326 = call i32 @injectFault1(i64 1055, i32 %411, i32 27, i32 0, i32 1, i32 0, i8* getelementptr inbounds ([5 x i8]* @load_namestr, i32 0, i32 0)), !llfi_injectfault !4
  %412 = add nsw i32 %fi326, 1, !llfi_index !1057
  %fi327 = call i32 @injectFault1(i64 1056, i32 %412, i32 8, i32 0, i32 1, i32 0, i8* getelementptr inbounds ([4 x i8]* @add_namestr, i32 0, i32 0)), !llfi_injectfault !4
  store i32 %fi327, i32* %i18, align 4, !llfi_index !1058
  br label %373, !llfi_index !1059

; <label>:413                                     ; preds = %373
  br label %414, !llfi_index !1060

; <label>:414                                     ; preds = %413
  %415 = load i32* %b_index_x8, align 4, !llfi_index !1061
  %fi328 = call i32 @injectFault1(i64 1060, i32 %415, i32 27, i32 0, i32 1, i32 0, i8* getelementptr inbounds ([5 x i8]* @load_namestr, i32 0, i32 0)), !llfi_injectfault !4
  %416 = add nsw i32 %fi328, 1, !llfi_index !1062
  %fi329 = call i32 @injectFault1(i64 1061, i32 %416, i32 8, i32 0, i32 1, i32 0, i8* getelementptr inbounds ([4 x i8]* @add_namestr, i32 0, i32 0)), !llfi_injectfault !4
  store i32 %fi329, i32* %b_index_x8, align 4, !llfi_index !1063
  br label %220, !llfi_index !1064

; <label>:417                                     ; preds = %220
  br label %418, !llfi_index !1065

; <label>:418                                     ; preds = %417
  %419 = load i32* %blk7, align 4, !llfi_index !1066
  %fi330 = call i32 @injectFault1(i64 1065, i32 %419, i32 27, i32 0, i32 1, i32 0, i8* getelementptr inbounds ([5 x i8]* @load_namestr, i32 0, i32 0)), !llfi_injectfault !4
  %420 = add nsw i32 %fi330, 1, !llfi_index !1067
  %fi331 = call i32 @injectFault1(i64 1066, i32 %420, i32 8, i32 0, i32 1, i32 0, i8* getelementptr inbounds ([4 x i8]* @add_namestr, i32 0, i32 0)), !llfi_injectfault !4
  store i32 %fi331, i32* %blk7, align 4, !llfi_index !1068
  br label %211, !llfi_index !1069

; <label>:421                                     ; preds = %211
  ret void, !llfi_index !1070
}

declare i32 @printf(i8*, ...) #3

; Function Attrs: nounwind readonly
declare i32 @atoi(i8*) #5

; Function Attrs: nounwind
declare noalias i8* @malloc(i64) #1

declare %struct._IO_FILE* @fopen(i8*, i8*) #3

declare i32 @fclose(%struct._IO_FILE*) #3

; Function Attrs: nounwind
declare void @free(i8*) #1

define double @injectFault0(i64, double, i32, i32, i32, i32, i8*) {
entry:
  %tmploc = alloca double
  store double %1, double* %tmploc
  %pre_cond = call i1 @preFunc(i64 %0, i32 %2, i32 %3, i32 %4)
  br i1 %pre_cond, label %inject, label %exit

inject:                                           ; preds = %entry
  %tmploc_cast = bitcast double* %tmploc to i8*
  call void @injectFunc(i64 %0, i32 64, i8* %tmploc_cast, i32 %3, i32 %5, i8* %6)
  br label %exit

exit:                                             ; preds = %inject, %entry
  %updateval = load double* %tmploc
  ret double %updateval
}

define i32 @injectFault1(i64, i32, i32, i32, i32, i32, i8*) {
entry:
  %tmploc = alloca i32
  store i32 %1, i32* %tmploc
  %pre_cond = call i1 @preFunc(i64 %0, i32 %2, i32 %3, i32 %4)
  br i1 %pre_cond, label %inject, label %exit

inject:                                           ; preds = %entry
  %tmploc_cast = bitcast i32* %tmploc to i8*
  call void @injectFunc(i64 %0, i32 32, i8* %tmploc_cast, i32 %3, i32 %5, i8* %6)
  br label %exit

exit:                                             ; preds = %inject, %entry
  %updateval = load i32* %tmploc
  ret i32 %updateval
}

define i64 @injectFault2(i64, i64, i32, i32, i32, i32, i8*) {
entry:
  %tmploc = alloca i64
  store i64 %1, i64* %tmploc
  %pre_cond = call i1 @preFunc(i64 %0, i32 %2, i32 %3, i32 %4)
  br i1 %pre_cond, label %inject, label %exit

inject:                                           ; preds = %entry
  %tmploc_cast = bitcast i64* %tmploc to i8*
  call void @injectFunc(i64 %0, i32 64, i8* %tmploc_cast, i32 %3, i32 %5, i8* %6)
  br label %exit

exit:                                             ; preds = %inject, %entry
  %updateval = load i64* %tmploc
  ret i64 %updateval
}

define i64* @injectFault3(i64, i64*, i32, i32, i32, i32, i8*) {
entry:
  %tmploc = alloca i64*
  store i64* %1, i64** %tmploc
  %pre_cond = call i1 @preFunc(i64 %0, i32 %2, i32 %3, i32 %4)
  br i1 %pre_cond, label %inject, label %exit

inject:                                           ; preds = %entry
  %tmploc_cast = bitcast i64** %tmploc to i8*
  call void @injectFunc(i64 %0, i32 64, i8* %tmploc_cast, i32 %3, i32 %5, i8* %6)
  br label %exit

exit:                                             ; preds = %inject, %entry
  %updateval = load i64** %tmploc
  ret i64* %updateval
}

define i1 @injectFault4(i64, i1, i32, i32, i32, i32, i8*) {
entry:
  %tmploc = alloca i1
  store i1 %1, i1* %tmploc
  %pre_cond = call i1 @preFunc(i64 %0, i32 %2, i32 %3, i32 %4)
  br i1 %pre_cond, label %inject, label %exit

inject:                                           ; preds = %entry
  %tmploc_cast = bitcast i1* %tmploc to i8*
  call void @injectFunc(i64 %0, i32 1, i8* %tmploc_cast, i32 %3, i32 %5, i8* %6)
  br label %exit

exit:                                             ; preds = %inject, %entry
  %updateval = load i1* %tmploc
  ret i1 %updateval
}

define i8* @injectFault5(i64, i8*, i32, i32, i32, i32, i8*) {
entry:
  %tmploc = alloca i8*
  store i8* %1, i8** %tmploc
  %pre_cond = call i1 @preFunc(i64 %0, i32 %2, i32 %3, i32 %4)
  br i1 %pre_cond, label %inject, label %exit

inject:                                           ; preds = %entry
  %tmploc_cast = bitcast i8** %tmploc to i8*
  call void @injectFunc(i64 %0, i32 64, i8* %tmploc_cast, i32 %3, i32 %5, i8* %6)
  br label %exit

exit:                                             ; preds = %inject, %entry
  %updateval = load i8** %tmploc
  ret i8* %updateval
}

define i8** @injectFault6(i64, i8**, i32, i32, i32, i32, i8*) {
entry:
  %tmploc = alloca i8**
  store i8** %1, i8*** %tmploc
  %pre_cond = call i1 @preFunc(i64 %0, i32 %2, i32 %3, i32 %4)
  br i1 %pre_cond, label %inject, label %exit

inject:                                           ; preds = %entry
  %tmploc_cast = bitcast i8*** %tmploc to i8*
  call void @injectFunc(i64 %0, i32 64, i8* %tmploc_cast, i32 %3, i32 %5, i8* %6)
  br label %exit

exit:                                             ; preds = %inject, %entry
  %updateval = load i8*** %tmploc
  ret i8** %updateval
}

define i32* @injectFault7(i64, i32*, i32, i32, i32, i32, i8*) {
entry:
  %tmploc = alloca i32*
  store i32* %1, i32** %tmploc
  %pre_cond = call i1 @preFunc(i64 %0, i32 %2, i32 %3, i32 %4)
  br i1 %pre_cond, label %inject, label %exit

inject:                                           ; preds = %entry
  %tmploc_cast = bitcast i32** %tmploc to i8*
  call void @injectFunc(i64 %0, i32 64, i8* %tmploc_cast, i32 %3, i32 %5, i8* %6)
  br label %exit

exit:                                             ; preds = %inject, %entry
  %updateval = load i32** %tmploc
  ret i32* %updateval
}

define %struct._IO_FILE* @injectFault8(i64, %struct._IO_FILE*, i32, i32, i32, i32, i8*) {
entry:
  %tmploc = alloca %struct._IO_FILE*
  store %struct._IO_FILE* %1, %struct._IO_FILE** %tmploc
  %pre_cond = call i1 @preFunc(i64 %0, i32 %2, i32 %3, i32 %4)
  br i1 %pre_cond, label %inject, label %exit

inject:                                           ; preds = %entry
  %tmploc_cast = bitcast %struct._IO_FILE** %tmploc to i8*
  call void @injectFunc(i64 %0, i32 64, i8* %tmploc_cast, i32 %3, i32 %5, i8* %6)
  br label %exit

exit:                                             ; preds = %inject, %entry
  %updateval = load %struct._IO_FILE** %tmploc
  ret %struct._IO_FILE* %updateval
}

define [24 x i32]* @injectFault9(i64, [24 x i32]*, i32, i32, i32, i32, i8*) {
entry:
  %tmploc = alloca [24 x i32]*
  store [24 x i32]* %1, [24 x i32]** %tmploc
  %pre_cond = call i1 @preFunc(i64 %0, i32 %2, i32 %3, i32 %4)
  br i1 %pre_cond, label %inject, label %exit

inject:                                           ; preds = %entry
  %tmploc_cast = bitcast [24 x i32]** %tmploc to i8*
  call void @injectFunc(i64 %0, i32 64, i8* %tmploc_cast, i32 %3, i32 %5, i8* %6)
  br label %exit

exit:                                             ; preds = %inject, %entry
  %updateval = load [24 x i32]** %tmploc
  ret [24 x i32]* %updateval
}

define float @injectFault10(i64, float, i32, i32, i32, i32, i8*) {
entry:
  %tmploc = alloca float
  store float %1, float* %tmploc
  %pre_cond = call i1 @preFunc(i64 %0, i32 %2, i32 %3, i32 %4)
  br i1 %pre_cond, label %inject, label %exit

inject:                                           ; preds = %entry
  %tmploc_cast = bitcast float* %tmploc to i8*
  call void @injectFunc(i64 %0, i32 32, i8* %tmploc_cast, i32 %3, i32 %5, i8* %6)
  br label %exit

exit:                                             ; preds = %inject, %entry
  %updateval = load float* %tmploc
  ret float %updateval
}

declare void @initInjections()

declare void @postInjections()

declare i1 @preFunc(i64, i32, i32, i32)

declare void @injectFunc(i64, i32, i8*, i32, i32, i8*)

attributes #0 = { nounwind uwtable "less-precise-fpmad"="false" "no-frame-pointer-elim"="true" "no-frame-pointer-elim-non-leaf" "no-infs-fp-math"="false" "no-nans-fp-math"="false" "stack-protector-buffer-size"="8" "unsafe-fp-math"="false" "use-soft-float"="false" }
attributes #1 = { nounwind "less-precise-fpmad"="false" "no-frame-pointer-elim"="true" "no-frame-pointer-elim-non-leaf" "no-infs-fp-math"="false" "no-nans-fp-math"="false" "stack-protector-buffer-size"="8" "unsafe-fp-math"="false" "use-soft-float"="false" }
attributes #2 = { uwtable "less-precise-fpmad"="false" "no-frame-pointer-elim"="true" "no-frame-pointer-elim-non-leaf" "no-infs-fp-math"="false" "no-nans-fp-math"="false" "stack-protector-buffer-size"="8" "unsafe-fp-math"="false" "use-soft-float"="false" }
attributes #3 = { "less-precise-fpmad"="false" "no-frame-pointer-elim"="true" "no-frame-pointer-elim-non-leaf" "no-infs-fp-math"="false" "no-nans-fp-math"="false" "stack-protector-buffer-size"="8" "unsafe-fp-math"="false" "use-soft-float"="false" }
attributes #4 = { noreturn nounwind "less-precise-fpmad"="false" "no-frame-pointer-elim"="true" "no-frame-pointer-elim-non-leaf" "no-infs-fp-math"="false" "no-nans-fp-math"="false" "stack-protector-buffer-size"="8" "unsafe-fp-math"="false" "use-soft-float"="false" }
attributes #5 = { nounwind readonly "less-precise-fpmad"="false" "no-frame-pointer-elim"="true" "no-frame-pointer-elim-non-leaf" "no-infs-fp-math"="false" "no-nans-fp-math"="false" "stack-protector-buffer-size"="8" "unsafe-fp-math"="false" "use-soft-float"="false" }
attributes #6 = { nounwind }
attributes #7 = { nounwind readonly }
attributes #8 = { noreturn nounwind }

!llvm.ident = !{!0}

!0 = metadata !{metadata !"clang version 3.4 (tags/RELEASE_34/final)"}
!1 = metadata !{i64 1}
!2 = metadata !{i64 2}
!3 = metadata !{i64 3}
!4 = metadata !{metadata !"after"}
!5 = metadata !{i64 4}
!6 = metadata !{i64 5}
!7 = metadata !{i64 6}
!8 = metadata !{i64 7}
!9 = metadata !{i64 8}
!10 = metadata !{i64 9}
!11 = metadata !{i64 10}
!12 = metadata !{i64 11}
!13 = metadata !{i64 12}
!14 = metadata !{i64 13}
!15 = metadata !{i64 14}
!16 = metadata !{i64 15}
!17 = metadata !{i64 16}
!18 = metadata !{i64 17}
!19 = metadata !{i64 18}
!20 = metadata !{i64 19}
!21 = metadata !{i64 20}
!22 = metadata !{i64 21}
!23 = metadata !{i64 22}
!24 = metadata !{i64 23}
!25 = metadata !{i64 24}
!26 = metadata !{i64 25}
!27 = metadata !{i64 26}
!28 = metadata !{i64 27}
!29 = metadata !{i64 28}
!30 = metadata !{i64 29}
!31 = metadata !{i64 30}
!32 = metadata !{i64 31}
!33 = metadata !{i64 32}
!34 = metadata !{i64 33}
!35 = metadata !{i64 34}
!36 = metadata !{i64 35}
!37 = metadata !{i64 36}
!38 = metadata !{i64 37}
!39 = metadata !{i64 38}
!40 = metadata !{i64 39}
!41 = metadata !{i64 40}
!42 = metadata !{i64 41}
!43 = metadata !{i64 42}
!44 = metadata !{i64 43}
!45 = metadata !{i64 44}
!46 = metadata !{i64 45}
!47 = metadata !{i64 46}
!48 = metadata !{i64 47}
!49 = metadata !{i64 48}
!50 = metadata !{i64 49}
!51 = metadata !{i64 50}
!52 = metadata !{i64 51}
!53 = metadata !{i64 52}
!54 = metadata !{i64 53}
!55 = metadata !{i64 54}
!56 = metadata !{i64 55}
!57 = metadata !{i64 56}
!58 = metadata !{i64 57}
!59 = metadata !{i64 58}
!60 = metadata !{i64 59}
!61 = metadata !{i64 60}
!62 = metadata !{i64 61}
!63 = metadata !{i64 62}
!64 = metadata !{i64 63}
!65 = metadata !{i64 64}
!66 = metadata !{i64 65}
!67 = metadata !{i64 66}
!68 = metadata !{i64 67}
!69 = metadata !{i64 68}
!70 = metadata !{i64 69}
!71 = metadata !{i64 70}
!72 = metadata !{i64 71}
!73 = metadata !{i64 72}
!74 = metadata !{i64 73}
!75 = metadata !{i64 74}
!76 = metadata !{i64 75}
!77 = metadata !{i64 76}
!78 = metadata !{i64 77}
!79 = metadata !{i64 78}
!80 = metadata !{i64 79}
!81 = metadata !{i64 80}
!82 = metadata !{i64 81}
!83 = metadata !{i64 82}
!84 = metadata !{i64 83}
!85 = metadata !{i64 84}
!86 = metadata !{i64 85}
!87 = metadata !{i64 86}
!88 = metadata !{i64 87}
!89 = metadata !{i64 88}
!90 = metadata !{i64 89}
!91 = metadata !{i64 90}
!92 = metadata !{i64 91}
!93 = metadata !{i64 92}
!94 = metadata !{i64 93}
!95 = metadata !{i64 94}
!96 = metadata !{i64 95}
!97 = metadata !{i64 96}
!98 = metadata !{i64 97}
!99 = metadata !{i64 98}
!100 = metadata !{i64 99}
!101 = metadata !{i64 100}
!102 = metadata !{i64 101}
!103 = metadata !{i64 102}
!104 = metadata !{i64 103}
!105 = metadata !{i64 104}
!106 = metadata !{i64 105}
!107 = metadata !{i64 106}
!108 = metadata !{i64 107}
!109 = metadata !{i64 108}
!110 = metadata !{i64 109}
!111 = metadata !{i64 110}
!112 = metadata !{i64 111}
!113 = metadata !{i64 112}
!114 = metadata !{i64 113}
!115 = metadata !{i64 114}
!116 = metadata !{i64 115}
!117 = metadata !{i64 116}
!118 = metadata !{i64 117}
!119 = metadata !{i64 118}
!120 = metadata !{i64 119}
!121 = metadata !{i64 120}
!122 = metadata !{i64 121}
!123 = metadata !{i64 122}
!124 = metadata !{i64 123}
!125 = metadata !{i64 124}
!126 = metadata !{i64 125}
!127 = metadata !{i64 126}
!128 = metadata !{i64 127}
!129 = metadata !{i64 128}
!130 = metadata !{i64 129}
!131 = metadata !{i64 130}
!132 = metadata !{i64 131}
!133 = metadata !{i64 132}
!134 = metadata !{i64 133}
!135 = metadata !{i64 134}
!136 = metadata !{i64 135}
!137 = metadata !{i64 136}
!138 = metadata !{i64 137}
!139 = metadata !{i64 138}
!140 = metadata !{i64 139}
!141 = metadata !{i64 140}
!142 = metadata !{i64 141}
!143 = metadata !{i64 142}
!144 = metadata !{i64 143}
!145 = metadata !{i64 144}
!146 = metadata !{i64 145}
!147 = metadata !{i64 146}
!148 = metadata !{i64 147}
!149 = metadata !{i64 148}
!150 = metadata !{i64 149}
!151 = metadata !{i64 150}
!152 = metadata !{i64 151}
!153 = metadata !{i64 152}
!154 = metadata !{i64 153}
!155 = metadata !{i64 154}
!156 = metadata !{i64 155}
!157 = metadata !{i64 156}
!158 = metadata !{i64 157}
!159 = metadata !{i64 158}
!160 = metadata !{i64 159}
!161 = metadata !{i64 160}
!162 = metadata !{i64 161}
!163 = metadata !{i64 162}
!164 = metadata !{i64 163}
!165 = metadata !{i64 164}
!166 = metadata !{i64 165}
!167 = metadata !{i64 166}
!168 = metadata !{i64 167}
!169 = metadata !{i64 168}
!170 = metadata !{i64 169}
!171 = metadata !{i64 170}
!172 = metadata !{i64 171}
!173 = metadata !{i64 172}
!174 = metadata !{i64 173}
!175 = metadata !{i64 174}
!176 = metadata !{i64 175}
!177 = metadata !{i64 176}
!178 = metadata !{i64 177}
!179 = metadata !{i64 178}
!180 = metadata !{i64 179}
!181 = metadata !{i64 180}
!182 = metadata !{i64 181}
!183 = metadata !{i64 182}
!184 = metadata !{i64 183}
!185 = metadata !{i64 184}
!186 = metadata !{i64 185}
!187 = metadata !{i64 186}
!188 = metadata !{i64 187}
!189 = metadata !{i64 188}
!190 = metadata !{i64 189}
!191 = metadata !{i64 190}
!192 = metadata !{i64 191}
!193 = metadata !{i64 192}
!194 = metadata !{i64 193}
!195 = metadata !{i64 194}
!196 = metadata !{i64 195}
!197 = metadata !{i64 196}
!198 = metadata !{i64 197}
!199 = metadata !{i64 198}
!200 = metadata !{i64 199}
!201 = metadata !{i64 200}
!202 = metadata !{i64 201}
!203 = metadata !{i64 202}
!204 = metadata !{i64 203}
!205 = metadata !{i64 204}
!206 = metadata !{i64 205}
!207 = metadata !{i64 206}
!208 = metadata !{i64 207}
!209 = metadata !{i64 208}
!210 = metadata !{i64 209}
!211 = metadata !{i64 210}
!212 = metadata !{i64 211}
!213 = metadata !{i64 212}
!214 = metadata !{i64 213}
!215 = metadata !{i64 214}
!216 = metadata !{i64 215}
!217 = metadata !{i64 216}
!218 = metadata !{i64 217}
!219 = metadata !{i64 218}
!220 = metadata !{i64 219}
!221 = metadata !{i64 220}
!222 = metadata !{i64 221}
!223 = metadata !{i64 222}
!224 = metadata !{i64 223}
!225 = metadata !{i64 224}
!226 = metadata !{i64 225}
!227 = metadata !{i64 226}
!228 = metadata !{i64 227}
!229 = metadata !{i64 228}
!230 = metadata !{i64 229}
!231 = metadata !{i64 230}
!232 = metadata !{i64 231}
!233 = metadata !{i64 232}
!234 = metadata !{i64 233}
!235 = metadata !{i64 234}
!236 = metadata !{i64 235}
!237 = metadata !{i64 236}
!238 = metadata !{i64 237}
!239 = metadata !{i64 238}
!240 = metadata !{i64 239}
!241 = metadata !{i64 240}
!242 = metadata !{i64 241}
!243 = metadata !{i64 242}
!244 = metadata !{i64 243}
!245 = metadata !{i64 244}
!246 = metadata !{i64 245}
!247 = metadata !{i64 246}
!248 = metadata !{i64 247}
!249 = metadata !{i64 248}
!250 = metadata !{i64 249}
!251 = metadata !{i64 250}
!252 = metadata !{i64 251}
!253 = metadata !{i64 252}
!254 = metadata !{i64 253}
!255 = metadata !{i64 254}
!256 = metadata !{i64 255}
!257 = metadata !{i64 256}
!258 = metadata !{i64 257}
!259 = metadata !{i64 258}
!260 = metadata !{i64 259}
!261 = metadata !{i64 260}
!262 = metadata !{i64 261}
!263 = metadata !{i64 262}
!264 = metadata !{i64 263}
!265 = metadata !{i64 264}
!266 = metadata !{i64 265}
!267 = metadata !{i64 266}
!268 = metadata !{i64 267}
!269 = metadata !{i64 268}
!270 = metadata !{i64 269}
!271 = metadata !{i64 270}
!272 = metadata !{i64 271}
!273 = metadata !{i64 272}
!274 = metadata !{i64 273}
!275 = metadata !{i64 274}
!276 = metadata !{i64 275}
!277 = metadata !{i64 276}
!278 = metadata !{i64 277}
!279 = metadata !{i64 278}
!280 = metadata !{i64 279}
!281 = metadata !{i64 280}
!282 = metadata !{i64 281}
!283 = metadata !{i64 282}
!284 = metadata !{i64 283}
!285 = metadata !{i64 284}
!286 = metadata !{i64 285}
!287 = metadata !{i64 286}
!288 = metadata !{i64 287}
!289 = metadata !{i64 288}
!290 = metadata !{i64 289}
!291 = metadata !{i64 290}
!292 = metadata !{i64 291}
!293 = metadata !{i64 292}
!294 = metadata !{i64 293}
!295 = metadata !{i64 294}
!296 = metadata !{i64 295}
!297 = metadata !{i64 296}
!298 = metadata !{i64 297}
!299 = metadata !{i64 298}
!300 = metadata !{i64 299}
!301 = metadata !{i64 300}
!302 = metadata !{i64 301}
!303 = metadata !{i64 302}
!304 = metadata !{i64 303}
!305 = metadata !{i64 304}
!306 = metadata !{i64 305}
!307 = metadata !{i64 306}
!308 = metadata !{i64 307}
!309 = metadata !{i64 308}
!310 = metadata !{i64 309}
!311 = metadata !{i64 310}
!312 = metadata !{i64 311}
!313 = metadata !{i64 312}
!314 = metadata !{i64 313}
!315 = metadata !{i64 314}
!316 = metadata !{i64 315}
!317 = metadata !{i64 316}
!318 = metadata !{i64 317}
!319 = metadata !{i64 318}
!320 = metadata !{i64 319}
!321 = metadata !{i64 320}
!322 = metadata !{i64 321}
!323 = metadata !{i64 322}
!324 = metadata !{i64 323}
!325 = metadata !{i64 324}
!326 = metadata !{i64 325}
!327 = metadata !{i64 326}
!328 = metadata !{i64 327}
!329 = metadata !{i64 328}
!330 = metadata !{i64 329}
!331 = metadata !{i64 330}
!332 = metadata !{i64 331}
!333 = metadata !{i64 332}
!334 = metadata !{i64 333}
!335 = metadata !{i64 334}
!336 = metadata !{i64 335}
!337 = metadata !{i64 336}
!338 = metadata !{i64 337}
!339 = metadata !{i64 338}
!340 = metadata !{i64 339}
!341 = metadata !{i64 340}
!342 = metadata !{i64 341}
!343 = metadata !{i64 342}
!344 = metadata !{i64 343}
!345 = metadata !{i64 344}
!346 = metadata !{i64 345}
!347 = metadata !{i64 346}
!348 = metadata !{i64 347}
!349 = metadata !{i64 348}
!350 = metadata !{i64 349}
!351 = metadata !{i64 350}
!352 = metadata !{i64 351}
!353 = metadata !{i64 352}
!354 = metadata !{i64 353}
!355 = metadata !{i64 354}
!356 = metadata !{i64 355}
!357 = metadata !{i64 356}
!358 = metadata !{i64 357}
!359 = metadata !{i64 358}
!360 = metadata !{i64 359}
!361 = metadata !{i64 360}
!362 = metadata !{i64 361}
!363 = metadata !{i64 362}
!364 = metadata !{i64 363}
!365 = metadata !{i64 364}
!366 = metadata !{i64 365}
!367 = metadata !{i64 366}
!368 = metadata !{i64 367}
!369 = metadata !{i64 368}
!370 = metadata !{i64 369}
!371 = metadata !{i64 370}
!372 = metadata !{i64 371}
!373 = metadata !{i64 372}
!374 = metadata !{i64 373}
!375 = metadata !{i64 374}
!376 = metadata !{i64 375}
!377 = metadata !{i64 376}
!378 = metadata !{i64 377}
!379 = metadata !{i64 378}
!380 = metadata !{i64 379}
!381 = metadata !{i64 380}
!382 = metadata !{i64 381}
!383 = metadata !{i64 382}
!384 = metadata !{i64 383}
!385 = metadata !{i64 384}
!386 = metadata !{i64 385}
!387 = metadata !{i64 386}
!388 = metadata !{i64 387}
!389 = metadata !{i64 388}
!390 = metadata !{i64 389}
!391 = metadata !{i64 390}
!392 = metadata !{i64 391}
!393 = metadata !{i64 392}
!394 = metadata !{i64 393}
!395 = metadata !{i64 394}
!396 = metadata !{i64 395}
!397 = metadata !{i64 396}
!398 = metadata !{i64 397}
!399 = metadata !{i64 398}
!400 = metadata !{i64 399}
!401 = metadata !{i64 400}
!402 = metadata !{i64 401}
!403 = metadata !{i64 402}
!404 = metadata !{i64 403}
!405 = metadata !{i64 404}
!406 = metadata !{i64 405}
!407 = metadata !{i64 406}
!408 = metadata !{i64 407}
!409 = metadata !{i64 408}
!410 = metadata !{i64 409}
!411 = metadata !{i64 410}
!412 = metadata !{i64 411}
!413 = metadata !{i64 412}
!414 = metadata !{i64 413}
!415 = metadata !{i64 414}
!416 = metadata !{i64 415}
!417 = metadata !{i64 416}
!418 = metadata !{i64 417}
!419 = metadata !{i64 418}
!420 = metadata !{i64 419}
!421 = metadata !{i64 420}
!422 = metadata !{i64 421}
!423 = metadata !{i64 422}
!424 = metadata !{i64 423}
!425 = metadata !{i64 424}
!426 = metadata !{i64 425}
!427 = metadata !{i64 426}
!428 = metadata !{i64 427}
!429 = metadata !{i64 428}
!430 = metadata !{i64 429}
!431 = metadata !{i64 430}
!432 = metadata !{i64 431}
!433 = metadata !{i64 432}
!434 = metadata !{i64 433}
!435 = metadata !{i64 434}
!436 = metadata !{i64 435}
!437 = metadata !{i64 436}
!438 = metadata !{i64 437}
!439 = metadata !{i64 438}
!440 = metadata !{i64 439}
!441 = metadata !{i64 440}
!442 = metadata !{i64 441}
!443 = metadata !{i64 442}
!444 = metadata !{i64 443}
!445 = metadata !{i64 444}
!446 = metadata !{i64 445}
!447 = metadata !{i64 446}
!448 = metadata !{i64 447}
!449 = metadata !{i64 448}
!450 = metadata !{i64 449}
!451 = metadata !{i64 450}
!452 = metadata !{i64 451}
!453 = metadata !{i64 452}
!454 = metadata !{i64 453}
!455 = metadata !{i64 454}
!456 = metadata !{i64 455}
!457 = metadata !{i64 456}
!458 = metadata !{i64 457}
!459 = metadata !{i64 458}
!460 = metadata !{i64 459}
!461 = metadata !{i64 460}
!462 = metadata !{i64 461}
!463 = metadata !{i64 462}
!464 = metadata !{i64 463}
!465 = metadata !{i64 464}
!466 = metadata !{i64 465}
!467 = metadata !{i64 466}
!468 = metadata !{i64 467}
!469 = metadata !{i64 468}
!470 = metadata !{i64 469}
!471 = metadata !{i64 470}
!472 = metadata !{i64 471}
!473 = metadata !{i64 472}
!474 = metadata !{i64 473}
!475 = metadata !{i64 474}
!476 = metadata !{i64 475}
!477 = metadata !{i64 476}
!478 = metadata !{i64 477}
!479 = metadata !{i64 478}
!480 = metadata !{i64 479}
!481 = metadata !{i64 480}
!482 = metadata !{i64 481}
!483 = metadata !{i64 482}
!484 = metadata !{i64 483}
!485 = metadata !{i64 484}
!486 = metadata !{i64 485}
!487 = metadata !{i64 486}
!488 = metadata !{i64 487}
!489 = metadata !{i64 488}
!490 = metadata !{i64 489}
!491 = metadata !{i64 490}
!492 = metadata !{i64 491}
!493 = metadata !{i64 492}
!494 = metadata !{i64 493}
!495 = metadata !{i64 494}
!496 = metadata !{i64 495}
!497 = metadata !{i64 496}
!498 = metadata !{i64 497}
!499 = metadata !{i64 498}
!500 = metadata !{i64 499}
!501 = metadata !{i64 500}
!502 = metadata !{i64 501}
!503 = metadata !{i64 502}
!504 = metadata !{i64 503}
!505 = metadata !{i64 504}
!506 = metadata !{i64 505}
!507 = metadata !{i64 506}
!508 = metadata !{i64 507}
!509 = metadata !{i64 508}
!510 = metadata !{i64 509}
!511 = metadata !{i64 510}
!512 = metadata !{i64 511}
!513 = metadata !{i64 512}
!514 = metadata !{i64 513}
!515 = metadata !{i64 514}
!516 = metadata !{i64 515}
!517 = metadata !{i64 516}
!518 = metadata !{i64 517}
!519 = metadata !{i64 518}
!520 = metadata !{i64 519}
!521 = metadata !{i64 520}
!522 = metadata !{i64 521}
!523 = metadata !{i64 522}
!524 = metadata !{i64 523}
!525 = metadata !{i64 524}
!526 = metadata !{i64 525}
!527 = metadata !{i64 526}
!528 = metadata !{i64 527}
!529 = metadata !{i64 528}
!530 = metadata !{i64 529}
!531 = metadata !{i64 530}
!532 = metadata !{i64 531}
!533 = metadata !{i64 532}
!534 = metadata !{i64 533}
!535 = metadata !{i64 534}
!536 = metadata !{i64 535}
!537 = metadata !{i64 536}
!538 = metadata !{i64 537}
!539 = metadata !{i64 538}
!540 = metadata !{i64 539}
!541 = metadata !{i64 540}
!542 = metadata !{i64 541}
!543 = metadata !{i64 542}
!544 = metadata !{i64 543}
!545 = metadata !{i64 544}
!546 = metadata !{i64 545}
!547 = metadata !{i64 546}
!548 = metadata !{i64 547}
!549 = metadata !{i64 548}
!550 = metadata !{i64 549}
!551 = metadata !{i64 550}
!552 = metadata !{i64 551}
!553 = metadata !{i64 552}
!554 = metadata !{i64 553}
!555 = metadata !{i64 554}
!556 = metadata !{i64 555}
!557 = metadata !{i64 556}
!558 = metadata !{i64 557}
!559 = metadata !{i64 558}
!560 = metadata !{i64 559}
!561 = metadata !{i64 560}
!562 = metadata !{i64 561}
!563 = metadata !{i64 562}
!564 = metadata !{i64 563}
!565 = metadata !{i64 564}
!566 = metadata !{i64 565}
!567 = metadata !{i64 566}
!568 = metadata !{i64 567}
!569 = metadata !{i64 568}
!570 = metadata !{i64 569}
!571 = metadata !{i64 570}
!572 = metadata !{i64 571}
!573 = metadata !{i64 572}
!574 = metadata !{i64 573}
!575 = metadata !{i64 574}
!576 = metadata !{i64 575}
!577 = metadata !{i64 576}
!578 = metadata !{i64 577}
!579 = metadata !{i64 578}
!580 = metadata !{i64 579}
!581 = metadata !{i64 580}
!582 = metadata !{i64 581}
!583 = metadata !{i64 582}
!584 = metadata !{i64 583}
!585 = metadata !{i64 584}
!586 = metadata !{i64 585}
!587 = metadata !{i64 586}
!588 = metadata !{i64 587}
!589 = metadata !{i64 588}
!590 = metadata !{i64 589}
!591 = metadata !{i64 590}
!592 = metadata !{i64 591}
!593 = metadata !{i64 592}
!594 = metadata !{i64 593}
!595 = metadata !{i64 594}
!596 = metadata !{i64 595}
!597 = metadata !{i64 596}
!598 = metadata !{i64 597}
!599 = metadata !{i64 598}
!600 = metadata !{i64 599}
!601 = metadata !{i64 600}
!602 = metadata !{i64 601}
!603 = metadata !{i64 602}
!604 = metadata !{i64 603}
!605 = metadata !{i64 604}
!606 = metadata !{i64 605}
!607 = metadata !{i64 606}
!608 = metadata !{i64 607}
!609 = metadata !{i64 608}
!610 = metadata !{i64 609}
!611 = metadata !{i64 610}
!612 = metadata !{i64 611}
!613 = metadata !{i64 612}
!614 = metadata !{i64 613}
!615 = metadata !{i64 614}
!616 = metadata !{i64 615}
!617 = metadata !{i64 616}
!618 = metadata !{i64 617}
!619 = metadata !{i64 618}
!620 = metadata !{i64 619}
!621 = metadata !{i64 620}
!622 = metadata !{i64 621}
!623 = metadata !{i64 622}
!624 = metadata !{i64 623}
!625 = metadata !{i64 624}
!626 = metadata !{i64 625}
!627 = metadata !{i64 626}
!628 = metadata !{i64 627}
!629 = metadata !{i64 628}
!630 = metadata !{i64 629}
!631 = metadata !{i64 630}
!632 = metadata !{i64 631}
!633 = metadata !{i64 632}
!634 = metadata !{i64 633}
!635 = metadata !{i64 634}
!636 = metadata !{i64 635}
!637 = metadata !{i64 636}
!638 = metadata !{i64 637}
!639 = metadata !{i64 638}
!640 = metadata !{i64 639}
!641 = metadata !{i64 640}
!642 = metadata !{i64 641}
!643 = metadata !{i64 642}
!644 = metadata !{i64 643}
!645 = metadata !{i64 644}
!646 = metadata !{i64 645}
!647 = metadata !{i64 646}
!648 = metadata !{i64 647}
!649 = metadata !{i64 648}
!650 = metadata !{i64 649}
!651 = metadata !{i64 650}
!652 = metadata !{i64 651}
!653 = metadata !{i64 652}
!654 = metadata !{i64 653}
!655 = metadata !{i64 654}
!656 = metadata !{i64 655}
!657 = metadata !{i64 656}
!658 = metadata !{i64 657}
!659 = metadata !{i64 658}
!660 = metadata !{i64 659}
!661 = metadata !{i64 660}
!662 = metadata !{i64 661}
!663 = metadata !{i64 662}
!664 = metadata !{i64 663}
!665 = metadata !{i64 664}
!666 = metadata !{i64 665}
!667 = metadata !{i64 666}
!668 = metadata !{i64 667}
!669 = metadata !{i64 668}
!670 = metadata !{i64 669}
!671 = metadata !{i64 670}
!672 = metadata !{i64 671}
!673 = metadata !{i64 672}
!674 = metadata !{i64 673}
!675 = metadata !{i64 674}
!676 = metadata !{i64 675}
!677 = metadata !{i64 676}
!678 = metadata !{i64 677}
!679 = metadata !{i64 678}
!680 = metadata !{i64 679}
!681 = metadata !{i64 680}
!682 = metadata !{i64 681}
!683 = metadata !{i64 682}
!684 = metadata !{i64 683}
!685 = metadata !{i64 684}
!686 = metadata !{i64 685}
!687 = metadata !{i64 686}
!688 = metadata !{i64 687}
!689 = metadata !{i64 688}
!690 = metadata !{i64 689}
!691 = metadata !{i64 690}
!692 = metadata !{i64 691}
!693 = metadata !{i64 692}
!694 = metadata !{i64 693}
!695 = metadata !{i64 694}
!696 = metadata !{i64 695}
!697 = metadata !{i64 696}
!698 = metadata !{i64 697}
!699 = metadata !{i64 698}
!700 = metadata !{i64 699}
!701 = metadata !{i64 700}
!702 = metadata !{i64 701}
!703 = metadata !{i64 702}
!704 = metadata !{i64 703}
!705 = metadata !{i64 704}
!706 = metadata !{i64 705}
!707 = metadata !{i64 706}
!708 = metadata !{i64 707}
!709 = metadata !{i64 708}
!710 = metadata !{i64 709}
!711 = metadata !{i64 710}
!712 = metadata !{i64 711}
!713 = metadata !{i64 712}
!714 = metadata !{i64 713}
!715 = metadata !{i64 714}
!716 = metadata !{i64 715}
!717 = metadata !{i64 716}
!718 = metadata !{i64 717}
!719 = metadata !{i64 718}
!720 = metadata !{i64 719}
!721 = metadata !{i64 720}
!722 = metadata !{i64 721}
!723 = metadata !{i64 722}
!724 = metadata !{i64 723}
!725 = metadata !{i64 724}
!726 = metadata !{i64 725}
!727 = metadata !{i64 726}
!728 = metadata !{i64 727}
!729 = metadata !{i64 728}
!730 = metadata !{i64 729}
!731 = metadata !{i64 730}
!732 = metadata !{i64 731}
!733 = metadata !{i64 732}
!734 = metadata !{i64 733}
!735 = metadata !{i64 734}
!736 = metadata !{i64 735}
!737 = metadata !{i64 736}
!738 = metadata !{i64 737}
!739 = metadata !{i64 738}
!740 = metadata !{i64 739}
!741 = metadata !{i64 740}
!742 = metadata !{i64 741}
!743 = metadata !{i64 742}
!744 = metadata !{i64 743}
!745 = metadata !{i64 744}
!746 = metadata !{i64 745}
!747 = metadata !{i64 746}
!748 = metadata !{i64 747}
!749 = metadata !{i64 748}
!750 = metadata !{i64 749}
!751 = metadata !{i64 750}
!752 = metadata !{i64 751}
!753 = metadata !{i64 752}
!754 = metadata !{i64 753}
!755 = metadata !{i64 754}
!756 = metadata !{i64 755}
!757 = metadata !{i64 756}
!758 = metadata !{i64 757}
!759 = metadata !{i64 758}
!760 = metadata !{i64 759}
!761 = metadata !{i64 760}
!762 = metadata !{i64 761}
!763 = metadata !{i64 762}
!764 = metadata !{i64 763}
!765 = metadata !{i64 764}
!766 = metadata !{i64 765}
!767 = metadata !{i64 766}
!768 = metadata !{i64 767}
!769 = metadata !{i64 768}
!770 = metadata !{i64 769}
!771 = metadata !{i64 770}
!772 = metadata !{i64 771}
!773 = metadata !{i64 772}
!774 = metadata !{i64 773}
!775 = metadata !{i64 774}
!776 = metadata !{i64 775}
!777 = metadata !{i64 776}
!778 = metadata !{i64 777}
!779 = metadata !{i64 778}
!780 = metadata !{i64 779}
!781 = metadata !{i64 780}
!782 = metadata !{i64 781}
!783 = metadata !{i64 782}
!784 = metadata !{i64 783}
!785 = metadata !{i64 784}
!786 = metadata !{i64 785}
!787 = metadata !{i64 786}
!788 = metadata !{i64 787}
!789 = metadata !{i64 788}
!790 = metadata !{i64 789}
!791 = metadata !{i64 790}
!792 = metadata !{i64 791}
!793 = metadata !{i64 792}
!794 = metadata !{i64 793}
!795 = metadata !{i64 794}
!796 = metadata !{i64 795}
!797 = metadata !{i64 796}
!798 = metadata !{i64 797}
!799 = metadata !{i64 798}
!800 = metadata !{i64 799}
!801 = metadata !{i64 800}
!802 = metadata !{i64 801}
!803 = metadata !{i64 802}
!804 = metadata !{i64 803}
!805 = metadata !{i64 804}
!806 = metadata !{i64 805}
!807 = metadata !{i64 806}
!808 = metadata !{i64 807}
!809 = metadata !{i64 808}
!810 = metadata !{i64 809}
!811 = metadata !{i64 810}
!812 = metadata !{i64 811}
!813 = metadata !{i64 812}
!814 = metadata !{i64 813}
!815 = metadata !{i64 814}
!816 = metadata !{i64 815}
!817 = metadata !{i64 816}
!818 = metadata !{i64 817}
!819 = metadata !{i64 818}
!820 = metadata !{i64 819}
!821 = metadata !{i64 820}
!822 = metadata !{i64 821}
!823 = metadata !{i64 822}
!824 = metadata !{i64 823}
!825 = metadata !{i64 824}
!826 = metadata !{i64 825}
!827 = metadata !{i64 826}
!828 = metadata !{i64 827}
!829 = metadata !{i64 828}
!830 = metadata !{i64 829}
!831 = metadata !{i64 830}
!832 = metadata !{i64 831}
!833 = metadata !{i64 832}
!834 = metadata !{i64 833}
!835 = metadata !{i64 834}
!836 = metadata !{i64 835}
!837 = metadata !{i64 836}
!838 = metadata !{i64 837}
!839 = metadata !{i64 838}
!840 = metadata !{i64 839}
!841 = metadata !{i64 840}
!842 = metadata !{i64 841}
!843 = metadata !{i64 842}
!844 = metadata !{i64 843}
!845 = metadata !{i64 844}
!846 = metadata !{i64 845}
!847 = metadata !{i64 846}
!848 = metadata !{i64 847}
!849 = metadata !{i64 848}
!850 = metadata !{i64 849}
!851 = metadata !{i64 850}
!852 = metadata !{i64 851}
!853 = metadata !{i64 852}
!854 = metadata !{i64 853}
!855 = metadata !{i64 854}
!856 = metadata !{i64 855}
!857 = metadata !{i64 856}
!858 = metadata !{i64 857}
!859 = metadata !{i64 858}
!860 = metadata !{i64 859}
!861 = metadata !{i64 860}
!862 = metadata !{i64 861}
!863 = metadata !{i64 862}
!864 = metadata !{i64 863}
!865 = metadata !{i64 864}
!866 = metadata !{i64 865}
!867 = metadata !{i64 866}
!868 = metadata !{i64 867}
!869 = metadata !{i64 868}
!870 = metadata !{i64 869}
!871 = metadata !{i64 870}
!872 = metadata !{i64 871}
!873 = metadata !{i64 872}
!874 = metadata !{i64 873}
!875 = metadata !{i64 874}
!876 = metadata !{i64 875}
!877 = metadata !{i64 876}
!878 = metadata !{i64 877}
!879 = metadata !{i64 878}
!880 = metadata !{i64 879}
!881 = metadata !{i64 880}
!882 = metadata !{i64 881}
!883 = metadata !{i64 882}
!884 = metadata !{i64 883}
!885 = metadata !{i64 884}
!886 = metadata !{i64 885}
!887 = metadata !{i64 886}
!888 = metadata !{i64 887}
!889 = metadata !{i64 888}
!890 = metadata !{i64 889}
!891 = metadata !{i64 890}
!892 = metadata !{i64 891}
!893 = metadata !{i64 892}
!894 = metadata !{i64 893}
!895 = metadata !{i64 894}
!896 = metadata !{i64 895}
!897 = metadata !{i64 896}
!898 = metadata !{i64 897}
!899 = metadata !{i64 898}
!900 = metadata !{i64 899}
!901 = metadata !{i64 900}
!902 = metadata !{i64 901}
!903 = metadata !{i64 902}
!904 = metadata !{i64 903}
!905 = metadata !{i64 904}
!906 = metadata !{i64 905}
!907 = metadata !{i64 906}
!908 = metadata !{i64 907}
!909 = metadata !{i64 908}
!910 = metadata !{i64 909}
!911 = metadata !{i64 910}
!912 = metadata !{i64 911}
!913 = metadata !{i64 912}
!914 = metadata !{i64 913}
!915 = metadata !{i64 914}
!916 = metadata !{i64 915}
!917 = metadata !{i64 916}
!918 = metadata !{i64 917}
!919 = metadata !{i64 918}
!920 = metadata !{i64 919}
!921 = metadata !{i64 920}
!922 = metadata !{i64 921}
!923 = metadata !{i64 922}
!924 = metadata !{i64 923}
!925 = metadata !{i64 924}
!926 = metadata !{i64 925}
!927 = metadata !{i64 926}
!928 = metadata !{i64 927}
!929 = metadata !{i64 928}
!930 = metadata !{i64 929}
!931 = metadata !{i64 930}
!932 = metadata !{i64 931}
!933 = metadata !{i64 932}
!934 = metadata !{i64 933}
!935 = metadata !{i64 934}
!936 = metadata !{i64 935}
!937 = metadata !{i64 936}
!938 = metadata !{i64 937}
!939 = metadata !{i64 938}
!940 = metadata !{i64 939}
!941 = metadata !{i64 940}
!942 = metadata !{i64 941}
!943 = metadata !{i64 942}
!944 = metadata !{i64 943}
!945 = metadata !{i64 944}
!946 = metadata !{i64 945}
!947 = metadata !{i64 946}
!948 = metadata !{i64 947}
!949 = metadata !{i64 948}
!950 = metadata !{i64 949}
!951 = metadata !{i64 950}
!952 = metadata !{i64 951}
!953 = metadata !{i64 952}
!954 = metadata !{i64 953}
!955 = metadata !{i64 954}
!956 = metadata !{i64 955}
!957 = metadata !{i64 956}
!958 = metadata !{i64 957}
!959 = metadata !{i64 958}
!960 = metadata !{i64 959}
!961 = metadata !{i64 960}
!962 = metadata !{i64 961}
!963 = metadata !{i64 962}
!964 = metadata !{i64 963}
!965 = metadata !{i64 964}
!966 = metadata !{i64 965}
!967 = metadata !{i64 966}
!968 = metadata !{i64 967}
!969 = metadata !{i64 968}
!970 = metadata !{i64 969}
!971 = metadata !{i64 970}
!972 = metadata !{i64 971}
!973 = metadata !{i64 972}
!974 = metadata !{i64 973}
!975 = metadata !{i64 974}
!976 = metadata !{i64 975}
!977 = metadata !{i64 976}
!978 = metadata !{i64 977}
!979 = metadata !{i64 978}
!980 = metadata !{i64 979}
!981 = metadata !{i64 980}
!982 = metadata !{i64 981}
!983 = metadata !{i64 982}
!984 = metadata !{i64 983}
!985 = metadata !{i64 984}
!986 = metadata !{i64 985}
!987 = metadata !{i64 986}
!988 = metadata !{i64 987}
!989 = metadata !{i64 988}
!990 = metadata !{i64 989}
!991 = metadata !{i64 990}
!992 = metadata !{i64 991}
!993 = metadata !{i64 992}
!994 = metadata !{i64 993}
!995 = metadata !{i64 994}
!996 = metadata !{i64 995}
!997 = metadata !{i64 996}
!998 = metadata !{i64 997}
!999 = metadata !{i64 998}
!1000 = metadata !{i64 999}
!1001 = metadata !{i64 1000}
!1002 = metadata !{i64 1001}
!1003 = metadata !{i64 1002}
!1004 = metadata !{i64 1003}
!1005 = metadata !{i64 1004}
!1006 = metadata !{i64 1005}
!1007 = metadata !{i64 1006}
!1008 = metadata !{i64 1007}
!1009 = metadata !{i64 1008}
!1010 = metadata !{i64 1009}
!1011 = metadata !{i64 1010}
!1012 = metadata !{i64 1011}
!1013 = metadata !{i64 1012}
!1014 = metadata !{i64 1013}
!1015 = metadata !{i64 1014}
!1016 = metadata !{i64 1015}
!1017 = metadata !{i64 1016}
!1018 = metadata !{i64 1017}
!1019 = metadata !{i64 1018}
!1020 = metadata !{i64 1019}
!1021 = metadata !{i64 1020}
!1022 = metadata !{i64 1021}
!1023 = metadata !{i64 1022}
!1024 = metadata !{i64 1023}
!1025 = metadata !{i64 1024}
!1026 = metadata !{i64 1025}
!1027 = metadata !{i64 1026}
!1028 = metadata !{i64 1027}
!1029 = metadata !{i64 1028}
!1030 = metadata !{i64 1029}
!1031 = metadata !{i64 1030}
!1032 = metadata !{i64 1031}
!1033 = metadata !{i64 1032}
!1034 = metadata !{i64 1033}
!1035 = metadata !{i64 1034}
!1036 = metadata !{i64 1035}
!1037 = metadata !{i64 1036}
!1038 = metadata !{i64 1037}
!1039 = metadata !{i64 1038}
!1040 = metadata !{i64 1039}
!1041 = metadata !{i64 1040}
!1042 = metadata !{i64 1041}
!1043 = metadata !{i64 1042}
!1044 = metadata !{i64 1043}
!1045 = metadata !{i64 1044}
!1046 = metadata !{i64 1045}
!1047 = metadata !{i64 1046}
!1048 = metadata !{i64 1047}
!1049 = metadata !{i64 1048}
!1050 = metadata !{i64 1049}
!1051 = metadata !{i64 1050}
!1052 = metadata !{i64 1051}
!1053 = metadata !{i64 1052}
!1054 = metadata !{i64 1053}
!1055 = metadata !{i64 1054}
!1056 = metadata !{i64 1055}
!1057 = metadata !{i64 1056}
!1058 = metadata !{i64 1057}
!1059 = metadata !{i64 1058}
!1060 = metadata !{i64 1059}
!1061 = metadata !{i64 1060}
!1062 = metadata !{i64 1061}
!1063 = metadata !{i64 1062}
!1064 = metadata !{i64 1063}
!1065 = metadata !{i64 1064}
!1066 = metadata !{i64 1065}
!1067 = metadata !{i64 1066}
!1068 = metadata !{i64 1067}
!1069 = metadata !{i64 1068}
!1070 = metadata !{i64 1069}
